
DWM_Distance.elf:     file format elf32-avr

Sections:
Idx Name          Size      VMA       LMA       File off  Algn
  0 .data         0000051a  00800100  00006d34  00006dc8  2**0
                  CONTENTS, ALLOC, LOAD, DATA
  1 .text         00006d34  00000000  00000000  00000094  2**1
                  CONTENTS, ALLOC, LOAD, READONLY, CODE
  2 .bss          0000006a  0080061a  0080061a  000072e2  2**0
                  ALLOC
  3 .comment      00000030  00000000  00000000  000072e2  2**0
                  CONTENTS, READONLY
  4 .note.gnu.avr.deviceinfo 00000040  00000000  00000000  00007314  2**2
                  CONTENTS, READONLY
  5 .debug_info   000006cc  00000000  00000000  00007354  2**0
                  CONTENTS, READONLY, DEBUGGING
  6 .debug_abbrev 0000066e  00000000  00000000  00007a20  2**0
                  CONTENTS, READONLY, DEBUGGING
  7 .debug_line   0000001a  00000000  00000000  0000808e  2**0
                  CONTENTS, READONLY, DEBUGGING
  8 .debug_str    00000255  00000000  00000000  000080a8  2**0
                  CONTENTS, READONLY, DEBUGGING

Disassembly of section .text:

00000000 <__vectors>:
       0:	0c 94 a4 00 	jmp	0x148	; 0x148 <__ctors_end>
       4:	0c 94 c1 00 	jmp	0x182	; 0x182 <__bad_interrupt>
       8:	0c 94 c1 00 	jmp	0x182	; 0x182 <__bad_interrupt>
       c:	0c 94 c1 00 	jmp	0x182	; 0x182 <__bad_interrupt>
      10:	0c 94 c1 00 	jmp	0x182	; 0x182 <__bad_interrupt>
      14:	0c 94 c1 00 	jmp	0x182	; 0x182 <__bad_interrupt>
      18:	0c 94 c1 00 	jmp	0x182	; 0x182 <__bad_interrupt>
      1c:	0c 94 c1 00 	jmp	0x182	; 0x182 <__bad_interrupt>
      20:	0c 94 c1 00 	jmp	0x182	; 0x182 <__bad_interrupt>
      24:	0c 94 c1 00 	jmp	0x182	; 0x182 <__bad_interrupt>
      28:	0c 94 c1 00 	jmp	0x182	; 0x182 <__bad_interrupt>
      2c:	0c 94 c1 00 	jmp	0x182	; 0x182 <__bad_interrupt>
      30:	0c 94 c1 00 	jmp	0x182	; 0x182 <__bad_interrupt>
      34:	0c 94 c1 00 	jmp	0x182	; 0x182 <__bad_interrupt>
      38:	0c 94 c1 00 	jmp	0x182	; 0x182 <__bad_interrupt>
      3c:	0c 94 c1 00 	jmp	0x182	; 0x182 <__bad_interrupt>
      40:	0c 94 c1 00 	jmp	0x182	; 0x182 <__bad_interrupt>
      44:	0c 94 c1 00 	jmp	0x182	; 0x182 <__bad_interrupt>
      48:	0c 94 22 36 	jmp	0x6c44	; 0x6c44 <__vector_18>
      4c:	0c 94 c1 00 	jmp	0x182	; 0x182 <__bad_interrupt>
      50:	0c 94 c1 00 	jmp	0x182	; 0x182 <__bad_interrupt>
      54:	0c 94 c1 00 	jmp	0x182	; 0x182 <__bad_interrupt>
      58:	0c 94 c1 00 	jmp	0x182	; 0x182 <__bad_interrupt>
      5c:	0c 94 c1 00 	jmp	0x182	; 0x182 <__bad_interrupt>
      60:	0c 94 c1 00 	jmp	0x182	; 0x182 <__bad_interrupt>
      64:	0c 94 c1 00 	jmp	0x182	; 0x182 <__bad_interrupt>
      68:	0c 94 c1 00 	jmp	0x182	; 0x182 <__bad_interrupt>
      6c:	0c 94 c1 00 	jmp	0x182	; 0x182 <__bad_interrupt>
      70:	0c 94 c1 00 	jmp	0x182	; 0x182 <__bad_interrupt>
      74:	0c 94 c1 00 	jmp	0x182	; 0x182 <__bad_interrupt>
      78:	0c 94 c1 00 	jmp	0x182	; 0x182 <__bad_interrupt>
      7c:	4c 29       	or	r20, r12
      7e:	3a 29       	or	r19, r10
      80:	92 29       	or	r25, r2
      82:	8a 29       	or	r24, r10
      84:	78 29       	or	r23, r8
      86:	66 29       	or	r22, r6
      88:	4c 2b       	or	r20, r28
      8a:	3a 2b       	or	r19, r26
      8c:	32 2b       	or	r19, r18
      8e:	20 2b       	or	r18, r16
      90:	18 2b       	or	r17, r24
      92:	0a 2b       	or	r16, r26
      94:	ff 2a       	or	r15, r31
      96:	ed 2a       	or	r14, r29
      98:	db 2a       	or	r13, r27
      9a:	c9 2a       	or	r12, r25
      9c:	b7 2a       	or	r11, r23
      9e:	a5 2a       	or	r10, r21
      a0:	94 2a       	or	r9, r20
      a2:	89 2a       	or	r8, r25
      a4:	72 2a       	or	r7, r18
      a6:	5a 2a       	or	r5, r26
      a8:	42 2a       	or	r4, r18
      aa:	2a 2a       	or	r2, r26
      ac:	12 2a       	or	r1, r18
      ae:	fa 29       	or	r31, r10
      b0:	e2 29       	or	r30, r2
      b2:	ca 29       	or	r28, r10
      b4:	b2 29       	or	r27, r2
      b6:	9a 29       	or	r25, r10
      b8:	b6 28       	or	r11, r6
      ba:	a3 28       	or	r10, r3
      bc:	92 28       	or	r9, r2
      be:	87 28       	or	r8, r7
      c0:	70 28       	or	r7, r0
      c2:	56 28       	or	r5, r6
      c4:	3c 28       	or	r3, r12
      c6:	22 28       	or	r2, r2
      c8:	11 29       	or	r17, r1
      ca:	f9 28       	or	r15, r9
      cc:	e0 28       	or	r14, r0
      ce:	cb 28       	or	r12, r11
      d0:	29 29       	or	r18, r9
      d2:	71 27       	eor	r23, r17
      d4:	fa 27       	eor	r31, r26
      d6:	f7 27       	eor	r31, r23
      d8:	f4 27       	eor	r31, r20
      da:	f1 27       	eor	r31, r17
      dc:	ee 27       	eor	r30, r30
      de:	98 27       	eor	r25, r24
      e0:	fd 27       	eor	r31, r29
      e2:	c7 2c       	mov	r12, r7
      e4:	d9 2c       	mov	r13, r9
      e6:	eb 2c       	mov	r14, r11
      e8:	f3 2c       	mov	r15, r3
      ea:	fb 2c       	mov	r15, r11
      ec:	0d 2d       	mov	r16, r13
      ee:	1f 2d       	mov	r17, r15
      f0:	54 2b       	or	r21, r20
      f2:	66 2b       	or	r22, r22
      f4:	6e 2b       	or	r22, r30
      f6:	80 2b       	or	r24, r16
      f8:	88 2b       	or	r24, r24
      fa:	96 2b       	or	r25, r22
      fc:	a1 2b       	or	r26, r17
      fe:	b3 2b       	or	r27, r19
     100:	c5 2b       	or	r28, r21
     102:	d7 2b       	or	r29, r23
     104:	e9 2b       	or	r30, r25
     106:	fb 2b       	or	r31, r27
     108:	0c 2c       	mov	r0, r12
     10a:	17 2c       	mov	r1, r7
     10c:	2e 2c       	mov	r2, r14
     10e:	46 2c       	mov	r4, r6
     110:	27 2d       	mov	r18, r7
     112:	3f 2d       	mov	r19, r15
     114:	57 2d       	mov	r21, r7
     116:	6f 2d       	mov	r22, r15
     118:	87 2d       	mov	r24, r7
     11a:	9f 2d       	mov	r25, r15
     11c:	b7 2d       	mov	r27, r7
     11e:	cf 2d       	mov	r28, r15
     120:	e4 2d       	mov	r30, r4
     122:	f7 2d       	mov	r31, r7
     124:	08 2e       	mov	r0, r24
     126:	13 2e       	mov	r1, r19
     128:	2a 2e       	mov	r2, r26
     12a:	42 2e       	mov	r4, r18
     12c:	5a 2e       	mov	r5, r26
     12e:	72 2e       	mov	r7, r18
     130:	5e 2c       	mov	r5, r14
     132:	76 2c       	mov	r7, r6
     134:	8e 2c       	mov	r8, r14
     136:	a3 2c       	mov	r10, r3
     138:	b4 2c       	mov	r11, r4
     13a:	1c 28       	or	r1, r12
     13c:	19 28       	or	r1, r9
     13e:	16 28       	or	r1, r6
     140:	13 28       	or	r1, r3
     142:	10 28       	or	r1, r0
     144:	00 28       	or	r0, r0
     146:	1f 28       	or	r1, r15

00000148 <__ctors_end>:
     148:	11 24       	eor	r1, r1
     14a:	1f be       	out	0x3f, r1	; 63
     14c:	cf ef       	ldi	r28, 0xFF	; 255
     14e:	d8 e0       	ldi	r29, 0x08	; 8
     150:	de bf       	out	0x3e, r29	; 62
     152:	cd bf       	out	0x3d, r28	; 61

00000154 <__do_copy_data>:
     154:	16 e0       	ldi	r17, 0x06	; 6
     156:	a0 e0       	ldi	r26, 0x00	; 0
     158:	b1 e0       	ldi	r27, 0x01	; 1
     15a:	e4 e3       	ldi	r30, 0x34	; 52
     15c:	fd e6       	ldi	r31, 0x6D	; 109
     15e:	02 c0       	rjmp	.+4      	; 0x164 <__do_copy_data+0x10>
     160:	05 90       	lpm	r0, Z+
     162:	0d 92       	st	X+, r0
     164:	aa 31       	cpi	r26, 0x1A	; 26
     166:	b1 07       	cpc	r27, r17
     168:	d9 f7       	brne	.-10     	; 0x160 <__do_copy_data+0xc>

0000016a <__do_clear_bss>:
     16a:	26 e0       	ldi	r18, 0x06	; 6
     16c:	aa e1       	ldi	r26, 0x1A	; 26
     16e:	b6 e0       	ldi	r27, 0x06	; 6
     170:	01 c0       	rjmp	.+2      	; 0x174 <.do_clear_bss_start>

00000172 <.do_clear_bss_loop>:
     172:	1d 92       	st	X+, r1

00000174 <.do_clear_bss_start>:
     174:	a4 38       	cpi	r26, 0x84	; 132
     176:	b2 07       	cpc	r27, r18
     178:	e1 f7       	brne	.-8      	; 0x172 <.do_clear_bss_loop>
     17a:	0e 94 ff 33 	call	0x67fe	; 0x67fe <main>
     17e:	0c 94 98 36 	jmp	0x6d30	; 0x6d30 <_exit>

00000182 <__bad_interrupt>:
     182:	0c 94 00 00 	jmp	0	; 0x0 <__vectors>

00000186 <ASCII_sign>:
     186:	01 97       	sbiw	r24, 0x01	; 1
     188:	8f 30       	cpi	r24, 0x0F	; 15
     18a:	91 05       	cpc	r25, r1
     18c:	28 f4       	brcc	.+10     	; 0x198 <ASCII_sign+0x12>
     18e:	fc 01       	movw	r30, r24
     190:	e7 53       	subi	r30, 0x37	; 55
     192:	fe 4f       	sbci	r31, 0xFE	; 254
     194:	80 81       	ld	r24, Z
     196:	08 95       	ret
     198:	80 e3       	ldi	r24, 0x30	; 48
     19a:	08 95       	ret

0000019c <Hex_to_ASCII>:
     19c:	af 92       	push	r10
     19e:	bf 92       	push	r11
     1a0:	cf 92       	push	r12
     1a2:	df 92       	push	r13
     1a4:	ef 92       	push	r14
     1a6:	ff 92       	push	r15
     1a8:	0f 93       	push	r16
     1aa:	1f 93       	push	r17
     1ac:	cf 93       	push	r28
     1ae:	df 93       	push	r29
     1b0:	cd b7       	in	r28, 0x3d	; 61
     1b2:	de b7       	in	r29, 0x3e	; 62
     1b4:	ec 97       	sbiw	r28, 0x3c	; 60
     1b6:	0f b6       	in	r0, 0x3f	; 63
     1b8:	f8 94       	cli
     1ba:	de bf       	out	0x3e, r29	; 62
     1bc:	0f be       	out	0x3f, r0	; 63
     1be:	cd bf       	out	0x3d, r28	; 61
     1c0:	8e 01       	movw	r16, r28
     1c2:	0f 5f       	subi	r16, 0xFF	; 255
     1c4:	1f 4f       	sbci	r17, 0xFF	; 255
     1c6:	2c e3       	ldi	r18, 0x3C	; 60
     1c8:	d8 01       	movw	r26, r16
     1ca:	1d 92       	st	X+, r1
     1cc:	2a 95       	dec	r18
     1ce:	e9 f7       	brne	.-6      	; 0x1ca <Hex_to_ASCII+0x2e>
     1d0:	14 16       	cp	r1, r20
     1d2:	15 06       	cpc	r1, r21
     1d4:	0c f0       	brlt	.+2      	; 0x1d8 <Hex_to_ASCII+0x3c>
     1d6:	8c c0       	rjmp	.+280    	; 0x2f0 <Hex_to_ASCII+0x154>
     1d8:	9c 01       	movw	r18, r24
     1da:	58 01       	movw	r10, r16
     1dc:	7c 01       	movw	r14, r24
     1de:	e4 0e       	add	r14, r20
     1e0:	f5 1e       	adc	r15, r21
     1e2:	f8 01       	movw	r30, r16
     1e4:	d9 01       	movw	r26, r18
     1e6:	8d 91       	ld	r24, X+
     1e8:	9d 01       	movw	r18, r26
     1ea:	87 ff       	sbrs	r24, 7
     1ec:	07 c0       	rjmp	.+14     	; 0x1fc <Hex_to_ASCII+0x60>
     1ee:	c0 80       	ld	r12, Z
     1f0:	d1 80       	ldd	r13, Z+1	; 0x01
     1f2:	b8 e0       	ldi	r27, 0x08	; 8
     1f4:	cb 0e       	add	r12, r27
     1f6:	d1 1c       	adc	r13, r1
     1f8:	d1 82       	std	Z+1, r13	; 0x01
     1fa:	c0 82       	st	Z, r12
     1fc:	86 ff       	sbrs	r24, 6
     1fe:	07 c0       	rjmp	.+14     	; 0x20e <Hex_to_ASCII+0x72>
     200:	c0 80       	ld	r12, Z
     202:	d1 80       	ldd	r13, Z+1	; 0x01
     204:	94 e0       	ldi	r25, 0x04	; 4
     206:	c9 0e       	add	r12, r25
     208:	d1 1c       	adc	r13, r1
     20a:	d1 82       	std	Z+1, r13	; 0x01
     20c:	c0 82       	st	Z, r12
     20e:	85 ff       	sbrs	r24, 5
     210:	07 c0       	rjmp	.+14     	; 0x220 <Hex_to_ASCII+0x84>
     212:	c0 80       	ld	r12, Z
     214:	d1 80       	ldd	r13, Z+1	; 0x01
     216:	a2 e0       	ldi	r26, 0x02	; 2
     218:	ca 0e       	add	r12, r26
     21a:	d1 1c       	adc	r13, r1
     21c:	d1 82       	std	Z+1, r13	; 0x01
     21e:	c0 82       	st	Z, r12
     220:	84 ff       	sbrs	r24, 4
     222:	07 c0       	rjmp	.+14     	; 0x232 <Hex_to_ASCII+0x96>
     224:	c0 80       	ld	r12, Z
     226:	d1 80       	ldd	r13, Z+1	; 0x01
     228:	bf ef       	ldi	r27, 0xFF	; 255
     22a:	cb 1a       	sub	r12, r27
     22c:	db 0a       	sbc	r13, r27
     22e:	d1 82       	std	Z+1, r13	; 0x01
     230:	c0 82       	st	Z, r12
     232:	83 ff       	sbrs	r24, 3
     234:	07 c0       	rjmp	.+14     	; 0x244 <Hex_to_ASCII+0xa8>
     236:	c2 80       	ldd	r12, Z+2	; 0x02
     238:	d3 80       	ldd	r13, Z+3	; 0x03
     23a:	98 e0       	ldi	r25, 0x08	; 8
     23c:	c9 0e       	add	r12, r25
     23e:	d1 1c       	adc	r13, r1
     240:	d3 82       	std	Z+3, r13	; 0x03
     242:	c2 82       	std	Z+2, r12	; 0x02
     244:	82 ff       	sbrs	r24, 2
     246:	07 c0       	rjmp	.+14     	; 0x256 <Hex_to_ASCII+0xba>
     248:	c2 80       	ldd	r12, Z+2	; 0x02
     24a:	d3 80       	ldd	r13, Z+3	; 0x03
     24c:	a4 e0       	ldi	r26, 0x04	; 4
     24e:	ca 0e       	add	r12, r26
     250:	d1 1c       	adc	r13, r1
     252:	d3 82       	std	Z+3, r13	; 0x03
     254:	c2 82       	std	Z+2, r12	; 0x02
     256:	81 ff       	sbrs	r24, 1
     258:	07 c0       	rjmp	.+14     	; 0x268 <Hex_to_ASCII+0xcc>
     25a:	c2 80       	ldd	r12, Z+2	; 0x02
     25c:	d3 80       	ldd	r13, Z+3	; 0x03
     25e:	b2 e0       	ldi	r27, 0x02	; 2
     260:	cb 0e       	add	r12, r27
     262:	d1 1c       	adc	r13, r1
     264:	d3 82       	std	Z+3, r13	; 0x03
     266:	c2 82       	std	Z+2, r12	; 0x02
     268:	80 ff       	sbrs	r24, 0
     26a:	05 c0       	rjmp	.+10     	; 0x276 <Hex_to_ASCII+0xda>
     26c:	82 81       	ldd	r24, Z+2	; 0x02
     26e:	93 81       	ldd	r25, Z+3	; 0x03
     270:	01 96       	adiw	r24, 0x01	; 1
     272:	93 83       	std	Z+3, r25	; 0x03
     274:	82 83       	std	Z+2, r24	; 0x02
     276:	34 96       	adiw	r30, 0x04	; 4
     278:	2e 15       	cp	r18, r14
     27a:	3f 05       	cpc	r19, r15
     27c:	09 f0       	breq	.+2      	; 0x280 <Hex_to_ASCII+0xe4>
     27e:	b2 cf       	rjmp	.-156    	; 0x1e4 <Hex_to_ASCII+0x48>
     280:	fb 01       	movw	r30, r22
     282:	31 96       	adiw	r30, 0x01	; 1
     284:	44 0f       	add	r20, r20
     286:	55 1f       	adc	r21, r21
     288:	44 0f       	add	r20, r20
     28a:	55 1f       	adc	r21, r21
     28c:	40 0f       	add	r20, r16
     28e:	51 1f       	adc	r21, r17
     290:	1d c0       	rjmp	.+58     	; 0x2cc <Hex_to_ASCII+0x130>
     292:	87 53       	subi	r24, 0x37	; 55
     294:	9e 4f       	sbci	r25, 0xFE	; 254
     296:	dc 01       	movw	r26, r24
     298:	2c 91       	ld	r18, X
     29a:	cf 01       	movw	r24, r30
     29c:	01 97       	sbiw	r24, 0x01	; 1
     29e:	dc 01       	movw	r26, r24
     2a0:	2c 93       	st	X, r18
     2a2:	d5 01       	movw	r26, r10
     2a4:	12 96       	adiw	r26, 0x02	; 2
     2a6:	8d 91       	ld	r24, X+
     2a8:	9c 91       	ld	r25, X
     2aa:	13 97       	sbiw	r26, 0x03	; 3
     2ac:	01 97       	sbiw	r24, 0x01	; 1
     2ae:	8f 30       	cpi	r24, 0x0F	; 15
     2b0:	91 05       	cpc	r25, r1
     2b2:	a8 f4       	brcc	.+42     	; 0x2de <Hex_to_ASCII+0x142>
     2b4:	87 53       	subi	r24, 0x37	; 55
     2b6:	9e 4f       	sbci	r25, 0xFE	; 254
     2b8:	dc 01       	movw	r26, r24
     2ba:	8c 91       	ld	r24, X
     2bc:	80 83       	st	Z, r24
     2be:	b4 e0       	ldi	r27, 0x04	; 4
     2c0:	ab 0e       	add	r10, r27
     2c2:	b1 1c       	adc	r11, r1
     2c4:	32 96       	adiw	r30, 0x02	; 2
     2c6:	a4 16       	cp	r10, r20
     2c8:	b5 06       	cpc	r11, r21
     2ca:	91 f0       	breq	.+36     	; 0x2f0 <Hex_to_ASCII+0x154>
     2cc:	d5 01       	movw	r26, r10
     2ce:	8d 91       	ld	r24, X+
     2d0:	9c 91       	ld	r25, X
     2d2:	01 97       	sbiw	r24, 0x01	; 1
     2d4:	8f 30       	cpi	r24, 0x0F	; 15
     2d6:	91 05       	cpc	r25, r1
     2d8:	e0 f2       	brcs	.-72     	; 0x292 <Hex_to_ASCII+0xf6>
     2da:	20 e3       	ldi	r18, 0x30	; 48
     2dc:	de cf       	rjmp	.-68     	; 0x29a <Hex_to_ASCII+0xfe>
     2de:	80 e3       	ldi	r24, 0x30	; 48
     2e0:	80 83       	st	Z, r24
     2e2:	b4 e0       	ldi	r27, 0x04	; 4
     2e4:	ab 0e       	add	r10, r27
     2e6:	b1 1c       	adc	r11, r1
     2e8:	32 96       	adiw	r30, 0x02	; 2
     2ea:	a4 16       	cp	r10, r20
     2ec:	b5 06       	cpc	r11, r21
     2ee:	71 f7       	brne	.-36     	; 0x2cc <Hex_to_ASCII+0x130>
     2f0:	ec 96       	adiw	r28, 0x3c	; 60
     2f2:	0f b6       	in	r0, 0x3f	; 63
     2f4:	f8 94       	cli
     2f6:	de bf       	out	0x3e, r29	; 62
     2f8:	0f be       	out	0x3f, r0	; 63
     2fa:	cd bf       	out	0x3d, r28	; 61
     2fc:	df 91       	pop	r29
     2fe:	cf 91       	pop	r28
     300:	1f 91       	pop	r17
     302:	0f 91       	pop	r16
     304:	ff 90       	pop	r15
     306:	ef 90       	pop	r14
     308:	df 90       	pop	r13
     30a:	cf 90       	pop	r12
     30c:	bf 90       	pop	r11
     30e:	af 90       	pop	r10
     310:	08 95       	ret

00000312 <Count_Array>:
     312:	fc 01       	movw	r30, r24
     314:	20 81       	ld	r18, Z
     316:	22 23       	and	r18, r18
     318:	41 f0       	breq	.+16     	; 0x32a <Count_Array+0x18>
     31a:	31 96       	adiw	r30, 0x01	; 1
     31c:	80 e0       	ldi	r24, 0x00	; 0
     31e:	90 e0       	ldi	r25, 0x00	; 0
     320:	01 96       	adiw	r24, 0x01	; 1
     322:	21 91       	ld	r18, Z+
     324:	21 11       	cpse	r18, r1
     326:	fc cf       	rjmp	.-8      	; 0x320 <Count_Array+0xe>
     328:	08 95       	ret
     32a:	80 e0       	ldi	r24, 0x00	; 0
     32c:	90 e0       	ldi	r25, 0x00	; 0
     32e:	08 95       	ret

00000330 <End_Line>:
     330:	80 91 c0 00 	lds	r24, 0x00C0	; 0x8000c0 <__TEXT_REGION_LENGTH__+0x7e00c0>
     334:	85 ff       	sbrs	r24, 5
     336:	fc cf       	rjmp	.-8      	; 0x330 <End_Line>
     338:	8d e0       	ldi	r24, 0x0D	; 13
     33a:	80 93 c6 00 	sts	0x00C6, r24	; 0x8000c6 <__TEXT_REGION_LENGTH__+0x7e00c6>
     33e:	80 91 c0 00 	lds	r24, 0x00C0	; 0x8000c0 <__TEXT_REGION_LENGTH__+0x7e00c0>
     342:	85 ff       	sbrs	r24, 5
     344:	fc cf       	rjmp	.-8      	; 0x33e <End_Line+0xe>
     346:	8a e0       	ldi	r24, 0x0A	; 10
     348:	80 93 c6 00 	sts	0x00C6, r24	; 0x8000c6 <__TEXT_REGION_LENGTH__+0x7e00c6>
     34c:	80 91 c0 00 	lds	r24, 0x00C0	; 0x8000c0 <__TEXT_REGION_LENGTH__+0x7e00c0>
     350:	85 ff       	sbrs	r24, 5
     352:	fc cf       	rjmp	.-8      	; 0x34c <End_Line+0x1c>
     354:	08 95       	ret

00000356 <WaitIfOK>:
     356:	ff 92       	push	r15
     358:	0f 93       	push	r16
     35a:	1f 93       	push	r17
     35c:	cf 93       	push	r28
     35e:	df 93       	push	r29
     360:	cd b7       	in	r28, 0x3d	; 61
     362:	de b7       	in	r29, 0x3e	; 62
     364:	29 97       	sbiw	r28, 0x09	; 9
     366:	0f b6       	in	r0, 0x3f	; 63
     368:	f8 94       	cli
     36a:	de bf       	out	0x3e, r29	; 62
     36c:	0f be       	out	0x3f, r0	; 63
     36e:	cd bf       	out	0x3d, r28	; 61
     370:	85 e0       	ldi	r24, 0x05	; 5
     372:	e3 e9       	ldi	r30, 0x93	; 147
     374:	f1 e0       	ldi	r31, 0x01	; 1
     376:	de 01       	movw	r26, r28
     378:	11 96       	adiw	r26, 0x01	; 1
     37a:	01 90       	ld	r0, Z+
     37c:	0d 92       	st	X+, r0
     37e:	8a 95       	dec	r24
     380:	e1 f7       	brne	.-8      	; 0x37a <WaitIfOK+0x24>
     382:	1e 82       	std	Y+6, r1	; 0x06
     384:	1f 82       	std	Y+7, r1	; 0x07
     386:	18 86       	std	Y+8, r1	; 0x08
     388:	19 86       	std	Y+9, r1	; 0x09
     38a:	00 e0       	ldi	r16, 0x00	; 0
     38c:	10 e0       	ldi	r17, 0x00	; 0
     38e:	f1 2c       	mov	r15, r1
     390:	44 e0       	ldi	r20, 0x04	; 4
     392:	50 e0       	ldi	r21, 0x00	; 0
     394:	be 01       	movw	r22, r28
     396:	6f 5f       	subi	r22, 0xFF	; 255
     398:	7f 4f       	sbci	r23, 0xFF	; 255
     39a:	ce 01       	movw	r24, r28
     39c:	06 96       	adiw	r24, 0x06	; 6
     39e:	0e 94 55 36 	call	0x6caa	; 0x6caa <strncmp>
     3a2:	89 2b       	or	r24, r25
     3a4:	71 f0       	breq	.+28     	; 0x3c2 <WaitIfOK+0x6c>
     3a6:	80 91 c0 00 	lds	r24, 0x00C0	; 0x8000c0 <__TEXT_REGION_LENGTH__+0x7e00c0>
     3aa:	87 ff       	sbrs	r24, 7
     3ac:	fc cf       	rjmp	.-8      	; 0x3a6 <WaitIfOK+0x50>
     3ae:	fe 82       	std	Y+6, r15	; 0x06
     3b0:	1f 83       	std	Y+7, r17	; 0x07
     3b2:	08 87       	std	Y+8, r16	; 0x08
     3b4:	80 91 c6 00 	lds	r24, 0x00C6	; 0x8000c6 <__TEXT_REGION_LENGTH__+0x7e00c6>
     3b8:	89 87       	std	Y+9, r24	; 0x09
     3ba:	f1 2e       	mov	r15, r17
     3bc:	10 2f       	mov	r17, r16
     3be:	08 2f       	mov	r16, r24
     3c0:	e7 cf       	rjmp	.-50     	; 0x390 <WaitIfOK+0x3a>
     3c2:	29 96       	adiw	r28, 0x09	; 9
     3c4:	0f b6       	in	r0, 0x3f	; 63
     3c6:	f8 94       	cli
     3c8:	de bf       	out	0x3e, r29	; 62
     3ca:	0f be       	out	0x3f, r0	; 63
     3cc:	cd bf       	out	0x3d, r28	; 61
     3ce:	df 91       	pop	r29
     3d0:	cf 91       	pop	r28
     3d2:	1f 91       	pop	r17
     3d4:	0f 91       	pop	r16
     3d6:	ff 90       	pop	r15
     3d8:	08 95       	ret

000003da <WaitForStart>:
     3da:	0f 93       	push	r16
     3dc:	1f 93       	push	r17
     3de:	cf 93       	push	r28
     3e0:	df 93       	push	r29
     3e2:	cd b7       	in	r28, 0x3d	; 61
     3e4:	de b7       	in	r29, 0x3e	; 62
     3e6:	27 97       	sbiw	r28, 0x07	; 7
     3e8:	0f b6       	in	r0, 0x3f	; 63
     3ea:	f8 94       	cli
     3ec:	de bf       	out	0x3e, r29	; 62
     3ee:	0f be       	out	0x3f, r0	; 63
     3f0:	cd bf       	out	0x3d, r28	; 61
     3f2:	8a e3       	ldi	r24, 0x3A	; 58
     3f4:	9f e6       	ldi	r25, 0x6F	; 111
     3f6:	ab e6       	ldi	r26, 0x6B	; 107
     3f8:	b0 e0       	ldi	r27, 0x00	; 0
     3fa:	89 83       	std	Y+1, r24	; 0x01
     3fc:	9a 83       	std	Y+2, r25	; 0x02
     3fe:	ab 83       	std	Y+3, r26	; 0x03
     400:	bc 83       	std	Y+4, r27	; 0x04
     402:	1d 82       	std	Y+5, r1	; 0x05
     404:	1e 82       	std	Y+6, r1	; 0x06
     406:	1f 82       	std	Y+7, r1	; 0x07
     408:	10 e0       	ldi	r17, 0x00	; 0
     40a:	00 e0       	ldi	r16, 0x00	; 0
     40c:	43 e0       	ldi	r20, 0x03	; 3
     40e:	50 e0       	ldi	r21, 0x00	; 0
     410:	be 01       	movw	r22, r28
     412:	6f 5f       	subi	r22, 0xFF	; 255
     414:	7f 4f       	sbci	r23, 0xFF	; 255
     416:	ce 01       	movw	r24, r28
     418:	05 96       	adiw	r24, 0x05	; 5
     41a:	0e 94 55 36 	call	0x6caa	; 0x6caa <strncmp>
     41e:	89 2b       	or	r24, r25
     420:	61 f0       	breq	.+24     	; 0x43a <__LOCK_REGION_LENGTH__+0x3a>
     422:	80 91 c0 00 	lds	r24, 0x00C0	; 0x8000c0 <__TEXT_REGION_LENGTH__+0x7e00c0>
     426:	87 ff       	sbrs	r24, 7
     428:	fc cf       	rjmp	.-8      	; 0x422 <__LOCK_REGION_LENGTH__+0x22>
     42a:	0d 83       	std	Y+5, r16	; 0x05
     42c:	1e 83       	std	Y+6, r17	; 0x06
     42e:	80 91 c6 00 	lds	r24, 0x00C6	; 0x8000c6 <__TEXT_REGION_LENGTH__+0x7e00c6>
     432:	8f 83       	std	Y+7, r24	; 0x07
     434:	01 2f       	mov	r16, r17
     436:	18 2f       	mov	r17, r24
     438:	e9 cf       	rjmp	.-46     	; 0x40c <__LOCK_REGION_LENGTH__+0xc>
     43a:	27 96       	adiw	r28, 0x07	; 7
     43c:	0f b6       	in	r0, 0x3f	; 63
     43e:	f8 94       	cli
     440:	de bf       	out	0x3e, r29	; 62
     442:	0f be       	out	0x3f, r0	; 63
     444:	cd bf       	out	0x3d, r28	; 61
     446:	df 91       	pop	r29
     448:	cf 91       	pop	r28
     44a:	1f 91       	pop	r17
     44c:	0f 91       	pop	r16
     44e:	08 95       	ret

00000450 <AT>:
     450:	ff 92       	push	r15
     452:	0f 93       	push	r16
     454:	1f 93       	push	r17
     456:	cf 93       	push	r28
     458:	df 93       	push	r29
     45a:	cd b7       	in	r28, 0x3d	; 61
     45c:	de b7       	in	r29, 0x3e	; 62
     45e:	29 97       	sbiw	r28, 0x09	; 9
     460:	0f b6       	in	r0, 0x3f	; 63
     462:	f8 94       	cli
     464:	de bf       	out	0x3e, r29	; 62
     466:	0f be       	out	0x3f, r0	; 63
     468:	cd bf       	out	0x3d, r28	; 61
     46a:	80 91 c0 00 	lds	r24, 0x00C0	; 0x8000c0 <__TEXT_REGION_LENGTH__+0x7e00c0>
     46e:	85 ff       	sbrs	r24, 5
     470:	fc cf       	rjmp	.-8      	; 0x46a <AT+0x1a>
     472:	81 e4       	ldi	r24, 0x41	; 65
     474:	80 93 c6 00 	sts	0x00C6, r24	; 0x8000c6 <__TEXT_REGION_LENGTH__+0x7e00c6>
     478:	80 91 c0 00 	lds	r24, 0x00C0	; 0x8000c0 <__TEXT_REGION_LENGTH__+0x7e00c0>
     47c:	85 ff       	sbrs	r24, 5
     47e:	fc cf       	rjmp	.-8      	; 0x478 <AT+0x28>
     480:	84 e5       	ldi	r24, 0x54	; 84
     482:	80 93 c6 00 	sts	0x00C6, r24	; 0x8000c6 <__TEXT_REGION_LENGTH__+0x7e00c6>
     486:	80 91 c0 00 	lds	r24, 0x00C0	; 0x8000c0 <__TEXT_REGION_LENGTH__+0x7e00c0>
     48a:	85 ff       	sbrs	r24, 5
     48c:	fc cf       	rjmp	.-8      	; 0x486 <AT+0x36>
     48e:	8d e0       	ldi	r24, 0x0D	; 13
     490:	80 93 c6 00 	sts	0x00C6, r24	; 0x8000c6 <__TEXT_REGION_LENGTH__+0x7e00c6>
     494:	80 91 c0 00 	lds	r24, 0x00C0	; 0x8000c0 <__TEXT_REGION_LENGTH__+0x7e00c0>
     498:	85 ff       	sbrs	r24, 5
     49a:	fc cf       	rjmp	.-8      	; 0x494 <AT+0x44>
     49c:	8a e0       	ldi	r24, 0x0A	; 10
     49e:	80 93 c6 00 	sts	0x00C6, r24	; 0x8000c6 <__TEXT_REGION_LENGTH__+0x7e00c6>
     4a2:	80 91 c0 00 	lds	r24, 0x00C0	; 0x8000c0 <__TEXT_REGION_LENGTH__+0x7e00c0>
     4a6:	85 ff       	sbrs	r24, 5
     4a8:	fc cf       	rjmp	.-8      	; 0x4a2 <AT+0x52>
     4aa:	85 e0       	ldi	r24, 0x05	; 5
     4ac:	e3 e9       	ldi	r30, 0x93	; 147
     4ae:	f1 e0       	ldi	r31, 0x01	; 1
     4b0:	de 01       	movw	r26, r28
     4b2:	11 96       	adiw	r26, 0x01	; 1
     4b4:	01 90       	ld	r0, Z+
     4b6:	0d 92       	st	X+, r0
     4b8:	8a 95       	dec	r24
     4ba:	e1 f7       	brne	.-8      	; 0x4b4 <AT+0x64>
     4bc:	1e 82       	std	Y+6, r1	; 0x06
     4be:	1f 82       	std	Y+7, r1	; 0x07
     4c0:	18 86       	std	Y+8, r1	; 0x08
     4c2:	19 86       	std	Y+9, r1	; 0x09
     4c4:	00 e0       	ldi	r16, 0x00	; 0
     4c6:	10 e0       	ldi	r17, 0x00	; 0
     4c8:	f1 2c       	mov	r15, r1
     4ca:	44 e0       	ldi	r20, 0x04	; 4
     4cc:	50 e0       	ldi	r21, 0x00	; 0
     4ce:	be 01       	movw	r22, r28
     4d0:	6f 5f       	subi	r22, 0xFF	; 255
     4d2:	7f 4f       	sbci	r23, 0xFF	; 255
     4d4:	ce 01       	movw	r24, r28
     4d6:	06 96       	adiw	r24, 0x06	; 6
     4d8:	0e 94 55 36 	call	0x6caa	; 0x6caa <strncmp>
     4dc:	89 2b       	or	r24, r25
     4de:	71 f0       	breq	.+28     	; 0x4fc <AT+0xac>
     4e0:	80 91 c0 00 	lds	r24, 0x00C0	; 0x8000c0 <__TEXT_REGION_LENGTH__+0x7e00c0>
     4e4:	87 ff       	sbrs	r24, 7
     4e6:	fc cf       	rjmp	.-8      	; 0x4e0 <AT+0x90>
     4e8:	fe 82       	std	Y+6, r15	; 0x06
     4ea:	1f 83       	std	Y+7, r17	; 0x07
     4ec:	08 87       	std	Y+8, r16	; 0x08
     4ee:	80 91 c6 00 	lds	r24, 0x00C6	; 0x8000c6 <__TEXT_REGION_LENGTH__+0x7e00c6>
     4f2:	89 87       	std	Y+9, r24	; 0x09
     4f4:	f1 2e       	mov	r15, r17
     4f6:	10 2f       	mov	r17, r16
     4f8:	08 2f       	mov	r16, r24
     4fa:	e7 cf       	rjmp	.-50     	; 0x4ca <AT+0x7a>
     4fc:	29 96       	adiw	r28, 0x09	; 9
     4fe:	0f b6       	in	r0, 0x3f	; 63
     500:	f8 94       	cli
     502:	de bf       	out	0x3e, r29	; 62
     504:	0f be       	out	0x3f, r0	; 63
     506:	cd bf       	out	0x3d, r28	; 61
     508:	df 91       	pop	r29
     50a:	cf 91       	pop	r28
     50c:	1f 91       	pop	r17
     50e:	0f 91       	pop	r16
     510:	ff 90       	pop	r15
     512:	08 95       	ret

00000514 <AT_RST>:
     514:	ff 92       	push	r15
     516:	0f 93       	push	r16
     518:	1f 93       	push	r17
     51a:	cf 93       	push	r28
     51c:	df 93       	push	r29
     51e:	cd b7       	in	r28, 0x3d	; 61
     520:	de b7       	in	r29, 0x3e	; 62
     522:	60 97       	sbiw	r28, 0x10	; 16
     524:	0f b6       	in	r0, 0x3f	; 63
     526:	f8 94       	cli
     528:	de bf       	out	0x3e, r29	; 62
     52a:	0f be       	out	0x3f, r0	; 63
     52c:	cd bf       	out	0x3d, r28	; 61
     52e:	87 e0       	ldi	r24, 0x07	; 7
     530:	e8 e9       	ldi	r30, 0x98	; 152
     532:	f1 e0       	ldi	r31, 0x01	; 1
     534:	de 01       	movw	r26, r28
     536:	11 96       	adiw	r26, 0x01	; 1
     538:	01 90       	ld	r0, Z+
     53a:	0d 92       	st	X+, r0
     53c:	8a 95       	dec	r24
     53e:	e1 f7       	brne	.-8      	; 0x538 <AT_RST+0x24>
     540:	fe 01       	movw	r30, r28
     542:	31 96       	adiw	r30, 0x01	; 1
     544:	9e 01       	movw	r18, r28
     546:	29 5f       	subi	r18, 0xF9	; 249
     548:	3f 4f       	sbci	r19, 0xFF	; 255
     54a:	80 91 c0 00 	lds	r24, 0x00C0	; 0x8000c0 <__TEXT_REGION_LENGTH__+0x7e00c0>
     54e:	85 ff       	sbrs	r24, 5
     550:	fc cf       	rjmp	.-8      	; 0x54a <AT_RST+0x36>
     552:	81 91       	ld	r24, Z+
     554:	80 93 c6 00 	sts	0x00C6, r24	; 0x8000c6 <__TEXT_REGION_LENGTH__+0x7e00c6>
     558:	e2 17       	cp	r30, r18
     55a:	f3 07       	cpc	r31, r19
     55c:	b1 f7       	brne	.-20     	; 0x54a <AT_RST+0x36>
     55e:	80 91 c0 00 	lds	r24, 0x00C0	; 0x8000c0 <__TEXT_REGION_LENGTH__+0x7e00c0>
     562:	85 ff       	sbrs	r24, 5
     564:	fc cf       	rjmp	.-8      	; 0x55e <AT_RST+0x4a>
     566:	8d e0       	ldi	r24, 0x0D	; 13
     568:	80 93 c6 00 	sts	0x00C6, r24	; 0x8000c6 <__TEXT_REGION_LENGTH__+0x7e00c6>
     56c:	80 91 c0 00 	lds	r24, 0x00C0	; 0x8000c0 <__TEXT_REGION_LENGTH__+0x7e00c0>
     570:	85 ff       	sbrs	r24, 5
     572:	fc cf       	rjmp	.-8      	; 0x56c <AT_RST+0x58>
     574:	8a e0       	ldi	r24, 0x0A	; 10
     576:	80 93 c6 00 	sts	0x00C6, r24	; 0x8000c6 <__TEXT_REGION_LENGTH__+0x7e00c6>
     57a:	80 91 c0 00 	lds	r24, 0x00C0	; 0x8000c0 <__TEXT_REGION_LENGTH__+0x7e00c0>
     57e:	85 ff       	sbrs	r24, 5
     580:	fc cf       	rjmp	.-8      	; 0x57a <AT_RST+0x66>
     582:	85 e0       	ldi	r24, 0x05	; 5
     584:	e3 e9       	ldi	r30, 0x93	; 147
     586:	f1 e0       	ldi	r31, 0x01	; 1
     588:	de 01       	movw	r26, r28
     58a:	18 96       	adiw	r26, 0x08	; 8
     58c:	01 90       	ld	r0, Z+
     58e:	0d 92       	st	X+, r0
     590:	8a 95       	dec	r24
     592:	e1 f7       	brne	.-8      	; 0x58c <AT_RST+0x78>
     594:	1d 86       	std	Y+13, r1	; 0x0d
     596:	1e 86       	std	Y+14, r1	; 0x0e
     598:	1f 86       	std	Y+15, r1	; 0x0f
     59a:	18 8a       	std	Y+16, r1	; 0x10
     59c:	00 e0       	ldi	r16, 0x00	; 0
     59e:	10 e0       	ldi	r17, 0x00	; 0
     5a0:	f1 2c       	mov	r15, r1
     5a2:	44 e0       	ldi	r20, 0x04	; 4
     5a4:	50 e0       	ldi	r21, 0x00	; 0
     5a6:	be 01       	movw	r22, r28
     5a8:	68 5f       	subi	r22, 0xF8	; 248
     5aa:	7f 4f       	sbci	r23, 0xFF	; 255
     5ac:	ce 01       	movw	r24, r28
     5ae:	0d 96       	adiw	r24, 0x0d	; 13
     5b0:	0e 94 55 36 	call	0x6caa	; 0x6caa <strncmp>
     5b4:	89 2b       	or	r24, r25
     5b6:	71 f0       	breq	.+28     	; 0x5d4 <AT_RST+0xc0>
     5b8:	80 91 c0 00 	lds	r24, 0x00C0	; 0x8000c0 <__TEXT_REGION_LENGTH__+0x7e00c0>
     5bc:	87 ff       	sbrs	r24, 7
     5be:	fc cf       	rjmp	.-8      	; 0x5b8 <AT_RST+0xa4>
     5c0:	fd 86       	std	Y+13, r15	; 0x0d
     5c2:	1e 87       	std	Y+14, r17	; 0x0e
     5c4:	0f 87       	std	Y+15, r16	; 0x0f
     5c6:	80 91 c6 00 	lds	r24, 0x00C6	; 0x8000c6 <__TEXT_REGION_LENGTH__+0x7e00c6>
     5ca:	88 8b       	std	Y+16, r24	; 0x10
     5cc:	f1 2e       	mov	r15, r17
     5ce:	10 2f       	mov	r17, r16
     5d0:	08 2f       	mov	r16, r24
     5d2:	e7 cf       	rjmp	.-50     	; 0x5a2 <AT_RST+0x8e>
     5d4:	60 96       	adiw	r28, 0x10	; 16
     5d6:	0f b6       	in	r0, 0x3f	; 63
     5d8:	f8 94       	cli
     5da:	de bf       	out	0x3e, r29	; 62
     5dc:	0f be       	out	0x3f, r0	; 63
     5de:	cd bf       	out	0x3d, r28	; 61
     5e0:	df 91       	pop	r29
     5e2:	cf 91       	pop	r28
     5e4:	1f 91       	pop	r17
     5e6:	0f 91       	pop	r16
     5e8:	ff 90       	pop	r15
     5ea:	08 95       	ret

000005ec <AT_CWJAP>:
     5ec:	df 92       	push	r13
     5ee:	ef 92       	push	r14
     5f0:	ff 92       	push	r15
     5f2:	0f 93       	push	r16
     5f4:	1f 93       	push	r17
     5f6:	cf 93       	push	r28
     5f8:	df 93       	push	r29
     5fa:	cd b7       	in	r28, 0x3d	; 61
     5fc:	de b7       	in	r29, 0x3e	; 62
     5fe:	62 97       	sbiw	r28, 0x12	; 18
     600:	0f b6       	in	r0, 0x3f	; 63
     602:	f8 94       	cli
     604:	de bf       	out	0x3e, r29	; 62
     606:	0f be       	out	0x3f, r0	; 63
     608:	cd bf       	out	0x3d, r28	; 61
     60a:	ac 01       	movw	r20, r24
     60c:	9b 01       	movw	r18, r22
     60e:	fc 01       	movw	r30, r24
     610:	80 81       	ld	r24, Z
     612:	88 23       	and	r24, r24
     614:	09 f4       	brne	.+2      	; 0x618 <AT_CWJAP+0x2c>
     616:	bc c0       	rjmp	.+376    	; 0x790 <AT_CWJAP+0x1a4>
     618:	31 96       	adiw	r30, 0x01	; 1
     61a:	e1 2c       	mov	r14, r1
     61c:	f1 2c       	mov	r15, r1
     61e:	8f ef       	ldi	r24, 0xFF	; 255
     620:	e8 1a       	sub	r14, r24
     622:	f8 0a       	sbc	r15, r24
     624:	81 91       	ld	r24, Z+
     626:	81 11       	cpse	r24, r1
     628:	fa cf       	rjmp	.-12     	; 0x61e <AT_CWJAP+0x32>
     62a:	f9 01       	movw	r30, r18
     62c:	80 81       	ld	r24, Z
     62e:	88 23       	and	r24, r24
     630:	09 f4       	brne	.+2      	; 0x634 <AT_CWJAP+0x48>
     632:	b4 c0       	rjmp	.+360    	; 0x79c <AT_CWJAP+0x1b0>
     634:	31 96       	adiw	r30, 0x01	; 1
     636:	60 e0       	ldi	r22, 0x00	; 0
     638:	70 e0       	ldi	r23, 0x00	; 0
     63a:	6f 5f       	subi	r22, 0xFF	; 255
     63c:	7f 4f       	sbci	r23, 0xFF	; 255
     63e:	81 91       	ld	r24, Z+
     640:	81 11       	cpse	r24, r1
     642:	fb cf       	rjmp	.-10     	; 0x63a <AT_CWJAP+0x4e>
     644:	89 e0       	ldi	r24, 0x09	; 9
     646:	e7 e6       	ldi	r30, 0x67	; 103
     648:	f1 e0       	ldi	r31, 0x01	; 1
     64a:	de 01       	movw	r26, r28
     64c:	11 96       	adiw	r26, 0x01	; 1
     64e:	01 90       	ld	r0, Z+
     650:	0d 92       	st	X+, r0
     652:	8a 95       	dec	r24
     654:	e1 f7       	brne	.-8      	; 0x64e <AT_CWJAP+0x62>
     656:	fe 01       	movw	r30, r28
     658:	31 96       	adiw	r30, 0x01	; 1
     65a:	8e 01       	movw	r16, r28
     65c:	06 5f       	subi	r16, 0xF6	; 246
     65e:	1f 4f       	sbci	r17, 0xFF	; 255
     660:	90 91 c0 00 	lds	r25, 0x00C0	; 0x8000c0 <__TEXT_REGION_LENGTH__+0x7e00c0>
     664:	95 ff       	sbrs	r25, 5
     666:	fc cf       	rjmp	.-8      	; 0x660 <AT_CWJAP+0x74>
     668:	81 91       	ld	r24, Z+
     66a:	80 93 c6 00 	sts	0x00C6, r24	; 0x8000c6 <__TEXT_REGION_LENGTH__+0x7e00c6>
     66e:	e0 17       	cp	r30, r16
     670:	f1 07       	cpc	r31, r17
     672:	b1 f7       	brne	.-20     	; 0x660 <AT_CWJAP+0x74>
     674:	80 91 c0 00 	lds	r24, 0x00C0	; 0x8000c0 <__TEXT_REGION_LENGTH__+0x7e00c0>
     678:	85 ff       	sbrs	r24, 5
     67a:	fc cf       	rjmp	.-8      	; 0x674 <AT_CWJAP+0x88>
     67c:	82 e2       	ldi	r24, 0x22	; 34
     67e:	80 93 c6 00 	sts	0x00C6, r24	; 0x8000c6 <__TEXT_REGION_LENGTH__+0x7e00c6>
     682:	e1 14       	cp	r14, r1
     684:	f1 04       	cpc	r15, r1
     686:	69 f0       	breq	.+26     	; 0x6a2 <AT_CWJAP+0xb6>
     688:	fa 01       	movw	r30, r20
     68a:	e4 0e       	add	r14, r20
     68c:	f5 1e       	adc	r15, r21
     68e:	90 91 c0 00 	lds	r25, 0x00C0	; 0x8000c0 <__TEXT_REGION_LENGTH__+0x7e00c0>
     692:	95 ff       	sbrs	r25, 5
     694:	fc cf       	rjmp	.-8      	; 0x68e <AT_CWJAP+0xa2>
     696:	81 91       	ld	r24, Z+
     698:	80 93 c6 00 	sts	0x00C6, r24	; 0x8000c6 <__TEXT_REGION_LENGTH__+0x7e00c6>
     69c:	ee 15       	cp	r30, r14
     69e:	ff 05       	cpc	r31, r15
     6a0:	b1 f7       	brne	.-20     	; 0x68e <AT_CWJAP+0xa2>
     6a2:	80 91 c0 00 	lds	r24, 0x00C0	; 0x8000c0 <__TEXT_REGION_LENGTH__+0x7e00c0>
     6a6:	85 ff       	sbrs	r24, 5
     6a8:	fc cf       	rjmp	.-8      	; 0x6a2 <AT_CWJAP+0xb6>
     6aa:	82 e2       	ldi	r24, 0x22	; 34
     6ac:	80 93 c6 00 	sts	0x00C6, r24	; 0x8000c6 <__TEXT_REGION_LENGTH__+0x7e00c6>
     6b0:	80 91 c0 00 	lds	r24, 0x00C0	; 0x8000c0 <__TEXT_REGION_LENGTH__+0x7e00c0>
     6b4:	85 ff       	sbrs	r24, 5
     6b6:	fc cf       	rjmp	.-8      	; 0x6b0 <AT_CWJAP+0xc4>
     6b8:	8c e2       	ldi	r24, 0x2C	; 44
     6ba:	80 93 c6 00 	sts	0x00C6, r24	; 0x8000c6 <__TEXT_REGION_LENGTH__+0x7e00c6>
     6be:	80 91 c0 00 	lds	r24, 0x00C0	; 0x8000c0 <__TEXT_REGION_LENGTH__+0x7e00c0>
     6c2:	85 ff       	sbrs	r24, 5
     6c4:	fc cf       	rjmp	.-8      	; 0x6be <AT_CWJAP+0xd2>
     6c6:	82 e2       	ldi	r24, 0x22	; 34
     6c8:	80 93 c6 00 	sts	0x00C6, r24	; 0x8000c6 <__TEXT_REGION_LENGTH__+0x7e00c6>
     6cc:	61 15       	cp	r22, r1
     6ce:	71 05       	cpc	r23, r1
     6d0:	69 f0       	breq	.+26     	; 0x6ec <AT_CWJAP+0x100>
     6d2:	f9 01       	movw	r30, r18
     6d4:	62 0f       	add	r22, r18
     6d6:	73 1f       	adc	r23, r19
     6d8:	80 91 c0 00 	lds	r24, 0x00C0	; 0x8000c0 <__TEXT_REGION_LENGTH__+0x7e00c0>
     6dc:	85 ff       	sbrs	r24, 5
     6de:	fc cf       	rjmp	.-8      	; 0x6d8 <AT_CWJAP+0xec>
     6e0:	81 91       	ld	r24, Z+
     6e2:	80 93 c6 00 	sts	0x00C6, r24	; 0x8000c6 <__TEXT_REGION_LENGTH__+0x7e00c6>
     6e6:	e6 17       	cp	r30, r22
     6e8:	f7 07       	cpc	r31, r23
     6ea:	b1 f7       	brne	.-20     	; 0x6d8 <AT_CWJAP+0xec>
     6ec:	80 91 c0 00 	lds	r24, 0x00C0	; 0x8000c0 <__TEXT_REGION_LENGTH__+0x7e00c0>
     6f0:	85 ff       	sbrs	r24, 5
     6f2:	fc cf       	rjmp	.-8      	; 0x6ec <AT_CWJAP+0x100>
     6f4:	82 e2       	ldi	r24, 0x22	; 34
     6f6:	80 93 c6 00 	sts	0x00C6, r24	; 0x8000c6 <__TEXT_REGION_LENGTH__+0x7e00c6>
     6fa:	80 91 c0 00 	lds	r24, 0x00C0	; 0x8000c0 <__TEXT_REGION_LENGTH__+0x7e00c0>
     6fe:	85 ff       	sbrs	r24, 5
     700:	fc cf       	rjmp	.-8      	; 0x6fa <AT_CWJAP+0x10e>
     702:	80 91 c0 00 	lds	r24, 0x00C0	; 0x8000c0 <__TEXT_REGION_LENGTH__+0x7e00c0>
     706:	85 ff       	sbrs	r24, 5
     708:	fc cf       	rjmp	.-8      	; 0x702 <AT_CWJAP+0x116>
     70a:	8d e0       	ldi	r24, 0x0D	; 13
     70c:	80 93 c6 00 	sts	0x00C6, r24	; 0x8000c6 <__TEXT_REGION_LENGTH__+0x7e00c6>
     710:	80 91 c0 00 	lds	r24, 0x00C0	; 0x8000c0 <__TEXT_REGION_LENGTH__+0x7e00c0>
     714:	85 ff       	sbrs	r24, 5
     716:	fc cf       	rjmp	.-8      	; 0x710 <AT_CWJAP+0x124>
     718:	8a e0       	ldi	r24, 0x0A	; 10
     71a:	80 93 c6 00 	sts	0x00C6, r24	; 0x8000c6 <__TEXT_REGION_LENGTH__+0x7e00c6>
     71e:	80 91 c0 00 	lds	r24, 0x00C0	; 0x8000c0 <__TEXT_REGION_LENGTH__+0x7e00c0>
     722:	85 ff       	sbrs	r24, 5
     724:	fc cf       	rjmp	.-8      	; 0x71e <AT_CWJAP+0x132>
     726:	85 e0       	ldi	r24, 0x05	; 5
     728:	e3 e9       	ldi	r30, 0x93	; 147
     72a:	f1 e0       	ldi	r31, 0x01	; 1
     72c:	de 01       	movw	r26, r28
     72e:	1a 96       	adiw	r26, 0x0a	; 10
     730:	01 90       	ld	r0, Z+
     732:	0d 92       	st	X+, r0
     734:	8a 95       	dec	r24
     736:	e1 f7       	brne	.-8      	; 0x730 <AT_CWJAP+0x144>
     738:	1f 86       	std	Y+15, r1	; 0x0f
     73a:	18 8a       	std	Y+16, r1	; 0x10
     73c:	19 8a       	std	Y+17, r1	; 0x11
     73e:	1a 8a       	std	Y+18, r1	; 0x12
     740:	e1 2c       	mov	r14, r1
     742:	f1 2c       	mov	r15, r1
     744:	d1 2c       	mov	r13, r1
     746:	44 e0       	ldi	r20, 0x04	; 4
     748:	50 e0       	ldi	r21, 0x00	; 0
     74a:	b8 01       	movw	r22, r16
     74c:	ce 01       	movw	r24, r28
     74e:	0f 96       	adiw	r24, 0x0f	; 15
     750:	0e 94 55 36 	call	0x6caa	; 0x6caa <strncmp>
     754:	89 2b       	or	r24, r25
     756:	71 f0       	breq	.+28     	; 0x774 <AT_CWJAP+0x188>
     758:	80 91 c0 00 	lds	r24, 0x00C0	; 0x8000c0 <__TEXT_REGION_LENGTH__+0x7e00c0>
     75c:	87 ff       	sbrs	r24, 7
     75e:	fc cf       	rjmp	.-8      	; 0x758 <AT_CWJAP+0x16c>
     760:	df 86       	std	Y+15, r13	; 0x0f
     762:	f8 8a       	std	Y+16, r15	; 0x10
     764:	e9 8a       	std	Y+17, r14	; 0x11
     766:	80 91 c6 00 	lds	r24, 0x00C6	; 0x8000c6 <__TEXT_REGION_LENGTH__+0x7e00c6>
     76a:	8a 8b       	std	Y+18, r24	; 0x12
     76c:	df 2c       	mov	r13, r15
     76e:	fe 2c       	mov	r15, r14
     770:	e8 2e       	mov	r14, r24
     772:	e9 cf       	rjmp	.-46     	; 0x746 <AT_CWJAP+0x15a>
     774:	62 96       	adiw	r28, 0x12	; 18
     776:	0f b6       	in	r0, 0x3f	; 63
     778:	f8 94       	cli
     77a:	de bf       	out	0x3e, r29	; 62
     77c:	0f be       	out	0x3f, r0	; 63
     77e:	cd bf       	out	0x3d, r28	; 61
     780:	df 91       	pop	r29
     782:	cf 91       	pop	r28
     784:	1f 91       	pop	r17
     786:	0f 91       	pop	r16
     788:	ff 90       	pop	r15
     78a:	ef 90       	pop	r14
     78c:	df 90       	pop	r13
     78e:	08 95       	ret
     790:	e1 2c       	mov	r14, r1
     792:	f1 2c       	mov	r15, r1
     794:	f9 01       	movw	r30, r18
     796:	80 81       	ld	r24, Z
     798:	81 11       	cpse	r24, r1
     79a:	4c cf       	rjmp	.-360    	; 0x634 <AT_CWJAP+0x48>
     79c:	60 e0       	ldi	r22, 0x00	; 0
     79e:	70 e0       	ldi	r23, 0x00	; 0
     7a0:	51 cf       	rjmp	.-350    	; 0x644 <AT_CWJAP+0x58>

000007a2 <AT_CWMODE>:
     7a2:	ff 92       	push	r15
     7a4:	0f 93       	push	r16
     7a6:	1f 93       	push	r17
     7a8:	cf 93       	push	r28
     7aa:	df 93       	push	r29
     7ac:	cd b7       	in	r28, 0x3d	; 61
     7ae:	de b7       	in	r29, 0x3e	; 62
     7b0:	64 97       	sbiw	r28, 0x14	; 20
     7b2:	0f b6       	in	r0, 0x3f	; 63
     7b4:	f8 94       	cli
     7b6:	de bf       	out	0x3e, r29	; 62
     7b8:	0f be       	out	0x3f, r0	; 63
     7ba:	cd bf       	out	0x3d, r28	; 61
     7bc:	ac 01       	movw	r20, r24
     7be:	8b e0       	ldi	r24, 0x0B	; 11
     7c0:	ef e9       	ldi	r30, 0x9F	; 159
     7c2:	f1 e0       	ldi	r31, 0x01	; 1
     7c4:	de 01       	movw	r26, r28
     7c6:	11 96       	adiw	r26, 0x01	; 1
     7c8:	01 90       	ld	r0, Z+
     7ca:	0d 92       	st	X+, r0
     7cc:	8a 95       	dec	r24
     7ce:	e1 f7       	brne	.-8      	; 0x7c8 <AT_CWMODE+0x26>
     7d0:	fe 01       	movw	r30, r28
     7d2:	31 96       	adiw	r30, 0x01	; 1
     7d4:	9e 01       	movw	r18, r28
     7d6:	25 5f       	subi	r18, 0xF5	; 245
     7d8:	3f 4f       	sbci	r19, 0xFF	; 255
     7da:	90 91 c0 00 	lds	r25, 0x00C0	; 0x8000c0 <__TEXT_REGION_LENGTH__+0x7e00c0>
     7de:	95 ff       	sbrs	r25, 5
     7e0:	fc cf       	rjmp	.-8      	; 0x7da <AT_CWMODE+0x38>
     7e2:	91 91       	ld	r25, Z+
     7e4:	90 93 c6 00 	sts	0x00C6, r25	; 0x8000c6 <__TEXT_REGION_LENGTH__+0x7e00c6>
     7e8:	e2 17       	cp	r30, r18
     7ea:	f3 07       	cpc	r31, r19
     7ec:	b1 f7       	brne	.-20     	; 0x7da <AT_CWMODE+0x38>
     7ee:	90 91 c0 00 	lds	r25, 0x00C0	; 0x8000c0 <__TEXT_REGION_LENGTH__+0x7e00c0>
     7f2:	95 ff       	sbrs	r25, 5
     7f4:	fc cf       	rjmp	.-8      	; 0x7ee <AT_CWMODE+0x4c>
     7f6:	42 30       	cpi	r20, 0x02	; 2
     7f8:	51 05       	cpc	r21, r1
     7fa:	09 f4       	brne	.+2      	; 0x7fe <AT_CWMODE+0x5c>
     7fc:	5f c0       	rjmp	.+190    	; 0x8bc <AT_CWMODE+0x11a>
     7fe:	43 30       	cpi	r20, 0x03	; 3
     800:	51 05       	cpc	r21, r1
     802:	09 f4       	brne	.+2      	; 0x806 <AT_CWMODE+0x64>
     804:	53 c0       	rjmp	.+166    	; 0x8ac <AT_CWMODE+0x10a>
     806:	41 30       	cpi	r20, 0x01	; 1
     808:	51 05       	cpc	r21, r1
     80a:	09 f4       	brne	.+2      	; 0x80e <AT_CWMODE+0x6c>
     80c:	47 c0       	rjmp	.+142    	; 0x89c <AT_CWMODE+0xfa>
     80e:	80 91 c0 00 	lds	r24, 0x00C0	; 0x8000c0 <__TEXT_REGION_LENGTH__+0x7e00c0>
     812:	85 ff       	sbrs	r24, 5
     814:	fc cf       	rjmp	.-8      	; 0x80e <AT_CWMODE+0x6c>
     816:	8d e0       	ldi	r24, 0x0D	; 13
     818:	80 93 c6 00 	sts	0x00C6, r24	; 0x8000c6 <__TEXT_REGION_LENGTH__+0x7e00c6>
     81c:	80 91 c0 00 	lds	r24, 0x00C0	; 0x8000c0 <__TEXT_REGION_LENGTH__+0x7e00c0>
     820:	85 ff       	sbrs	r24, 5
     822:	fc cf       	rjmp	.-8      	; 0x81c <AT_CWMODE+0x7a>
     824:	8a e0       	ldi	r24, 0x0A	; 10
     826:	80 93 c6 00 	sts	0x00C6, r24	; 0x8000c6 <__TEXT_REGION_LENGTH__+0x7e00c6>
     82a:	80 91 c0 00 	lds	r24, 0x00C0	; 0x8000c0 <__TEXT_REGION_LENGTH__+0x7e00c0>
     82e:	85 ff       	sbrs	r24, 5
     830:	fc cf       	rjmp	.-8      	; 0x82a <AT_CWMODE+0x88>
     832:	85 e0       	ldi	r24, 0x05	; 5
     834:	e3 e9       	ldi	r30, 0x93	; 147
     836:	f1 e0       	ldi	r31, 0x01	; 1
     838:	de 01       	movw	r26, r28
     83a:	1c 96       	adiw	r26, 0x0c	; 12
     83c:	01 90       	ld	r0, Z+
     83e:	0d 92       	st	X+, r0
     840:	8a 95       	dec	r24
     842:	e1 f7       	brne	.-8      	; 0x83c <AT_CWMODE+0x9a>
     844:	19 8a       	std	Y+17, r1	; 0x11
     846:	1a 8a       	std	Y+18, r1	; 0x12
     848:	1b 8a       	std	Y+19, r1	; 0x13
     84a:	1c 8a       	std	Y+20, r1	; 0x14
     84c:	00 e0       	ldi	r16, 0x00	; 0
     84e:	10 e0       	ldi	r17, 0x00	; 0
     850:	f1 2c       	mov	r15, r1
     852:	44 e0       	ldi	r20, 0x04	; 4
     854:	50 e0       	ldi	r21, 0x00	; 0
     856:	be 01       	movw	r22, r28
     858:	64 5f       	subi	r22, 0xF4	; 244
     85a:	7f 4f       	sbci	r23, 0xFF	; 255
     85c:	ce 01       	movw	r24, r28
     85e:	41 96       	adiw	r24, 0x11	; 17
     860:	0e 94 55 36 	call	0x6caa	; 0x6caa <strncmp>
     864:	89 2b       	or	r24, r25
     866:	71 f0       	breq	.+28     	; 0x884 <AT_CWMODE+0xe2>
     868:	80 91 c0 00 	lds	r24, 0x00C0	; 0x8000c0 <__TEXT_REGION_LENGTH__+0x7e00c0>
     86c:	87 ff       	sbrs	r24, 7
     86e:	fc cf       	rjmp	.-8      	; 0x868 <AT_CWMODE+0xc6>
     870:	f9 8a       	std	Y+17, r15	; 0x11
     872:	1a 8b       	std	Y+18, r17	; 0x12
     874:	0b 8b       	std	Y+19, r16	; 0x13
     876:	80 91 c6 00 	lds	r24, 0x00C6	; 0x8000c6 <__TEXT_REGION_LENGTH__+0x7e00c6>
     87a:	8c 8b       	std	Y+20, r24	; 0x14
     87c:	f1 2e       	mov	r15, r17
     87e:	10 2f       	mov	r17, r16
     880:	08 2f       	mov	r16, r24
     882:	e7 cf       	rjmp	.-50     	; 0x852 <AT_CWMODE+0xb0>
     884:	64 96       	adiw	r28, 0x14	; 20
     886:	0f b6       	in	r0, 0x3f	; 63
     888:	f8 94       	cli
     88a:	de bf       	out	0x3e, r29	; 62
     88c:	0f be       	out	0x3f, r0	; 63
     88e:	cd bf       	out	0x3d, r28	; 61
     890:	df 91       	pop	r29
     892:	cf 91       	pop	r28
     894:	1f 91       	pop	r17
     896:	0f 91       	pop	r16
     898:	ff 90       	pop	r15
     89a:	08 95       	ret
     89c:	81 e3       	ldi	r24, 0x31	; 49
     89e:	80 93 c6 00 	sts	0x00C6, r24	; 0x8000c6 <__TEXT_REGION_LENGTH__+0x7e00c6>
     8a2:	80 91 c0 00 	lds	r24, 0x00C0	; 0x8000c0 <__TEXT_REGION_LENGTH__+0x7e00c0>
     8a6:	85 ff       	sbrs	r24, 5
     8a8:	b2 cf       	rjmp	.-156    	; 0x80e <AT_CWMODE+0x6c>
     8aa:	b5 cf       	rjmp	.-150    	; 0x816 <AT_CWMODE+0x74>
     8ac:	83 e3       	ldi	r24, 0x33	; 51
     8ae:	80 93 c6 00 	sts	0x00C6, r24	; 0x8000c6 <__TEXT_REGION_LENGTH__+0x7e00c6>
     8b2:	80 91 c0 00 	lds	r24, 0x00C0	; 0x8000c0 <__TEXT_REGION_LENGTH__+0x7e00c0>
     8b6:	85 ff       	sbrs	r24, 5
     8b8:	aa cf       	rjmp	.-172    	; 0x80e <AT_CWMODE+0x6c>
     8ba:	ad cf       	rjmp	.-166    	; 0x816 <AT_CWMODE+0x74>
     8bc:	82 e3       	ldi	r24, 0x32	; 50
     8be:	80 93 c6 00 	sts	0x00C6, r24	; 0x8000c6 <__TEXT_REGION_LENGTH__+0x7e00c6>
     8c2:	80 91 c0 00 	lds	r24, 0x00C0	; 0x8000c0 <__TEXT_REGION_LENGTH__+0x7e00c0>
     8c6:	85 ff       	sbrs	r24, 5
     8c8:	a2 cf       	rjmp	.-188    	; 0x80e <AT_CWMODE+0x6c>
     8ca:	a5 cf       	rjmp	.-182    	; 0x816 <AT_CWMODE+0x74>

000008cc <AT_CIPMUX>:
     8cc:	ff 92       	push	r15
     8ce:	0f 93       	push	r16
     8d0:	1f 93       	push	r17
     8d2:	cf 93       	push	r28
     8d4:	df 93       	push	r29
     8d6:	cd b7       	in	r28, 0x3d	; 61
     8d8:	de b7       	in	r29, 0x3e	; 62
     8da:	64 97       	sbiw	r28, 0x14	; 20
     8dc:	0f b6       	in	r0, 0x3f	; 63
     8de:	f8 94       	cli
     8e0:	de bf       	out	0x3e, r29	; 62
     8e2:	0f be       	out	0x3f, r0	; 63
     8e4:	cd bf       	out	0x3d, r28	; 61
     8e6:	ac 01       	movw	r20, r24
     8e8:	9b e0       	ldi	r25, 0x0B	; 11
     8ea:	ea ea       	ldi	r30, 0xAA	; 170
     8ec:	f1 e0       	ldi	r31, 0x01	; 1
     8ee:	de 01       	movw	r26, r28
     8f0:	11 96       	adiw	r26, 0x01	; 1
     8f2:	01 90       	ld	r0, Z+
     8f4:	0d 92       	st	X+, r0
     8f6:	9a 95       	dec	r25
     8f8:	e1 f7       	brne	.-8      	; 0x8f2 <AT_CIPMUX+0x26>
     8fa:	fe 01       	movw	r30, r28
     8fc:	31 96       	adiw	r30, 0x01	; 1
     8fe:	9e 01       	movw	r18, r28
     900:	25 5f       	subi	r18, 0xF5	; 245
     902:	3f 4f       	sbci	r19, 0xFF	; 255
     904:	90 91 c0 00 	lds	r25, 0x00C0	; 0x8000c0 <__TEXT_REGION_LENGTH__+0x7e00c0>
     908:	95 ff       	sbrs	r25, 5
     90a:	fc cf       	rjmp	.-8      	; 0x904 <__stack+0x5>
     90c:	91 91       	ld	r25, Z+
     90e:	90 93 c6 00 	sts	0x00C6, r25	; 0x8000c6 <__TEXT_REGION_LENGTH__+0x7e00c6>
     912:	e2 17       	cp	r30, r18
     914:	f3 07       	cpc	r31, r19
     916:	b1 f7       	brne	.-20     	; 0x904 <__stack+0x5>
     918:	90 91 c0 00 	lds	r25, 0x00C0	; 0x8000c0 <__TEXT_REGION_LENGTH__+0x7e00c0>
     91c:	95 ff       	sbrs	r25, 5
     91e:	fc cf       	rjmp	.-8      	; 0x918 <__stack+0x19>
     920:	41 15       	cp	r20, r1
     922:	51 05       	cpc	r21, r1
     924:	09 f4       	brne	.+2      	; 0x928 <__stack+0x29>
     926:	4d c0       	rjmp	.+154    	; 0x9c2 <__stack+0xc3>
     928:	41 30       	cpi	r20, 0x01	; 1
     92a:	51 05       	cpc	r21, r1
     92c:	19 f4       	brne	.+6      	; 0x934 <__stack+0x35>
     92e:	81 e3       	ldi	r24, 0x31	; 49
     930:	80 93 c6 00 	sts	0x00C6, r24	; 0x8000c6 <__TEXT_REGION_LENGTH__+0x7e00c6>
     934:	80 91 c0 00 	lds	r24, 0x00C0	; 0x8000c0 <__TEXT_REGION_LENGTH__+0x7e00c0>
     938:	85 ff       	sbrs	r24, 5
     93a:	fc cf       	rjmp	.-8      	; 0x934 <__stack+0x35>
     93c:	8d e0       	ldi	r24, 0x0D	; 13
     93e:	80 93 c6 00 	sts	0x00C6, r24	; 0x8000c6 <__TEXT_REGION_LENGTH__+0x7e00c6>
     942:	80 91 c0 00 	lds	r24, 0x00C0	; 0x8000c0 <__TEXT_REGION_LENGTH__+0x7e00c0>
     946:	85 ff       	sbrs	r24, 5
     948:	fc cf       	rjmp	.-8      	; 0x942 <__stack+0x43>
     94a:	8a e0       	ldi	r24, 0x0A	; 10
     94c:	80 93 c6 00 	sts	0x00C6, r24	; 0x8000c6 <__TEXT_REGION_LENGTH__+0x7e00c6>
     950:	80 91 c0 00 	lds	r24, 0x00C0	; 0x8000c0 <__TEXT_REGION_LENGTH__+0x7e00c0>
     954:	85 ff       	sbrs	r24, 5
     956:	fc cf       	rjmp	.-8      	; 0x950 <__stack+0x51>
     958:	85 e0       	ldi	r24, 0x05	; 5
     95a:	e3 e9       	ldi	r30, 0x93	; 147
     95c:	f1 e0       	ldi	r31, 0x01	; 1
     95e:	de 01       	movw	r26, r28
     960:	1c 96       	adiw	r26, 0x0c	; 12
     962:	01 90       	ld	r0, Z+
     964:	0d 92       	st	X+, r0
     966:	8a 95       	dec	r24
     968:	e1 f7       	brne	.-8      	; 0x962 <__stack+0x63>
     96a:	19 8a       	std	Y+17, r1	; 0x11
     96c:	1a 8a       	std	Y+18, r1	; 0x12
     96e:	1b 8a       	std	Y+19, r1	; 0x13
     970:	1c 8a       	std	Y+20, r1	; 0x14
     972:	00 e0       	ldi	r16, 0x00	; 0
     974:	10 e0       	ldi	r17, 0x00	; 0
     976:	f1 2c       	mov	r15, r1
     978:	44 e0       	ldi	r20, 0x04	; 4
     97a:	50 e0       	ldi	r21, 0x00	; 0
     97c:	be 01       	movw	r22, r28
     97e:	64 5f       	subi	r22, 0xF4	; 244
     980:	7f 4f       	sbci	r23, 0xFF	; 255
     982:	ce 01       	movw	r24, r28
     984:	41 96       	adiw	r24, 0x11	; 17
     986:	0e 94 55 36 	call	0x6caa	; 0x6caa <strncmp>
     98a:	89 2b       	or	r24, r25
     98c:	71 f0       	breq	.+28     	; 0x9aa <__stack+0xab>
     98e:	80 91 c0 00 	lds	r24, 0x00C0	; 0x8000c0 <__TEXT_REGION_LENGTH__+0x7e00c0>
     992:	87 ff       	sbrs	r24, 7
     994:	fc cf       	rjmp	.-8      	; 0x98e <__stack+0x8f>
     996:	f9 8a       	std	Y+17, r15	; 0x11
     998:	1a 8b       	std	Y+18, r17	; 0x12
     99a:	0b 8b       	std	Y+19, r16	; 0x13
     99c:	80 91 c6 00 	lds	r24, 0x00C6	; 0x8000c6 <__TEXT_REGION_LENGTH__+0x7e00c6>
     9a0:	8c 8b       	std	Y+20, r24	; 0x14
     9a2:	f1 2e       	mov	r15, r17
     9a4:	10 2f       	mov	r17, r16
     9a6:	08 2f       	mov	r16, r24
     9a8:	e7 cf       	rjmp	.-50     	; 0x978 <__stack+0x79>
     9aa:	64 96       	adiw	r28, 0x14	; 20
     9ac:	0f b6       	in	r0, 0x3f	; 63
     9ae:	f8 94       	cli
     9b0:	de bf       	out	0x3e, r29	; 62
     9b2:	0f be       	out	0x3f, r0	; 63
     9b4:	cd bf       	out	0x3d, r28	; 61
     9b6:	df 91       	pop	r29
     9b8:	cf 91       	pop	r28
     9ba:	1f 91       	pop	r17
     9bc:	0f 91       	pop	r16
     9be:	ff 90       	pop	r15
     9c0:	08 95       	ret
     9c2:	80 e3       	ldi	r24, 0x30	; 48
     9c4:	80 93 c6 00 	sts	0x00C6, r24	; 0x8000c6 <__TEXT_REGION_LENGTH__+0x7e00c6>
     9c8:	80 91 c0 00 	lds	r24, 0x00C0	; 0x8000c0 <__TEXT_REGION_LENGTH__+0x7e00c0>
     9cc:	85 ff       	sbrs	r24, 5
     9ce:	b2 cf       	rjmp	.-156    	; 0x934 <__stack+0x35>
     9d0:	b5 cf       	rjmp	.-150    	; 0x93c <__stack+0x3d>

000009d2 <AT_CIPSTART>:
     9d2:	af 92       	push	r10
     9d4:	bf 92       	push	r11
     9d6:	cf 92       	push	r12
     9d8:	df 92       	push	r13
     9da:	ef 92       	push	r14
     9dc:	ff 92       	push	r15
     9de:	0f 93       	push	r16
     9e0:	1f 93       	push	r17
     9e2:	cf 93       	push	r28
     9e4:	df 93       	push	r29
     9e6:	cd b7       	in	r28, 0x3d	; 61
     9e8:	de b7       	in	r29, 0x3e	; 62
     9ea:	2c 97       	sbiw	r28, 0x0c	; 12
     9ec:	0f b6       	in	r0, 0x3f	; 63
     9ee:	f8 94       	cli
     9f0:	de bf       	out	0x3e, r29	; 62
     9f2:	0f be       	out	0x3f, r0	; 63
     9f4:	cd bf       	out	0x3d, r28	; 61
     9f6:	7c 01       	movw	r14, r24
     9f8:	fb 01       	movw	r30, r22
     9fa:	80 81       	ld	r24, Z
     9fc:	88 23       	and	r24, r24
     9fe:	09 f4       	brne	.+2      	; 0xa02 <AT_CIPSTART+0x30>
     a00:	04 c1       	rjmp	.+520    	; 0xc0a <AT_CIPSTART+0x238>
     a02:	31 96       	adiw	r30, 0x01	; 1
     a04:	a1 2c       	mov	r10, r1
     a06:	b1 2c       	mov	r11, r1
     a08:	8f ef       	ldi	r24, 0xFF	; 255
     a0a:	a8 1a       	sub	r10, r24
     a0c:	b8 0a       	sbc	r11, r24
     a0e:	81 91       	ld	r24, Z+
     a10:	81 11       	cpse	r24, r1
     a12:	fa cf       	rjmp	.-12     	; 0xa08 <AT_CIPSTART+0x36>
     a14:	fa 01       	movw	r30, r20
     a16:	80 81       	ld	r24, Z
     a18:	88 23       	and	r24, r24
     a1a:	09 f4       	brne	.+2      	; 0xa1e <AT_CIPSTART+0x4c>
     a1c:	fc c0       	rjmp	.+504    	; 0xc16 <AT_CIPSTART+0x244>
     a1e:	31 96       	adiw	r30, 0x01	; 1
     a20:	c1 2c       	mov	r12, r1
     a22:	d1 2c       	mov	r13, r1
     a24:	8f ef       	ldi	r24, 0xFF	; 255
     a26:	c8 1a       	sub	r12, r24
     a28:	d8 0a       	sbc	r13, r24
     a2a:	81 91       	ld	r24, Z+
     a2c:	81 11       	cpse	r24, r1
     a2e:	fa cf       	rjmp	.-12     	; 0xa24 <AT_CIPSTART+0x52>
     a30:	f9 01       	movw	r30, r18
     a32:	80 81       	ld	r24, Z
     a34:	88 23       	and	r24, r24
     a36:	09 f4       	brne	.+2      	; 0xa3a <AT_CIPSTART+0x68>
     a38:	e5 c0       	rjmp	.+458    	; 0xc04 <AT_CIPSTART+0x232>
     a3a:	31 96       	adiw	r30, 0x01	; 1
     a3c:	00 e0       	ldi	r16, 0x00	; 0
     a3e:	10 e0       	ldi	r17, 0x00	; 0
     a40:	0f 5f       	subi	r16, 0xFF	; 255
     a42:	1f 4f       	sbci	r17, 0xFF	; 255
     a44:	81 91       	ld	r24, Z+
     a46:	81 11       	cpse	r24, r1
     a48:	fb cf       	rjmp	.-10     	; 0xa40 <AT_CIPSTART+0x6e>
     a4a:	8c e0       	ldi	r24, 0x0C	; 12
     a4c:	e1 e7       	ldi	r30, 0x71	; 113
     a4e:	f1 e0       	ldi	r31, 0x01	; 1
     a50:	de 01       	movw	r26, r28
     a52:	11 96       	adiw	r26, 0x01	; 1
     a54:	01 90       	ld	r0, Z+
     a56:	0d 92       	st	X+, r0
     a58:	8a 95       	dec	r24
     a5a:	e1 f7       	brne	.-8      	; 0xa54 <AT_CIPSTART+0x82>
     a5c:	fe 01       	movw	r30, r28
     a5e:	31 96       	adiw	r30, 0x01	; 1
     a60:	de 01       	movw	r26, r28
     a62:	1d 96       	adiw	r26, 0x0d	; 13
     a64:	90 91 c0 00 	lds	r25, 0x00C0	; 0x8000c0 <__TEXT_REGION_LENGTH__+0x7e00c0>
     a68:	95 ff       	sbrs	r25, 5
     a6a:	fc cf       	rjmp	.-8      	; 0xa64 <AT_CIPSTART+0x92>
     a6c:	81 91       	ld	r24, Z+
     a6e:	80 93 c6 00 	sts	0x00C6, r24	; 0x8000c6 <__TEXT_REGION_LENGTH__+0x7e00c6>
     a72:	ea 17       	cp	r30, r26
     a74:	fb 07       	cpc	r31, r27
     a76:	b1 f7       	brne	.-20     	; 0xa64 <AT_CIPSTART+0x92>
     a78:	80 91 c0 00 	lds	r24, 0x00C0	; 0x8000c0 <__TEXT_REGION_LENGTH__+0x7e00c0>
     a7c:	85 ff       	sbrs	r24, 5
     a7e:	fc cf       	rjmp	.-8      	; 0xa78 <AT_CIPSTART+0xa6>
     a80:	f2 e0       	ldi	r31, 0x02	; 2
     a82:	ef 16       	cp	r14, r31
     a84:	f1 04       	cpc	r15, r1
     a86:	09 f4       	brne	.+2      	; 0xa8a <AT_CIPSTART+0xb8>
     a88:	b5 c0       	rjmp	.+362    	; 0xbf4 <AT_CIPSTART+0x222>
     a8a:	0c f0       	brlt	.+2      	; 0xa8e <AT_CIPSTART+0xbc>
     a8c:	92 c0       	rjmp	.+292    	; 0xbb2 <AT_CIPSTART+0x1e0>
     a8e:	e1 14       	cp	r14, r1
     a90:	f1 04       	cpc	r15, r1
     a92:	09 f4       	brne	.+2      	; 0xa96 <AT_CIPSTART+0xc4>
     a94:	a7 c0       	rjmp	.+334    	; 0xbe4 <AT_CIPSTART+0x212>
     a96:	ea 94       	dec	r14
     a98:	ef 28       	or	r14, r15
     a9a:	19 f4       	brne	.+6      	; 0xaa2 <AT_CIPSTART+0xd0>
     a9c:	81 e3       	ldi	r24, 0x31	; 49
     a9e:	80 93 c6 00 	sts	0x00C6, r24	; 0x8000c6 <__TEXT_REGION_LENGTH__+0x7e00c6>
     aa2:	80 91 c0 00 	lds	r24, 0x00C0	; 0x8000c0 <__TEXT_REGION_LENGTH__+0x7e00c0>
     aa6:	85 ff       	sbrs	r24, 5
     aa8:	fc cf       	rjmp	.-8      	; 0xaa2 <AT_CIPSTART+0xd0>
     aaa:	8c e2       	ldi	r24, 0x2C	; 44
     aac:	80 93 c6 00 	sts	0x00C6, r24	; 0x8000c6 <__TEXT_REGION_LENGTH__+0x7e00c6>
     ab0:	80 91 c0 00 	lds	r24, 0x00C0	; 0x8000c0 <__TEXT_REGION_LENGTH__+0x7e00c0>
     ab4:	85 ff       	sbrs	r24, 5
     ab6:	fc cf       	rjmp	.-8      	; 0xab0 <AT_CIPSTART+0xde>
     ab8:	82 e2       	ldi	r24, 0x22	; 34
     aba:	80 93 c6 00 	sts	0x00C6, r24	; 0x8000c6 <__TEXT_REGION_LENGTH__+0x7e00c6>
     abe:	a1 14       	cp	r10, r1
     ac0:	b1 04       	cpc	r11, r1
     ac2:	69 f0       	breq	.+26     	; 0xade <AT_CIPSTART+0x10c>
     ac4:	fb 01       	movw	r30, r22
     ac6:	a6 0e       	add	r10, r22
     ac8:	b7 1e       	adc	r11, r23
     aca:	80 91 c0 00 	lds	r24, 0x00C0	; 0x8000c0 <__TEXT_REGION_LENGTH__+0x7e00c0>
     ace:	85 ff       	sbrs	r24, 5
     ad0:	fc cf       	rjmp	.-8      	; 0xaca <AT_CIPSTART+0xf8>
     ad2:	81 91       	ld	r24, Z+
     ad4:	80 93 c6 00 	sts	0x00C6, r24	; 0x8000c6 <__TEXT_REGION_LENGTH__+0x7e00c6>
     ad8:	ea 15       	cp	r30, r10
     ada:	fb 05       	cpc	r31, r11
     adc:	b1 f7       	brne	.-20     	; 0xaca <AT_CIPSTART+0xf8>
     ade:	80 91 c0 00 	lds	r24, 0x00C0	; 0x8000c0 <__TEXT_REGION_LENGTH__+0x7e00c0>
     ae2:	85 ff       	sbrs	r24, 5
     ae4:	fc cf       	rjmp	.-8      	; 0xade <AT_CIPSTART+0x10c>
     ae6:	82 e2       	ldi	r24, 0x22	; 34
     ae8:	80 93 c6 00 	sts	0x00C6, r24	; 0x8000c6 <__TEXT_REGION_LENGTH__+0x7e00c6>
     aec:	80 91 c0 00 	lds	r24, 0x00C0	; 0x8000c0 <__TEXT_REGION_LENGTH__+0x7e00c0>
     af0:	85 ff       	sbrs	r24, 5
     af2:	fc cf       	rjmp	.-8      	; 0xaec <AT_CIPSTART+0x11a>
     af4:	8c e2       	ldi	r24, 0x2C	; 44
     af6:	80 93 c6 00 	sts	0x00C6, r24	; 0x8000c6 <__TEXT_REGION_LENGTH__+0x7e00c6>
     afa:	80 91 c0 00 	lds	r24, 0x00C0	; 0x8000c0 <__TEXT_REGION_LENGTH__+0x7e00c0>
     afe:	85 ff       	sbrs	r24, 5
     b00:	fc cf       	rjmp	.-8      	; 0xafa <AT_CIPSTART+0x128>
     b02:	82 e2       	ldi	r24, 0x22	; 34
     b04:	80 93 c6 00 	sts	0x00C6, r24	; 0x8000c6 <__TEXT_REGION_LENGTH__+0x7e00c6>
     b08:	c1 14       	cp	r12, r1
     b0a:	d1 04       	cpc	r13, r1
     b0c:	69 f0       	breq	.+26     	; 0xb28 <AT_CIPSTART+0x156>
     b0e:	fa 01       	movw	r30, r20
     b10:	c4 0e       	add	r12, r20
     b12:	d5 1e       	adc	r13, r21
     b14:	80 91 c0 00 	lds	r24, 0x00C0	; 0x8000c0 <__TEXT_REGION_LENGTH__+0x7e00c0>
     b18:	85 ff       	sbrs	r24, 5
     b1a:	fc cf       	rjmp	.-8      	; 0xb14 <AT_CIPSTART+0x142>
     b1c:	81 91       	ld	r24, Z+
     b1e:	80 93 c6 00 	sts	0x00C6, r24	; 0x8000c6 <__TEXT_REGION_LENGTH__+0x7e00c6>
     b22:	ec 15       	cp	r30, r12
     b24:	fd 05       	cpc	r31, r13
     b26:	b1 f7       	brne	.-20     	; 0xb14 <AT_CIPSTART+0x142>
     b28:	80 91 c0 00 	lds	r24, 0x00C0	; 0x8000c0 <__TEXT_REGION_LENGTH__+0x7e00c0>
     b2c:	85 ff       	sbrs	r24, 5
     b2e:	fc cf       	rjmp	.-8      	; 0xb28 <AT_CIPSTART+0x156>
     b30:	82 e2       	ldi	r24, 0x22	; 34
     b32:	80 93 c6 00 	sts	0x00C6, r24	; 0x8000c6 <__TEXT_REGION_LENGTH__+0x7e00c6>
     b36:	80 91 c0 00 	lds	r24, 0x00C0	; 0x8000c0 <__TEXT_REGION_LENGTH__+0x7e00c0>
     b3a:	85 ff       	sbrs	r24, 5
     b3c:	fc cf       	rjmp	.-8      	; 0xb36 <AT_CIPSTART+0x164>
     b3e:	8c e2       	ldi	r24, 0x2C	; 44
     b40:	80 93 c6 00 	sts	0x00C6, r24	; 0x8000c6 <__TEXT_REGION_LENGTH__+0x7e00c6>
     b44:	80 91 c0 00 	lds	r24, 0x00C0	; 0x8000c0 <__TEXT_REGION_LENGTH__+0x7e00c0>
     b48:	85 ff       	sbrs	r24, 5
     b4a:	fc cf       	rjmp	.-8      	; 0xb44 <AT_CIPSTART+0x172>
     b4c:	01 15       	cp	r16, r1
     b4e:	11 05       	cpc	r17, r1
     b50:	69 f0       	breq	.+26     	; 0xb6c <AT_CIPSTART+0x19a>
     b52:	f9 01       	movw	r30, r18
     b54:	02 0f       	add	r16, r18
     b56:	13 1f       	adc	r17, r19
     b58:	80 91 c0 00 	lds	r24, 0x00C0	; 0x8000c0 <__TEXT_REGION_LENGTH__+0x7e00c0>
     b5c:	85 ff       	sbrs	r24, 5
     b5e:	fc cf       	rjmp	.-8      	; 0xb58 <AT_CIPSTART+0x186>
     b60:	81 91       	ld	r24, Z+
     b62:	80 93 c6 00 	sts	0x00C6, r24	; 0x8000c6 <__TEXT_REGION_LENGTH__+0x7e00c6>
     b66:	e0 17       	cp	r30, r16
     b68:	f1 07       	cpc	r31, r17
     b6a:	b1 f7       	brne	.-20     	; 0xb58 <AT_CIPSTART+0x186>
     b6c:	80 91 c0 00 	lds	r24, 0x00C0	; 0x8000c0 <__TEXT_REGION_LENGTH__+0x7e00c0>
     b70:	85 ff       	sbrs	r24, 5
     b72:	fc cf       	rjmp	.-8      	; 0xb6c <AT_CIPSTART+0x19a>
     b74:	8d e0       	ldi	r24, 0x0D	; 13
     b76:	80 93 c6 00 	sts	0x00C6, r24	; 0x8000c6 <__TEXT_REGION_LENGTH__+0x7e00c6>
     b7a:	80 91 c0 00 	lds	r24, 0x00C0	; 0x8000c0 <__TEXT_REGION_LENGTH__+0x7e00c0>
     b7e:	85 ff       	sbrs	r24, 5
     b80:	fc cf       	rjmp	.-8      	; 0xb7a <AT_CIPSTART+0x1a8>
     b82:	8a e0       	ldi	r24, 0x0A	; 10
     b84:	80 93 c6 00 	sts	0x00C6, r24	; 0x8000c6 <__TEXT_REGION_LENGTH__+0x7e00c6>
     b88:	80 91 c0 00 	lds	r24, 0x00C0	; 0x8000c0 <__TEXT_REGION_LENGTH__+0x7e00c0>
     b8c:	85 ff       	sbrs	r24, 5
     b8e:	fc cf       	rjmp	.-8      	; 0xb88 <AT_CIPSTART+0x1b6>
     b90:	2c 96       	adiw	r28, 0x0c	; 12
     b92:	0f b6       	in	r0, 0x3f	; 63
     b94:	f8 94       	cli
     b96:	de bf       	out	0x3e, r29	; 62
     b98:	0f be       	out	0x3f, r0	; 63
     b9a:	cd bf       	out	0x3d, r28	; 61
     b9c:	df 91       	pop	r29
     b9e:	cf 91       	pop	r28
     ba0:	1f 91       	pop	r17
     ba2:	0f 91       	pop	r16
     ba4:	ff 90       	pop	r15
     ba6:	ef 90       	pop	r14
     ba8:	df 90       	pop	r13
     baa:	cf 90       	pop	r12
     bac:	bf 90       	pop	r11
     bae:	af 90       	pop	r10
     bb0:	08 95       	ret
     bb2:	f3 e0       	ldi	r31, 0x03	; 3
     bb4:	ef 16       	cp	r14, r31
     bb6:	f1 04       	cpc	r15, r1
     bb8:	69 f0       	breq	.+26     	; 0xbd4 <AT_CIPSTART+0x202>
     bba:	84 e0       	ldi	r24, 0x04	; 4
     bbc:	e8 16       	cp	r14, r24
     bbe:	f1 04       	cpc	r15, r1
     bc0:	09 f0       	breq	.+2      	; 0xbc4 <AT_CIPSTART+0x1f2>
     bc2:	6f cf       	rjmp	.-290    	; 0xaa2 <AT_CIPSTART+0xd0>
     bc4:	84 e3       	ldi	r24, 0x34	; 52
     bc6:	80 93 c6 00 	sts	0x00C6, r24	; 0x8000c6 <__TEXT_REGION_LENGTH__+0x7e00c6>
     bca:	80 91 c0 00 	lds	r24, 0x00C0	; 0x8000c0 <__TEXT_REGION_LENGTH__+0x7e00c0>
     bce:	85 ff       	sbrs	r24, 5
     bd0:	68 cf       	rjmp	.-304    	; 0xaa2 <AT_CIPSTART+0xd0>
     bd2:	6b cf       	rjmp	.-298    	; 0xaaa <AT_CIPSTART+0xd8>
     bd4:	83 e3       	ldi	r24, 0x33	; 51
     bd6:	80 93 c6 00 	sts	0x00C6, r24	; 0x8000c6 <__TEXT_REGION_LENGTH__+0x7e00c6>
     bda:	80 91 c0 00 	lds	r24, 0x00C0	; 0x8000c0 <__TEXT_REGION_LENGTH__+0x7e00c0>
     bde:	85 ff       	sbrs	r24, 5
     be0:	60 cf       	rjmp	.-320    	; 0xaa2 <AT_CIPSTART+0xd0>
     be2:	63 cf       	rjmp	.-314    	; 0xaaa <AT_CIPSTART+0xd8>
     be4:	80 e3       	ldi	r24, 0x30	; 48
     be6:	80 93 c6 00 	sts	0x00C6, r24	; 0x8000c6 <__TEXT_REGION_LENGTH__+0x7e00c6>
     bea:	80 91 c0 00 	lds	r24, 0x00C0	; 0x8000c0 <__TEXT_REGION_LENGTH__+0x7e00c0>
     bee:	85 ff       	sbrs	r24, 5
     bf0:	58 cf       	rjmp	.-336    	; 0xaa2 <AT_CIPSTART+0xd0>
     bf2:	5b cf       	rjmp	.-330    	; 0xaaa <AT_CIPSTART+0xd8>
     bf4:	82 e3       	ldi	r24, 0x32	; 50
     bf6:	80 93 c6 00 	sts	0x00C6, r24	; 0x8000c6 <__TEXT_REGION_LENGTH__+0x7e00c6>
     bfa:	80 91 c0 00 	lds	r24, 0x00C0	; 0x8000c0 <__TEXT_REGION_LENGTH__+0x7e00c0>
     bfe:	85 ff       	sbrs	r24, 5
     c00:	50 cf       	rjmp	.-352    	; 0xaa2 <AT_CIPSTART+0xd0>
     c02:	53 cf       	rjmp	.-346    	; 0xaaa <AT_CIPSTART+0xd8>
     c04:	00 e0       	ldi	r16, 0x00	; 0
     c06:	10 e0       	ldi	r17, 0x00	; 0
     c08:	20 cf       	rjmp	.-448    	; 0xa4a <AT_CIPSTART+0x78>
     c0a:	a1 2c       	mov	r10, r1
     c0c:	b1 2c       	mov	r11, r1
     c0e:	fa 01       	movw	r30, r20
     c10:	80 81       	ld	r24, Z
     c12:	81 11       	cpse	r24, r1
     c14:	04 cf       	rjmp	.-504    	; 0xa1e <AT_CIPSTART+0x4c>
     c16:	c1 2c       	mov	r12, r1
     c18:	d1 2c       	mov	r13, r1
     c1a:	0a cf       	rjmp	.-492    	; 0xa30 <AT_CIPSTART+0x5e>

00000c1c <AT_CIPSEND>:
     c1c:	af 92       	push	r10
     c1e:	bf 92       	push	r11
     c20:	cf 92       	push	r12
     c22:	df 92       	push	r13
     c24:	ef 92       	push	r14
     c26:	ff 92       	push	r15
     c28:	0f 93       	push	r16
     c2a:	1f 93       	push	r17
     c2c:	cf 93       	push	r28
     c2e:	df 93       	push	r29
     c30:	cd b7       	in	r28, 0x3d	; 61
     c32:	de b7       	in	r29, 0x3e	; 62
     c34:	65 97       	sbiw	r28, 0x15	; 21
     c36:	0f b6       	in	r0, 0x3f	; 63
     c38:	f8 94       	cli
     c3a:	de bf       	out	0x3e, r29	; 62
     c3c:	0f be       	out	0x3f, r0	; 63
     c3e:	cd bf       	out	0x3d, r28	; 61
     c40:	6c 01       	movw	r12, r24
     c42:	5b 01       	movw	r10, r22
     c44:	7a 01       	movw	r14, r20
     c46:	8c e0       	ldi	r24, 0x0C	; 12
     c48:	ee e7       	ldi	r30, 0x7E	; 126
     c4a:	f1 e0       	ldi	r31, 0x01	; 1
     c4c:	de 01       	movw	r26, r28
     c4e:	11 96       	adiw	r26, 0x01	; 1
     c50:	01 90       	ld	r0, Z+
     c52:	0d 92       	st	X+, r0
     c54:	8a 95       	dec	r24
     c56:	e1 f7       	brne	.-8      	; 0xc50 <AT_CIPSEND+0x34>
     c58:	87 e0       	ldi	r24, 0x07	; 7
     c5a:	eb e8       	ldi	r30, 0x8B	; 139
     c5c:	f1 e0       	ldi	r31, 0x01	; 1
     c5e:	de 01       	movw	r26, r28
     c60:	1d 96       	adiw	r26, 0x0d	; 13
     c62:	01 90       	ld	r0, Z+
     c64:	0d 92       	st	X+, r0
     c66:	8a 95       	dec	r24
     c68:	e1 f7       	brne	.-8      	; 0xc62 <AT_CIPSEND+0x46>
     c6a:	8e 01       	movw	r16, r28
     c6c:	0c 5e       	subi	r16, 0xEC	; 236
     c6e:	1f 4f       	sbci	r17, 0xFF	; 255
     c70:	4a e0       	ldi	r20, 0x0A	; 10
     c72:	b8 01       	movw	r22, r16
     c74:	87 e2       	ldi	r24, 0x27	; 39
     c76:	90 e0       	ldi	r25, 0x00	; 0
     c78:	0e 94 63 36 	call	0x6cc6	; 0x6cc6 <__itoa_ncheck>
     c7c:	de 01       	movw	r26, r28
     c7e:	12 96       	adiw	r26, 0x02	; 2
     c80:	fe 01       	movw	r30, r28
     c82:	3d 96       	adiw	r30, 0x0d	; 13
     c84:	90 91 c0 00 	lds	r25, 0x00C0	; 0x8000c0 <__TEXT_REGION_LENGTH__+0x7e00c0>
     c88:	95 ff       	sbrs	r25, 5
     c8a:	fc cf       	rjmp	.-8      	; 0xc84 <AT_CIPSEND+0x68>
     c8c:	8d 91       	ld	r24, X+
     c8e:	80 93 c6 00 	sts	0x00C6, r24	; 0x8000c6 <__TEXT_REGION_LENGTH__+0x7e00c6>
     c92:	ae 17       	cp	r26, r30
     c94:	bf 07       	cpc	r27, r31
     c96:	b1 f7       	brne	.-20     	; 0xc84 <AT_CIPSEND+0x68>
     c98:	80 91 c0 00 	lds	r24, 0x00C0	; 0x8000c0 <__TEXT_REGION_LENGTH__+0x7e00c0>
     c9c:	85 ff       	sbrs	r24, 5
     c9e:	fc cf       	rjmp	.-8      	; 0xc98 <AT_CIPSEND+0x7c>
     ca0:	22 e0       	ldi	r18, 0x02	; 2
     ca2:	c2 16       	cp	r12, r18
     ca4:	d1 04       	cpc	r13, r1
     ca6:	09 f4       	brne	.+2      	; 0xcaa <AT_CIPSEND+0x8e>
     ca8:	a7 c0       	rjmp	.+334    	; 0xdf8 <AT_CIPSEND+0x1dc>
     caa:	0c f0       	brlt	.+2      	; 0xcae <AT_CIPSEND+0x92>
     cac:	81 c0       	rjmp	.+258    	; 0xdb0 <AT_CIPSEND+0x194>
     cae:	c1 14       	cp	r12, r1
     cb0:	d1 04       	cpc	r13, r1
     cb2:	09 f4       	brne	.+2      	; 0xcb6 <AT_CIPSEND+0x9a>
     cb4:	99 c0       	rjmp	.+306    	; 0xde8 <AT_CIPSEND+0x1cc>
     cb6:	ca 94       	dec	r12
     cb8:	cd 28       	or	r12, r13
     cba:	19 f4       	brne	.+6      	; 0xcc2 <AT_CIPSEND+0xa6>
     cbc:	81 e3       	ldi	r24, 0x31	; 49
     cbe:	80 93 c6 00 	sts	0x00C6, r24	; 0x8000c6 <__TEXT_REGION_LENGTH__+0x7e00c6>
     cc2:	80 91 c0 00 	lds	r24, 0x00C0	; 0x8000c0 <__TEXT_REGION_LENGTH__+0x7e00c0>
     cc6:	85 ff       	sbrs	r24, 5
     cc8:	fc cf       	rjmp	.-8      	; 0xcc2 <AT_CIPSEND+0xa6>
     cca:	8c e2       	ldi	r24, 0x2C	; 44
     ccc:	80 93 c6 00 	sts	0x00C6, r24	; 0x8000c6 <__TEXT_REGION_LENGTH__+0x7e00c6>
     cd0:	80 91 c0 00 	lds	r24, 0x00C0	; 0x8000c0 <__TEXT_REGION_LENGTH__+0x7e00c0>
     cd4:	85 ff       	sbrs	r24, 5
     cd6:	fc cf       	rjmp	.-8      	; 0xcd0 <AT_CIPSEND+0xb4>
     cd8:	8c 89       	ldd	r24, Y+20	; 0x14
     cda:	80 93 c6 00 	sts	0x00C6, r24	; 0x8000c6 <__TEXT_REGION_LENGTH__+0x7e00c6>
     cde:	80 91 c0 00 	lds	r24, 0x00C0	; 0x8000c0 <__TEXT_REGION_LENGTH__+0x7e00c0>
     ce2:	85 ff       	sbrs	r24, 5
     ce4:	fc cf       	rjmp	.-8      	; 0xcde <AT_CIPSEND+0xc2>
     ce6:	8d 89       	ldd	r24, Y+21	; 0x15
     ce8:	80 93 c6 00 	sts	0x00C6, r24	; 0x8000c6 <__TEXT_REGION_LENGTH__+0x7e00c6>
     cec:	80 91 c0 00 	lds	r24, 0x00C0	; 0x8000c0 <__TEXT_REGION_LENGTH__+0x7e00c0>
     cf0:	85 ff       	sbrs	r24, 5
     cf2:	fc cf       	rjmp	.-8      	; 0xcec <AT_CIPSEND+0xd0>
     cf4:	8d e0       	ldi	r24, 0x0D	; 13
     cf6:	80 93 c6 00 	sts	0x00C6, r24	; 0x8000c6 <__TEXT_REGION_LENGTH__+0x7e00c6>
     cfa:	80 91 c0 00 	lds	r24, 0x00C0	; 0x8000c0 <__TEXT_REGION_LENGTH__+0x7e00c0>
     cfe:	85 ff       	sbrs	r24, 5
     d00:	fc cf       	rjmp	.-8      	; 0xcfa <AT_CIPSEND+0xde>
     d02:	8a e0       	ldi	r24, 0x0A	; 10
     d04:	80 93 c6 00 	sts	0x00C6, r24	; 0x8000c6 <__TEXT_REGION_LENGTH__+0x7e00c6>
     d08:	80 91 c0 00 	lds	r24, 0x00C0	; 0x8000c0 <__TEXT_REGION_LENGTH__+0x7e00c0>
     d0c:	85 ff       	sbrs	r24, 5
     d0e:	fc cf       	rjmp	.-8      	; 0xd08 <AT_CIPSEND+0xec>
     d10:	9f e7       	ldi	r25, 0x7F	; 127
     d12:	28 e3       	ldi	r18, 0x38	; 56
     d14:	81 e0       	ldi	r24, 0x01	; 1
     d16:	91 50       	subi	r25, 0x01	; 1
     d18:	20 40       	sbci	r18, 0x00	; 0
     d1a:	80 40       	sbci	r24, 0x00	; 0
     d1c:	e1 f7       	brne	.-8      	; 0xd16 <AT_CIPSEND+0xfa>
     d1e:	00 c0       	rjmp	.+0      	; 0xd20 <AT_CIPSEND+0x104>
     d20:	00 00       	nop
     d22:	80 91 c0 00 	lds	r24, 0x00C0	; 0x8000c0 <__TEXT_REGION_LENGTH__+0x7e00c0>
     d26:	85 ff       	sbrs	r24, 5
     d28:	fc cf       	rjmp	.-8      	; 0xd22 <AT_CIPSEND+0x106>
     d2a:	81 91       	ld	r24, Z+
     d2c:	80 93 c6 00 	sts	0x00C6, r24	; 0x8000c6 <__TEXT_REGION_LENGTH__+0x7e00c6>
     d30:	e0 17       	cp	r30, r16
     d32:	f1 07       	cpc	r31, r17
     d34:	b1 f7       	brne	.-20     	; 0xd22 <AT_CIPSEND+0x106>
     d36:	80 91 c0 00 	lds	r24, 0x00C0	; 0x8000c0 <__TEXT_REGION_LENGTH__+0x7e00c0>
     d3a:	85 ff       	sbrs	r24, 5
     d3c:	fc cf       	rjmp	.-8      	; 0xd36 <AT_CIPSEND+0x11a>
     d3e:	92 e0       	ldi	r25, 0x02	; 2
     d40:	e9 16       	cp	r14, r25
     d42:	f1 04       	cpc	r15, r1
     d44:	09 f4       	brne	.+2      	; 0xd48 <AT_CIPSEND+0x12c>
     d46:	4c c0       	rjmp	.+152    	; 0xde0 <AT_CIPSEND+0x1c4>
     d48:	0c f4       	brge	.+2      	; 0xd4c <AT_CIPSEND+0x130>
     d4a:	3f c0       	rjmp	.+126    	; 0xdca <AT_CIPSEND+0x1ae>
     d4c:	93 e0       	ldi	r25, 0x03	; 3
     d4e:	e9 16       	cp	r14, r25
     d50:	f1 04       	cpc	r15, r1
     d52:	09 f4       	brne	.+2      	; 0xd56 <AT_CIPSEND+0x13a>
     d54:	41 c0       	rjmp	.+130    	; 0xdd8 <AT_CIPSEND+0x1bc>
     d56:	24 e0       	ldi	r18, 0x04	; 4
     d58:	e2 16       	cp	r14, r18
     d5a:	f1 04       	cpc	r15, r1
     d5c:	19 f4       	brne	.+6      	; 0xd64 <AT_CIPSEND+0x148>
     d5e:	84 e3       	ldi	r24, 0x34	; 52
     d60:	80 93 c6 00 	sts	0x00C6, r24	; 0x8000c6 <__TEXT_REGION_LENGTH__+0x7e00c6>
     d64:	80 91 c0 00 	lds	r24, 0x00C0	; 0x8000c0 <__TEXT_REGION_LENGTH__+0x7e00c0>
     d68:	85 ff       	sbrs	r24, 5
     d6a:	fc cf       	rjmp	.-8      	; 0xd64 <AT_CIPSEND+0x148>
     d6c:	8a e3       	ldi	r24, 0x3A	; 58
     d6e:	80 93 c6 00 	sts	0x00C6, r24	; 0x8000c6 <__TEXT_REGION_LENGTH__+0x7e00c6>
     d72:	f5 01       	movw	r30, r10
     d74:	95 01       	movw	r18, r10
     d76:	29 5d       	subi	r18, 0xD9	; 217
     d78:	3f 4f       	sbci	r19, 0xFF	; 255
     d7a:	80 91 c0 00 	lds	r24, 0x00C0	; 0x8000c0 <__TEXT_REGION_LENGTH__+0x7e00c0>
     d7e:	85 ff       	sbrs	r24, 5
     d80:	fc cf       	rjmp	.-8      	; 0xd7a <AT_CIPSEND+0x15e>
     d82:	81 91       	ld	r24, Z+
     d84:	80 93 c6 00 	sts	0x00C6, r24	; 0x8000c6 <__TEXT_REGION_LENGTH__+0x7e00c6>
     d88:	e2 17       	cp	r30, r18
     d8a:	f3 07       	cpc	r31, r19
     d8c:	b1 f7       	brne	.-20     	; 0xd7a <AT_CIPSEND+0x15e>
     d8e:	65 96       	adiw	r28, 0x15	; 21
     d90:	0f b6       	in	r0, 0x3f	; 63
     d92:	f8 94       	cli
     d94:	de bf       	out	0x3e, r29	; 62
     d96:	0f be       	out	0x3f, r0	; 63
     d98:	cd bf       	out	0x3d, r28	; 61
     d9a:	df 91       	pop	r29
     d9c:	cf 91       	pop	r28
     d9e:	1f 91       	pop	r17
     da0:	0f 91       	pop	r16
     da2:	ff 90       	pop	r15
     da4:	ef 90       	pop	r14
     da6:	df 90       	pop	r13
     da8:	cf 90       	pop	r12
     daa:	bf 90       	pop	r11
     dac:	af 90       	pop	r10
     dae:	08 95       	ret
     db0:	23 e0       	ldi	r18, 0x03	; 3
     db2:	c2 16       	cp	r12, r18
     db4:	d1 04       	cpc	r13, r1
     db6:	e1 f0       	breq	.+56     	; 0xdf0 <AT_CIPSEND+0x1d4>
     db8:	84 e0       	ldi	r24, 0x04	; 4
     dba:	c8 16       	cp	r12, r24
     dbc:	d1 04       	cpc	r13, r1
     dbe:	09 f0       	breq	.+2      	; 0xdc2 <AT_CIPSEND+0x1a6>
     dc0:	80 cf       	rjmp	.-256    	; 0xcc2 <AT_CIPSEND+0xa6>
     dc2:	84 e3       	ldi	r24, 0x34	; 52
     dc4:	80 93 c6 00 	sts	0x00C6, r24	; 0x8000c6 <__TEXT_REGION_LENGTH__+0x7e00c6>
     dc8:	7c cf       	rjmp	.-264    	; 0xcc2 <AT_CIPSEND+0xa6>
     dca:	ea 94       	dec	r14
     dcc:	ef 28       	or	r14, r15
     dce:	51 f6       	brne	.-108    	; 0xd64 <AT_CIPSEND+0x148>
     dd0:	81 e3       	ldi	r24, 0x31	; 49
     dd2:	80 93 c6 00 	sts	0x00C6, r24	; 0x8000c6 <__TEXT_REGION_LENGTH__+0x7e00c6>
     dd6:	c6 cf       	rjmp	.-116    	; 0xd64 <AT_CIPSEND+0x148>
     dd8:	83 e3       	ldi	r24, 0x33	; 51
     dda:	80 93 c6 00 	sts	0x00C6, r24	; 0x8000c6 <__TEXT_REGION_LENGTH__+0x7e00c6>
     dde:	c2 cf       	rjmp	.-124    	; 0xd64 <AT_CIPSEND+0x148>
     de0:	82 e3       	ldi	r24, 0x32	; 50
     de2:	80 93 c6 00 	sts	0x00C6, r24	; 0x8000c6 <__TEXT_REGION_LENGTH__+0x7e00c6>
     de6:	be cf       	rjmp	.-132    	; 0xd64 <AT_CIPSEND+0x148>
     de8:	80 e3       	ldi	r24, 0x30	; 48
     dea:	80 93 c6 00 	sts	0x00C6, r24	; 0x8000c6 <__TEXT_REGION_LENGTH__+0x7e00c6>
     dee:	69 cf       	rjmp	.-302    	; 0xcc2 <AT_CIPSEND+0xa6>
     df0:	83 e3       	ldi	r24, 0x33	; 51
     df2:	80 93 c6 00 	sts	0x00C6, r24	; 0x8000c6 <__TEXT_REGION_LENGTH__+0x7e00c6>
     df6:	65 cf       	rjmp	.-310    	; 0xcc2 <AT_CIPSEND+0xa6>
     df8:	82 e3       	ldi	r24, 0x32	; 50
     dfa:	80 93 c6 00 	sts	0x00C6, r24	; 0x8000c6 <__TEXT_REGION_LENGTH__+0x7e00c6>
     dfe:	61 cf       	rjmp	.-318    	; 0xcc2 <AT_CIPSEND+0xa6>

00000e00 <New_Line>:
     e00:	80 91 c0 00 	lds	r24, 0x00C0	; 0x8000c0 <__TEXT_REGION_LENGTH__+0x7e00c0>
     e04:	85 ff       	sbrs	r24, 5
     e06:	fc cf       	rjmp	.-8      	; 0xe00 <New_Line>
     e08:	8a e0       	ldi	r24, 0x0A	; 10
     e0a:	80 93 c6 00 	sts	0x00C6, r24	; 0x8000c6 <__TEXT_REGION_LENGTH__+0x7e00c6>
     e0e:	80 91 c0 00 	lds	r24, 0x00C0	; 0x8000c0 <__TEXT_REGION_LENGTH__+0x7e00c0>
     e12:	85 ff       	sbrs	r24, 5
     e14:	fc cf       	rjmp	.-8      	; 0xe0e <New_Line+0xe>
     e16:	8d e0       	ldi	r24, 0x0D	; 13
     e18:	80 93 c6 00 	sts	0x00C6, r24	; 0x8000c6 <__TEXT_REGION_LENGTH__+0x7e00c6>
     e1c:	08 95       	ret

00000e1e <ArrayEqual>:
     e1e:	dc 01       	movw	r26, r24
     e20:	fb 01       	movw	r30, r22
     e22:	9c 91       	ld	r25, X
     e24:	80 81       	ld	r24, Z
     e26:	98 13       	cpse	r25, r24
     e28:	17 c0       	rjmp	.+46     	; 0xe58 <ArrayEqual+0x3a>
     e2a:	11 96       	adiw	r26, 0x01	; 1
     e2c:	9c 91       	ld	r25, X
     e2e:	11 97       	sbiw	r26, 0x01	; 1
     e30:	81 81       	ldd	r24, Z+1	; 0x01
     e32:	98 13       	cpse	r25, r24
     e34:	11 c0       	rjmp	.+34     	; 0xe58 <ArrayEqual+0x3a>
     e36:	12 96       	adiw	r26, 0x02	; 2
     e38:	9c 91       	ld	r25, X
     e3a:	12 97       	sbiw	r26, 0x02	; 2
     e3c:	82 81       	ldd	r24, Z+2	; 0x02
     e3e:	98 13       	cpse	r25, r24
     e40:	0b c0       	rjmp	.+22     	; 0xe58 <ArrayEqual+0x3a>
     e42:	13 96       	adiw	r26, 0x03	; 3
     e44:	9c 91       	ld	r25, X
     e46:	13 97       	sbiw	r26, 0x03	; 3
     e48:	83 81       	ldd	r24, Z+3	; 0x03
     e4a:	98 13       	cpse	r25, r24
     e4c:	05 c0       	rjmp	.+10     	; 0xe58 <ArrayEqual+0x3a>
     e4e:	81 e0       	ldi	r24, 0x01	; 1
     e50:	14 96       	adiw	r26, 0x04	; 4
     e52:	2c 91       	ld	r18, X
     e54:	94 81       	ldd	r25, Z+4	; 0x04
     e56:	29 13       	cpse	r18, r25
     e58:	80 e0       	ldi	r24, 0x00	; 0
     e5a:	08 95       	ret

00000e5c <Transmit_Disable>:
     e5c:	2c 9a       	sbi	0x05, 4	; 5
     e5e:	08 95       	ret

00000e60 <Transmit_Enable>:
     e60:	2c 98       	cbi	0x05, 4	; 5
     e62:	08 95       	ret

00000e64 <SPI_Init>:
     e64:	84 b1       	in	r24, 0x04	; 4
     e66:	80 6b       	ori	r24, 0xB0	; 176
     e68:	84 b9       	out	0x04, r24	; 4
     e6a:	84 b1       	in	r24, 0x04	; 4
     e6c:	87 7b       	andi	r24, 0xB7	; 183
     e6e:	84 b9       	out	0x04, r24	; 4
     e70:	8c b5       	in	r24, 0x2c	; 44
     e72:	81 65       	ori	r24, 0x51	; 81
     e74:	8c bd       	out	0x2c, r24	; 44
     e76:	2c 9a       	sbi	0x05, 4	; 5
     e78:	08 95       	ret

00000e7a <WriteByteSPI>:
     e7a:	8e bd       	out	0x2e, r24	; 46
     e7c:	0d b4       	in	r0, 0x2d	; 45
     e7e:	07 fe       	sbrs	r0, 7
     e80:	fd cf       	rjmp	.-6      	; 0xe7c <WriteByteSPI+0x2>
     e82:	8e b5       	in	r24, 0x2e	; 46
     e84:	08 95       	ret

00000e86 <Get_Select>:
     e86:	ef 92       	push	r14
     e88:	ff 92       	push	r15
     e8a:	0f 93       	push	r16
     e8c:	1f 93       	push	r17
     e8e:	cf 93       	push	r28
     e90:	df 93       	push	r29
     e92:	ec 01       	movw	r28, r24
     e94:	68 ed       	ldi	r22, 0xD8	; 216
     e96:	71 e0       	ldi	r23, 0x01	; 1
     e98:	0e 94 4c 36 	call	0x6c98	; 0x6c98 <strcmp>
     e9c:	7c 01       	movw	r14, r24
     e9e:	6c ee       	ldi	r22, 0xEC	; 236
     ea0:	71 e0       	ldi	r23, 0x01	; 1
     ea2:	ce 01       	movw	r24, r28
     ea4:	0e 94 4c 36 	call	0x6c98	; 0x6c98 <strcmp>
     ea8:	89 2b       	or	r24, r25
     eaa:	09 f4       	brne	.+2      	; 0xeae <Get_Select+0x28>
     eac:	7e c1       	rjmp	.+764    	; 0x11aa <Get_Select+0x324>
     eae:	01 e0       	ldi	r16, 0x01	; 1
     eb0:	10 e0       	ldi	r17, 0x00	; 0
     eb2:	ef 28       	or	r14, r15
     eb4:	09 f0       	breq	.+2      	; 0xeb8 <Get_Select+0x32>
     eb6:	7c c1       	rjmp	.+760    	; 0x11b0 <Get_Select+0x32a>
     eb8:	6e ef       	ldi	r22, 0xFE	; 254
     eba:	71 e0       	ldi	r23, 0x01	; 1
     ebc:	ce 01       	movw	r24, r28
     ebe:	0e 94 4c 36 	call	0x6c98	; 0x6c98 <strcmp>
     ec2:	89 2b       	or	r24, r25
     ec4:	11 f4       	brne	.+4      	; 0xeca <Get_Select+0x44>
     ec6:	03 e0       	ldi	r16, 0x03	; 3
     ec8:	10 e0       	ldi	r17, 0x00	; 0
     eca:	63 e1       	ldi	r22, 0x13	; 19
     ecc:	72 e0       	ldi	r23, 0x02	; 2
     ece:	ce 01       	movw	r24, r28
     ed0:	0e 94 4c 36 	call	0x6c98	; 0x6c98 <strcmp>
     ed4:	89 2b       	or	r24, r25
     ed6:	11 f4       	brne	.+4      	; 0xedc <Get_Select+0x56>
     ed8:	04 e0       	ldi	r16, 0x04	; 4
     eda:	10 e0       	ldi	r17, 0x00	; 0
     edc:	69 e2       	ldi	r22, 0x29	; 41
     ede:	72 e0       	ldi	r23, 0x02	; 2
     ee0:	ce 01       	movw	r24, r28
     ee2:	0e 94 4c 36 	call	0x6c98	; 0x6c98 <strcmp>
     ee6:	89 2b       	or	r24, r25
     ee8:	11 f4       	brne	.+4      	; 0xeee <Get_Select+0x68>
     eea:	05 e0       	ldi	r16, 0x05	; 5
     eec:	10 e0       	ldi	r17, 0x00	; 0
     eee:	61 e4       	ldi	r22, 0x41	; 65
     ef0:	72 e0       	ldi	r23, 0x02	; 2
     ef2:	ce 01       	movw	r24, r28
     ef4:	0e 94 4c 36 	call	0x6c98	; 0x6c98 <strcmp>
     ef8:	89 2b       	or	r24, r25
     efa:	11 f4       	brne	.+4      	; 0xf00 <Get_Select+0x7a>
     efc:	06 e0       	ldi	r16, 0x06	; 6
     efe:	10 e0       	ldi	r17, 0x00	; 0
     f00:	6b e5       	ldi	r22, 0x5B	; 91
     f02:	72 e0       	ldi	r23, 0x02	; 2
     f04:	ce 01       	movw	r24, r28
     f06:	0e 94 4c 36 	call	0x6c98	; 0x6c98 <strcmp>
     f0a:	89 2b       	or	r24, r25
     f0c:	11 f4       	brne	.+4      	; 0xf12 <Get_Select+0x8c>
     f0e:	07 e0       	ldi	r16, 0x07	; 7
     f10:	10 e0       	ldi	r17, 0x00	; 0
     f12:	66 e7       	ldi	r22, 0x76	; 118
     f14:	72 e0       	ldi	r23, 0x02	; 2
     f16:	ce 01       	movw	r24, r28
     f18:	0e 94 4c 36 	call	0x6c98	; 0x6c98 <strcmp>
     f1c:	89 2b       	or	r24, r25
     f1e:	11 f4       	brne	.+4      	; 0xf24 <Get_Select+0x9e>
     f20:	08 e0       	ldi	r16, 0x08	; 8
     f22:	10 e0       	ldi	r17, 0x00	; 0
     f24:	60 e9       	ldi	r22, 0x90	; 144
     f26:	72 e0       	ldi	r23, 0x02	; 2
     f28:	ce 01       	movw	r24, r28
     f2a:	0e 94 4c 36 	call	0x6c98	; 0x6c98 <strcmp>
     f2e:	89 2b       	or	r24, r25
     f30:	11 f4       	brne	.+4      	; 0xf36 <Get_Select+0xb0>
     f32:	09 e0       	ldi	r16, 0x09	; 9
     f34:	10 e0       	ldi	r17, 0x00	; 0
     f36:	6d ea       	ldi	r22, 0xAD	; 173
     f38:	72 e0       	ldi	r23, 0x02	; 2
     f3a:	ce 01       	movw	r24, r28
     f3c:	0e 94 4c 36 	call	0x6c98	; 0x6c98 <strcmp>
     f40:	89 2b       	or	r24, r25
     f42:	11 f4       	brne	.+4      	; 0xf48 <Get_Select+0xc2>
     f44:	0a e0       	ldi	r16, 0x0A	; 10
     f46:	10 e0       	ldi	r17, 0x00	; 0
     f48:	68 ec       	ldi	r22, 0xC8	; 200
     f4a:	72 e0       	ldi	r23, 0x02	; 2
     f4c:	ce 01       	movw	r24, r28
     f4e:	0e 94 4c 36 	call	0x6c98	; 0x6c98 <strcmp>
     f52:	89 2b       	or	r24, r25
     f54:	11 f4       	brne	.+4      	; 0xf5a <Get_Select+0xd4>
     f56:	0b e0       	ldi	r16, 0x0B	; 11
     f58:	10 e0       	ldi	r17, 0x00	; 0
     f5a:	69 ed       	ldi	r22, 0xD9	; 217
     f5c:	72 e0       	ldi	r23, 0x02	; 2
     f5e:	ce 01       	movw	r24, r28
     f60:	0e 94 4c 36 	call	0x6c98	; 0x6c98 <strcmp>
     f64:	89 2b       	or	r24, r25
     f66:	11 f4       	brne	.+4      	; 0xf6c <Get_Select+0xe6>
     f68:	0c e0       	ldi	r16, 0x0C	; 12
     f6a:	10 e0       	ldi	r17, 0x00	; 0
     f6c:	6b ee       	ldi	r22, 0xEB	; 235
     f6e:	72 e0       	ldi	r23, 0x02	; 2
     f70:	ce 01       	movw	r24, r28
     f72:	0e 94 4c 36 	call	0x6c98	; 0x6c98 <strcmp>
     f76:	89 2b       	or	r24, r25
     f78:	11 f4       	brne	.+4      	; 0xf7e <Get_Select+0xf8>
     f7a:	0d e0       	ldi	r16, 0x0D	; 13
     f7c:	10 e0       	ldi	r17, 0x00	; 0
     f7e:	63 e0       	ldi	r22, 0x03	; 3
     f80:	73 e0       	ldi	r23, 0x03	; 3
     f82:	ce 01       	movw	r24, r28
     f84:	0e 94 4c 36 	call	0x6c98	; 0x6c98 <strcmp>
     f88:	89 2b       	or	r24, r25
     f8a:	11 f4       	brne	.+4      	; 0xf90 <Get_Select+0x10a>
     f8c:	0e e0       	ldi	r16, 0x0E	; 14
     f8e:	10 e0       	ldi	r17, 0x00	; 0
     f90:	66 e2       	ldi	r22, 0x26	; 38
     f92:	73 e0       	ldi	r23, 0x03	; 3
     f94:	ce 01       	movw	r24, r28
     f96:	0e 94 4c 36 	call	0x6c98	; 0x6c98 <strcmp>
     f9a:	89 2b       	or	r24, r25
     f9c:	11 f4       	brne	.+4      	; 0xfa2 <Get_Select+0x11c>
     f9e:	0f e0       	ldi	r16, 0x0F	; 15
     fa0:	10 e0       	ldi	r17, 0x00	; 0
     fa2:	60 e3       	ldi	r22, 0x30	; 48
     fa4:	73 e0       	ldi	r23, 0x03	; 3
     fa6:	ce 01       	movw	r24, r28
     fa8:	0e 94 4c 36 	call	0x6c98	; 0x6c98 <strcmp>
     fac:	89 2b       	or	r24, r25
     fae:	11 f4       	brne	.+4      	; 0xfb4 <Get_Select+0x12e>
     fb0:	00 e1       	ldi	r16, 0x10	; 16
     fb2:	10 e0       	ldi	r17, 0x00	; 0
     fb4:	65 e4       	ldi	r22, 0x45	; 69
     fb6:	73 e0       	ldi	r23, 0x03	; 3
     fb8:	ce 01       	movw	r24, r28
     fba:	0e 94 4c 36 	call	0x6c98	; 0x6c98 <strcmp>
     fbe:	89 2b       	or	r24, r25
     fc0:	11 f4       	brne	.+4      	; 0xfc6 <Get_Select+0x140>
     fc2:	01 e1       	ldi	r16, 0x11	; 17
     fc4:	10 e0       	ldi	r17, 0x00	; 0
     fc6:	64 e5       	ldi	r22, 0x54	; 84
     fc8:	73 e0       	ldi	r23, 0x03	; 3
     fca:	ce 01       	movw	r24, r28
     fcc:	0e 94 4c 36 	call	0x6c98	; 0x6c98 <strcmp>
     fd0:	89 2b       	or	r24, r25
     fd2:	11 f4       	brne	.+4      	; 0xfd8 <Get_Select+0x152>
     fd4:	02 e1       	ldi	r16, 0x12	; 18
     fd6:	10 e0       	ldi	r17, 0x00	; 0
     fd8:	6f e6       	ldi	r22, 0x6F	; 111
     fda:	73 e0       	ldi	r23, 0x03	; 3
     fdc:	ce 01       	movw	r24, r28
     fde:	0e 94 4c 36 	call	0x6c98	; 0x6c98 <strcmp>
     fe2:	89 2b       	or	r24, r25
     fe4:	11 f4       	brne	.+4      	; 0xfea <Get_Select+0x164>
     fe6:	03 e1       	ldi	r16, 0x13	; 19
     fe8:	10 e0       	ldi	r17, 0x00	; 0
     fea:	6e e8       	ldi	r22, 0x8E	; 142
     fec:	73 e0       	ldi	r23, 0x03	; 3
     fee:	ce 01       	movw	r24, r28
     ff0:	0e 94 4c 36 	call	0x6c98	; 0x6c98 <strcmp>
     ff4:	89 2b       	or	r24, r25
     ff6:	11 f4       	brne	.+4      	; 0xffc <Get_Select+0x176>
     ff8:	04 e1       	ldi	r16, 0x14	; 20
     ffa:	10 e0       	ldi	r17, 0x00	; 0
     ffc:	66 ea       	ldi	r22, 0xA6	; 166
     ffe:	73 e0       	ldi	r23, 0x03	; 3
    1000:	ce 01       	movw	r24, r28
    1002:	0e 94 4c 36 	call	0x6c98	; 0x6c98 <strcmp>
    1006:	89 2b       	or	r24, r25
    1008:	11 f4       	brne	.+4      	; 0x100e <Get_Select+0x188>
    100a:	05 e1       	ldi	r16, 0x15	; 21
    100c:	10 e0       	ldi	r17, 0x00	; 0
    100e:	63 ec       	ldi	r22, 0xC3	; 195
    1010:	73 e0       	ldi	r23, 0x03	; 3
    1012:	ce 01       	movw	r24, r28
    1014:	0e 94 4c 36 	call	0x6c98	; 0x6c98 <strcmp>
    1018:	89 2b       	or	r24, r25
    101a:	11 f4       	brne	.+4      	; 0x1020 <Get_Select+0x19a>
    101c:	06 e1       	ldi	r16, 0x16	; 22
    101e:	10 e0       	ldi	r17, 0x00	; 0
    1020:	6a ed       	ldi	r22, 0xDA	; 218
    1022:	73 e0       	ldi	r23, 0x03	; 3
    1024:	ce 01       	movw	r24, r28
    1026:	0e 94 4c 36 	call	0x6c98	; 0x6c98 <strcmp>
    102a:	89 2b       	or	r24, r25
    102c:	11 f4       	brne	.+4      	; 0x1032 <Get_Select+0x1ac>
    102e:	07 e1       	ldi	r16, 0x17	; 23
    1030:	10 e0       	ldi	r17, 0x00	; 0
    1032:	6e ee       	ldi	r22, 0xEE	; 238
    1034:	73 e0       	ldi	r23, 0x03	; 3
    1036:	ce 01       	movw	r24, r28
    1038:	0e 94 4c 36 	call	0x6c98	; 0x6c98 <strcmp>
    103c:	89 2b       	or	r24, r25
    103e:	11 f4       	brne	.+4      	; 0x1044 <Get_Select+0x1be>
    1040:	08 e1       	ldi	r16, 0x18	; 24
    1042:	10 e0       	ldi	r17, 0x00	; 0
    1044:	6a e0       	ldi	r22, 0x0A	; 10
    1046:	74 e0       	ldi	r23, 0x04	; 4
    1048:	ce 01       	movw	r24, r28
    104a:	0e 94 4c 36 	call	0x6c98	; 0x6c98 <strcmp>
    104e:	89 2b       	or	r24, r25
    1050:	11 f4       	brne	.+4      	; 0x1056 <Get_Select+0x1d0>
    1052:	09 e1       	ldi	r16, 0x19	; 25
    1054:	10 e0       	ldi	r17, 0x00	; 0
    1056:	6c e1       	ldi	r22, 0x1C	; 28
    1058:	74 e0       	ldi	r23, 0x04	; 4
    105a:	ce 01       	movw	r24, r28
    105c:	0e 94 4c 36 	call	0x6c98	; 0x6c98 <strcmp>
    1060:	89 2b       	or	r24, r25
    1062:	11 f4       	brne	.+4      	; 0x1068 <Get_Select+0x1e2>
    1064:	0a e1       	ldi	r16, 0x1A	; 26
    1066:	10 e0       	ldi	r17, 0x00	; 0
    1068:	69 e3       	ldi	r22, 0x39	; 57
    106a:	74 e0       	ldi	r23, 0x04	; 4
    106c:	ce 01       	movw	r24, r28
    106e:	0e 94 4c 36 	call	0x6c98	; 0x6c98 <strcmp>
    1072:	89 2b       	or	r24, r25
    1074:	11 f4       	brne	.+4      	; 0x107a <Get_Select+0x1f4>
    1076:	0b e1       	ldi	r16, 0x1B	; 27
    1078:	10 e0       	ldi	r17, 0x00	; 0
    107a:	61 e5       	ldi	r22, 0x51	; 81
    107c:	74 e0       	ldi	r23, 0x04	; 4
    107e:	ce 01       	movw	r24, r28
    1080:	0e 94 4c 36 	call	0x6c98	; 0x6c98 <strcmp>
    1084:	89 2b       	or	r24, r25
    1086:	11 f4       	brne	.+4      	; 0x108c <Get_Select+0x206>
    1088:	0c e1       	ldi	r16, 0x1C	; 28
    108a:	10 e0       	ldi	r17, 0x00	; 0
    108c:	6d e6       	ldi	r22, 0x6D	; 109
    108e:	74 e0       	ldi	r23, 0x04	; 4
    1090:	ce 01       	movw	r24, r28
    1092:	0e 94 4c 36 	call	0x6c98	; 0x6c98 <strcmp>
    1096:	89 2b       	or	r24, r25
    1098:	11 f4       	brne	.+4      	; 0x109e <Get_Select+0x218>
    109a:	0d e1       	ldi	r16, 0x1D	; 29
    109c:	10 e0       	ldi	r17, 0x00	; 0
    109e:	6a e7       	ldi	r22, 0x7A	; 122
    10a0:	74 e0       	ldi	r23, 0x04	; 4
    10a2:	ce 01       	movw	r24, r28
    10a4:	0e 94 4c 36 	call	0x6c98	; 0x6c98 <strcmp>
    10a8:	89 2b       	or	r24, r25
    10aa:	11 f4       	brne	.+4      	; 0x10b0 <Get_Select+0x22a>
    10ac:	0e e1       	ldi	r16, 0x1E	; 30
    10ae:	10 e0       	ldi	r17, 0x00	; 0
    10b0:	67 e9       	ldi	r22, 0x97	; 151
    10b2:	74 e0       	ldi	r23, 0x04	; 4
    10b4:	ce 01       	movw	r24, r28
    10b6:	0e 94 4c 36 	call	0x6c98	; 0x6c98 <strcmp>
    10ba:	89 2b       	or	r24, r25
    10bc:	11 f4       	brne	.+4      	; 0x10c2 <Get_Select+0x23c>
    10be:	0f e1       	ldi	r16, 0x1F	; 31
    10c0:	10 e0       	ldi	r17, 0x00	; 0
    10c2:	62 eb       	ldi	r22, 0xB2	; 178
    10c4:	74 e0       	ldi	r23, 0x04	; 4
    10c6:	ce 01       	movw	r24, r28
    10c8:	0e 94 4c 36 	call	0x6c98	; 0x6c98 <strcmp>
    10cc:	89 2b       	or	r24, r25
    10ce:	11 f4       	brne	.+4      	; 0x10d4 <Get_Select+0x24e>
    10d0:	00 e2       	ldi	r16, 0x20	; 32
    10d2:	10 e0       	ldi	r17, 0x00	; 0
    10d4:	6e ec       	ldi	r22, 0xCE	; 206
    10d6:	74 e0       	ldi	r23, 0x04	; 4
    10d8:	ce 01       	movw	r24, r28
    10da:	0e 94 4c 36 	call	0x6c98	; 0x6c98 <strcmp>
    10de:	89 2b       	or	r24, r25
    10e0:	11 f4       	brne	.+4      	; 0x10e6 <Get_Select+0x260>
    10e2:	01 e2       	ldi	r16, 0x21	; 33
    10e4:	10 e0       	ldi	r17, 0x00	; 0
    10e6:	6f ee       	ldi	r22, 0xEF	; 239
    10e8:	74 e0       	ldi	r23, 0x04	; 4
    10ea:	ce 01       	movw	r24, r28
    10ec:	0e 94 4c 36 	call	0x6c98	; 0x6c98 <strcmp>
    10f0:	89 2b       	or	r24, r25
    10f2:	11 f4       	brne	.+4      	; 0x10f8 <Get_Select+0x272>
    10f4:	02 e2       	ldi	r16, 0x22	; 34
    10f6:	10 e0       	ldi	r17, 0x00	; 0
    10f8:	6c ef       	ldi	r22, 0xFC	; 252
    10fa:	74 e0       	ldi	r23, 0x04	; 4
    10fc:	ce 01       	movw	r24, r28
    10fe:	0e 94 4c 36 	call	0x6c98	; 0x6c98 <strcmp>
    1102:	89 2b       	or	r24, r25
    1104:	11 f4       	brne	.+4      	; 0x110a <Get_Select+0x284>
    1106:	03 e2       	ldi	r16, 0x23	; 35
    1108:	10 e0       	ldi	r17, 0x00	; 0
    110a:	67 e0       	ldi	r22, 0x07	; 7
    110c:	75 e0       	ldi	r23, 0x05	; 5
    110e:	ce 01       	movw	r24, r28
    1110:	0e 94 4c 36 	call	0x6c98	; 0x6c98 <strcmp>
    1114:	89 2b       	or	r24, r25
    1116:	11 f4       	brne	.+4      	; 0x111c <Get_Select+0x296>
    1118:	04 e2       	ldi	r16, 0x24	; 36
    111a:	10 e0       	ldi	r17, 0x00	; 0
    111c:	62 e1       	ldi	r22, 0x12	; 18
    111e:	75 e0       	ldi	r23, 0x05	; 5
    1120:	ce 01       	movw	r24, r28
    1122:	0e 94 4c 36 	call	0x6c98	; 0x6c98 <strcmp>
    1126:	89 2b       	or	r24, r25
    1128:	11 f4       	brne	.+4      	; 0x112e <Get_Select+0x2a8>
    112a:	05 e2       	ldi	r16, 0x25	; 37
    112c:	10 e0       	ldi	r17, 0x00	; 0
    112e:	6c e1       	ldi	r22, 0x1C	; 28
    1130:	75 e0       	ldi	r23, 0x05	; 5
    1132:	ce 01       	movw	r24, r28
    1134:	0e 94 4c 36 	call	0x6c98	; 0x6c98 <strcmp>
    1138:	89 2b       	or	r24, r25
    113a:	11 f4       	brne	.+4      	; 0x1140 <Get_Select+0x2ba>
    113c:	06 e2       	ldi	r16, 0x26	; 38
    113e:	10 e0       	ldi	r17, 0x00	; 0
    1140:	68 e2       	ldi	r22, 0x28	; 40
    1142:	75 e0       	ldi	r23, 0x05	; 5
    1144:	ce 01       	movw	r24, r28
    1146:	0e 94 4c 36 	call	0x6c98	; 0x6c98 <strcmp>
    114a:	89 2b       	or	r24, r25
    114c:	11 f4       	brne	.+4      	; 0x1152 <Get_Select+0x2cc>
    114e:	06 e2       	ldi	r16, 0x26	; 38
    1150:	10 e0       	ldi	r17, 0x00	; 0
    1152:	63 e4       	ldi	r22, 0x43	; 67
    1154:	75 e0       	ldi	r23, 0x05	; 5
    1156:	ce 01       	movw	r24, r28
    1158:	0e 94 4c 36 	call	0x6c98	; 0x6c98 <strcmp>
    115c:	89 2b       	or	r24, r25
    115e:	11 f4       	brne	.+4      	; 0x1164 <Get_Select+0x2de>
    1160:	08 e2       	ldi	r16, 0x28	; 40
    1162:	10 e0       	ldi	r17, 0x00	; 0
    1164:	66 e5       	ldi	r22, 0x56	; 86
    1166:	75 e0       	ldi	r23, 0x05	; 5
    1168:	ce 01       	movw	r24, r28
    116a:	0e 94 4c 36 	call	0x6c98	; 0x6c98 <strcmp>
    116e:	89 2b       	or	r24, r25
    1170:	11 f4       	brne	.+4      	; 0x1176 <Get_Select+0x2f0>
    1172:	09 e2       	ldi	r16, 0x29	; 41
    1174:	10 e0       	ldi	r17, 0x00	; 0
    1176:	64 e7       	ldi	r22, 0x74	; 116
    1178:	75 e0       	ldi	r23, 0x05	; 5
    117a:	ce 01       	movw	r24, r28
    117c:	0e 94 4c 36 	call	0x6c98	; 0x6c98 <strcmp>
    1180:	89 2b       	or	r24, r25
    1182:	11 f4       	brne	.+4      	; 0x1188 <Get_Select+0x302>
    1184:	0a e2       	ldi	r16, 0x2A	; 42
    1186:	10 e0       	ldi	r17, 0x00	; 0
    1188:	64 e9       	ldi	r22, 0x94	; 148
    118a:	75 e0       	ldi	r23, 0x05	; 5
    118c:	ce 01       	movw	r24, r28
    118e:	0e 94 4c 36 	call	0x6c98	; 0x6c98 <strcmp>
    1192:	89 2b       	or	r24, r25
    1194:	11 f4       	brne	.+4      	; 0x119a <Get_Select+0x314>
    1196:	0b e2       	ldi	r16, 0x2B	; 43
    1198:	10 e0       	ldi	r17, 0x00	; 0
    119a:	c8 01       	movw	r24, r16
    119c:	df 91       	pop	r29
    119e:	cf 91       	pop	r28
    11a0:	1f 91       	pop	r17
    11a2:	0f 91       	pop	r16
    11a4:	ff 90       	pop	r15
    11a6:	ef 90       	pop	r14
    11a8:	08 95       	ret
    11aa:	02 e0       	ldi	r16, 0x02	; 2
    11ac:	10 e0       	ldi	r17, 0x00	; 0
    11ae:	84 ce       	rjmp	.-760    	; 0xeb8 <Get_Select+0x32>
    11b0:	00 e0       	ldi	r16, 0x00	; 0
    11b2:	82 ce       	rjmp	.-764    	; 0xeb8 <Get_Select+0x32>

000011b4 <Get_ID>:
    11b4:	2c 98       	cbi	0x05, 4	; 5
    11b6:	fc 01       	movw	r30, r24
    11b8:	34 96       	adiw	r30, 0x04	; 4
    11ba:	21 e0       	ldi	r18, 0x01	; 1
    11bc:	30 e0       	ldi	r19, 0x00	; 0
    11be:	1e bc       	out	0x2e, r1	; 46
    11c0:	21 30       	cpi	r18, 0x01	; 1
    11c2:	31 05       	cpc	r19, r1
    11c4:	29 f4       	brne	.+10     	; 0x11d0 <Get_ID+0x1c>
    11c6:	0d b4       	in	r0, 0x2d	; 45
    11c8:	07 fe       	sbrs	r0, 7
    11ca:	fd cf       	rjmp	.-6      	; 0x11c6 <Get_ID+0x12>
    11cc:	8e b5       	in	r24, 0x2e	; 46
    11ce:	08 c0       	rjmp	.+16     	; 0x11e0 <Get_ID+0x2c>
    11d0:	0d b4       	in	r0, 0x2d	; 45
    11d2:	07 fe       	sbrs	r0, 7
    11d4:	fd cf       	rjmp	.-6      	; 0x11d0 <Get_ID+0x1c>
    11d6:	8e b5       	in	r24, 0x2e	; 46
    11d8:	80 83       	st	Z, r24
    11da:	25 30       	cpi	r18, 0x05	; 5
    11dc:	31 05       	cpc	r19, r1
    11de:	21 f0       	breq	.+8      	; 0x11e8 <Get_ID+0x34>
    11e0:	2f 5f       	subi	r18, 0xFF	; 255
    11e2:	3f 4f       	sbci	r19, 0xFF	; 255
    11e4:	31 97       	sbiw	r30, 0x01	; 1
    11e6:	eb cf       	rjmp	.-42     	; 0x11be <Get_ID+0xa>
    11e8:	2c 9a       	sbi	0x05, 4	; 5
    11ea:	08 95       	ret

000011ec <Get_SystemConfiguration>:
    11ec:	2c 98       	cbi	0x05, 4	; 5
    11ee:	fc 01       	movw	r30, r24
    11f0:	34 96       	adiw	r30, 0x04	; 4
    11f2:	21 e0       	ldi	r18, 0x01	; 1
    11f4:	30 e0       	ldi	r19, 0x00	; 0
    11f6:	94 e0       	ldi	r25, 0x04	; 4
    11f8:	21 30       	cpi	r18, 0x01	; 1
    11fa:	31 05       	cpc	r19, r1
    11fc:	59 f4       	brne	.+22     	; 0x1214 <Get_SystemConfiguration+0x28>
    11fe:	9e bd       	out	0x2e, r25	; 46
    1200:	0d b4       	in	r0, 0x2d	; 45
    1202:	07 fe       	sbrs	r0, 7
    1204:	fd cf       	rjmp	.-6      	; 0x1200 <Get_SystemConfiguration+0x14>
    1206:	8e b5       	in	r24, 0x2e	; 46
    1208:	2f 5f       	subi	r18, 0xFF	; 255
    120a:	3f 4f       	sbci	r19, 0xFF	; 255
    120c:	31 97       	sbiw	r30, 0x01	; 1
    120e:	21 30       	cpi	r18, 0x01	; 1
    1210:	31 05       	cpc	r19, r1
    1212:	a9 f3       	breq	.-22     	; 0x11fe <Get_SystemConfiguration+0x12>
    1214:	1e bc       	out	0x2e, r1	; 46
    1216:	0d b4       	in	r0, 0x2d	; 45
    1218:	07 fe       	sbrs	r0, 7
    121a:	fd cf       	rjmp	.-6      	; 0x1216 <Get_SystemConfiguration+0x2a>
    121c:	8e b5       	in	r24, 0x2e	; 46
    121e:	80 83       	st	Z, r24
    1220:	25 30       	cpi	r18, 0x05	; 5
    1222:	31 05       	cpc	r19, r1
    1224:	89 f7       	brne	.-30     	; 0x1208 <Get_SystemConfiguration+0x1c>
    1226:	2c 9a       	sbi	0x05, 4	; 5
    1228:	08 95       	ret

0000122a <Get_SystemTimeCounter>:
    122a:	2c 98       	cbi	0x05, 4	; 5
    122c:	fc 01       	movw	r30, r24
    122e:	34 96       	adiw	r30, 0x04	; 4
    1230:	21 e0       	ldi	r18, 0x01	; 1
    1232:	30 e0       	ldi	r19, 0x00	; 0
    1234:	96 e0       	ldi	r25, 0x06	; 6
    1236:	21 30       	cpi	r18, 0x01	; 1
    1238:	31 05       	cpc	r19, r1
    123a:	59 f4       	brne	.+22     	; 0x1252 <Get_SystemTimeCounter+0x28>
    123c:	9e bd       	out	0x2e, r25	; 46
    123e:	0d b4       	in	r0, 0x2d	; 45
    1240:	07 fe       	sbrs	r0, 7
    1242:	fd cf       	rjmp	.-6      	; 0x123e <Get_SystemTimeCounter+0x14>
    1244:	8e b5       	in	r24, 0x2e	; 46
    1246:	2f 5f       	subi	r18, 0xFF	; 255
    1248:	3f 4f       	sbci	r19, 0xFF	; 255
    124a:	31 97       	sbiw	r30, 0x01	; 1
    124c:	21 30       	cpi	r18, 0x01	; 1
    124e:	31 05       	cpc	r19, r1
    1250:	a9 f3       	breq	.-22     	; 0x123c <Get_SystemTimeCounter+0x12>
    1252:	1e bc       	out	0x2e, r1	; 46
    1254:	0d b4       	in	r0, 0x2d	; 45
    1256:	07 fe       	sbrs	r0, 7
    1258:	fd cf       	rjmp	.-6      	; 0x1254 <Get_SystemTimeCounter+0x2a>
    125a:	8e b5       	in	r24, 0x2e	; 46
    125c:	80 83       	st	Z, r24
    125e:	25 30       	cpi	r18, 0x05	; 5
    1260:	31 05       	cpc	r19, r1
    1262:	89 f7       	brne	.-30     	; 0x1246 <Get_SystemTimeCounter+0x1c>
    1264:	2c 9a       	sbi	0x05, 4	; 5
    1266:	2c 98       	cbi	0x05, 4	; 5
    1268:	fb 01       	movw	r30, r22
    126a:	32 96       	adiw	r30, 0x02	; 2
    126c:	81 e0       	ldi	r24, 0x01	; 1
    126e:	90 e0       	ldi	r25, 0x00	; 0
    1270:	57 e4       	ldi	r21, 0x47	; 71
    1272:	44 e0       	ldi	r20, 0x04	; 4
    1274:	9c 01       	movw	r18, r24
    1276:	21 50       	subi	r18, 0x01	; 1
    1278:	31 09       	sbc	r19, r1
    127a:	71 f0       	breq	.+28     	; 0x1298 <Get_SystemTimeCounter+0x6e>
    127c:	21 30       	cpi	r18, 0x01	; 1
    127e:	31 05       	cpc	r19, r1
    1280:	81 f4       	brne	.+32     	; 0x12a2 <Get_SystemTimeCounter+0x78>
    1282:	4e bd       	out	0x2e, r20	; 46
    1284:	0d b4       	in	r0, 0x2d	; 45
    1286:	07 fe       	sbrs	r0, 7
    1288:	fd cf       	rjmp	.-6      	; 0x1284 <Get_SystemTimeCounter+0x5a>
    128a:	2e b5       	in	r18, 0x2e	; 46
    128c:	01 96       	adiw	r24, 0x01	; 1
    128e:	31 97       	sbiw	r30, 0x01	; 1
    1290:	9c 01       	movw	r18, r24
    1292:	21 50       	subi	r18, 0x01	; 1
    1294:	31 09       	sbc	r19, r1
    1296:	91 f7       	brne	.-28     	; 0x127c <Get_SystemTimeCounter+0x52>
    1298:	5e bd       	out	0x2e, r21	; 46
    129a:	0d b4       	in	r0, 0x2d	; 45
    129c:	07 fe       	sbrs	r0, 7
    129e:	fd cf       	rjmp	.-6      	; 0x129a <Get_SystemTimeCounter+0x70>
    12a0:	f4 cf       	rjmp	.-24     	; 0x128a <Get_SystemTimeCounter+0x60>
    12a2:	1e bc       	out	0x2e, r1	; 46
    12a4:	0d b4       	in	r0, 0x2d	; 45
    12a6:	07 fe       	sbrs	r0, 7
    12a8:	fd cf       	rjmp	.-6      	; 0x12a4 <Get_SystemTimeCounter+0x7a>
    12aa:	2e b5       	in	r18, 0x2e	; 46
    12ac:	20 83       	st	Z, r18
    12ae:	83 30       	cpi	r24, 0x03	; 3
    12b0:	91 05       	cpc	r25, r1
    12b2:	61 f7       	brne	.-40     	; 0x128c <Get_SystemTimeCounter+0x62>
    12b4:	2c 9a       	sbi	0x05, 4	; 5
    12b6:	08 95       	ret

000012b8 <Get_TransmitFrameControl>:
    12b8:	2c 98       	cbi	0x05, 4	; 5
    12ba:	fc 01       	movw	r30, r24
    12bc:	34 96       	adiw	r30, 0x04	; 4
    12be:	21 e0       	ldi	r18, 0x01	; 1
    12c0:	30 e0       	ldi	r19, 0x00	; 0
    12c2:	98 e0       	ldi	r25, 0x08	; 8
    12c4:	21 30       	cpi	r18, 0x01	; 1
    12c6:	31 05       	cpc	r19, r1
    12c8:	59 f4       	brne	.+22     	; 0x12e0 <Get_TransmitFrameControl+0x28>
    12ca:	9e bd       	out	0x2e, r25	; 46
    12cc:	0d b4       	in	r0, 0x2d	; 45
    12ce:	07 fe       	sbrs	r0, 7
    12d0:	fd cf       	rjmp	.-6      	; 0x12cc <Get_TransmitFrameControl+0x14>
    12d2:	8e b5       	in	r24, 0x2e	; 46
    12d4:	2f 5f       	subi	r18, 0xFF	; 255
    12d6:	3f 4f       	sbci	r19, 0xFF	; 255
    12d8:	31 97       	sbiw	r30, 0x01	; 1
    12da:	21 30       	cpi	r18, 0x01	; 1
    12dc:	31 05       	cpc	r19, r1
    12de:	a9 f3       	breq	.-22     	; 0x12ca <Get_TransmitFrameControl+0x12>
    12e0:	1e bc       	out	0x2e, r1	; 46
    12e2:	0d b4       	in	r0, 0x2d	; 45
    12e4:	07 fe       	sbrs	r0, 7
    12e6:	fd cf       	rjmp	.-6      	; 0x12e2 <Get_TransmitFrameControl+0x2a>
    12e8:	8e b5       	in	r24, 0x2e	; 46
    12ea:	80 83       	st	Z, r24
    12ec:	25 30       	cpi	r18, 0x05	; 5
    12ee:	31 05       	cpc	r19, r1
    12f0:	89 f7       	brne	.-30     	; 0x12d4 <Get_TransmitFrameControl+0x1c>
    12f2:	2c 9a       	sbi	0x05, 4	; 5
    12f4:	2c 98       	cbi	0x05, 4	; 5
    12f6:	fb 01       	movw	r30, r22
    12f8:	32 96       	adiw	r30, 0x02	; 2
    12fa:	81 e0       	ldi	r24, 0x01	; 1
    12fc:	90 e0       	ldi	r25, 0x00	; 0
    12fe:	58 e4       	ldi	r21, 0x48	; 72
    1300:	44 e0       	ldi	r20, 0x04	; 4
    1302:	9c 01       	movw	r18, r24
    1304:	21 50       	subi	r18, 0x01	; 1
    1306:	31 09       	sbc	r19, r1
    1308:	71 f0       	breq	.+28     	; 0x1326 <Get_TransmitFrameControl+0x6e>
    130a:	21 30       	cpi	r18, 0x01	; 1
    130c:	31 05       	cpc	r19, r1
    130e:	81 f4       	brne	.+32     	; 0x1330 <Get_TransmitFrameControl+0x78>
    1310:	4e bd       	out	0x2e, r20	; 46
    1312:	0d b4       	in	r0, 0x2d	; 45
    1314:	07 fe       	sbrs	r0, 7
    1316:	fd cf       	rjmp	.-6      	; 0x1312 <Get_TransmitFrameControl+0x5a>
    1318:	2e b5       	in	r18, 0x2e	; 46
    131a:	01 96       	adiw	r24, 0x01	; 1
    131c:	31 97       	sbiw	r30, 0x01	; 1
    131e:	9c 01       	movw	r18, r24
    1320:	21 50       	subi	r18, 0x01	; 1
    1322:	31 09       	sbc	r19, r1
    1324:	91 f7       	brne	.-28     	; 0x130a <Get_TransmitFrameControl+0x52>
    1326:	5e bd       	out	0x2e, r21	; 46
    1328:	0d b4       	in	r0, 0x2d	; 45
    132a:	07 fe       	sbrs	r0, 7
    132c:	fd cf       	rjmp	.-6      	; 0x1328 <Get_TransmitFrameControl+0x70>
    132e:	f4 cf       	rjmp	.-24     	; 0x1318 <Get_TransmitFrameControl+0x60>
    1330:	1e bc       	out	0x2e, r1	; 46
    1332:	0d b4       	in	r0, 0x2d	; 45
    1334:	07 fe       	sbrs	r0, 7
    1336:	fd cf       	rjmp	.-6      	; 0x1332 <Get_TransmitFrameControl+0x7a>
    1338:	2e b5       	in	r18, 0x2e	; 46
    133a:	20 83       	st	Z, r18
    133c:	83 30       	cpi	r24, 0x03	; 3
    133e:	91 05       	cpc	r25, r1
    1340:	61 f7       	brne	.-40     	; 0x131a <Get_TransmitFrameControl+0x62>
    1342:	2c 9a       	sbi	0x05, 4	; 5
    1344:	08 95       	ret

00001346 <Get_ReceiveFrameWaitTimeoutPeriod>:
    1346:	2c 98       	cbi	0x05, 4	; 5
    1348:	fc 01       	movw	r30, r24
    134a:	33 96       	adiw	r30, 0x03	; 3
    134c:	21 e0       	ldi	r18, 0x01	; 1
    134e:	30 e0       	ldi	r19, 0x00	; 0
    1350:	9c e4       	ldi	r25, 0x4C	; 76
    1352:	a9 01       	movw	r20, r18
    1354:	41 50       	subi	r20, 0x01	; 1
    1356:	51 09       	sbc	r21, r1
    1358:	79 f0       	breq	.+30     	; 0x1378 <Get_ReceiveFrameWaitTimeoutPeriod+0x32>
    135a:	41 30       	cpi	r20, 0x01	; 1
    135c:	51 05       	cpc	r21, r1
    135e:	89 f4       	brne	.+34     	; 0x1382 <Get_ReceiveFrameWaitTimeoutPeriod+0x3c>
    1360:	1e bc       	out	0x2e, r1	; 46
    1362:	0d b4       	in	r0, 0x2d	; 45
    1364:	07 fe       	sbrs	r0, 7
    1366:	fd cf       	rjmp	.-6      	; 0x1362 <Get_ReceiveFrameWaitTimeoutPeriod+0x1c>
    1368:	8e b5       	in	r24, 0x2e	; 46
    136a:	2f 5f       	subi	r18, 0xFF	; 255
    136c:	3f 4f       	sbci	r19, 0xFF	; 255
    136e:	31 97       	sbiw	r30, 0x01	; 1
    1370:	a9 01       	movw	r20, r18
    1372:	41 50       	subi	r20, 0x01	; 1
    1374:	51 09       	sbc	r21, r1
    1376:	89 f7       	brne	.-30     	; 0x135a <Get_ReceiveFrameWaitTimeoutPeriod+0x14>
    1378:	9e bd       	out	0x2e, r25	; 46
    137a:	0d b4       	in	r0, 0x2d	; 45
    137c:	07 fe       	sbrs	r0, 7
    137e:	fd cf       	rjmp	.-6      	; 0x137a <Get_ReceiveFrameWaitTimeoutPeriod+0x34>
    1380:	f3 cf       	rjmp	.-26     	; 0x1368 <Get_ReceiveFrameWaitTimeoutPeriod+0x22>
    1382:	1e bc       	out	0x2e, r1	; 46
    1384:	0d b4       	in	r0, 0x2d	; 45
    1386:	07 fe       	sbrs	r0, 7
    1388:	fd cf       	rjmp	.-6      	; 0x1384 <Get_ReceiveFrameWaitTimeoutPeriod+0x3e>
    138a:	8e b5       	in	r24, 0x2e	; 46
    138c:	80 83       	st	Z, r24
    138e:	24 30       	cpi	r18, 0x04	; 4
    1390:	31 05       	cpc	r19, r1
    1392:	59 f7       	brne	.-42     	; 0x136a <Get_ReceiveFrameWaitTimeoutPeriod+0x24>
    1394:	2c 9a       	sbi	0x05, 4	; 5
    1396:	08 95       	ret

00001398 <Get_SystemControlRegister>:
    1398:	2c 98       	cbi	0x05, 4	; 5
    139a:	fc 01       	movw	r30, r24
    139c:	34 96       	adiw	r30, 0x04	; 4
    139e:	21 e0       	ldi	r18, 0x01	; 1
    13a0:	30 e0       	ldi	r19, 0x00	; 0
    13a2:	9d e0       	ldi	r25, 0x0D	; 13
    13a4:	21 30       	cpi	r18, 0x01	; 1
    13a6:	31 05       	cpc	r19, r1
    13a8:	59 f4       	brne	.+22     	; 0x13c0 <Get_SystemControlRegister+0x28>
    13aa:	9e bd       	out	0x2e, r25	; 46
    13ac:	0d b4       	in	r0, 0x2d	; 45
    13ae:	07 fe       	sbrs	r0, 7
    13b0:	fd cf       	rjmp	.-6      	; 0x13ac <Get_SystemControlRegister+0x14>
    13b2:	8e b5       	in	r24, 0x2e	; 46
    13b4:	2f 5f       	subi	r18, 0xFF	; 255
    13b6:	3f 4f       	sbci	r19, 0xFF	; 255
    13b8:	31 97       	sbiw	r30, 0x01	; 1
    13ba:	21 30       	cpi	r18, 0x01	; 1
    13bc:	31 05       	cpc	r19, r1
    13be:	a9 f3       	breq	.-22     	; 0x13aa <Get_SystemControlRegister+0x12>
    13c0:	1e bc       	out	0x2e, r1	; 46
    13c2:	0d b4       	in	r0, 0x2d	; 45
    13c4:	07 fe       	sbrs	r0, 7
    13c6:	fd cf       	rjmp	.-6      	; 0x13c2 <Get_SystemControlRegister+0x2a>
    13c8:	8e b5       	in	r24, 0x2e	; 46
    13ca:	80 83       	st	Z, r24
    13cc:	25 30       	cpi	r18, 0x05	; 5
    13ce:	31 05       	cpc	r19, r1
    13d0:	89 f7       	brne	.-30     	; 0x13b4 <Get_SystemControlRegister+0x1c>
    13d2:	2c 9a       	sbi	0x05, 4	; 5
    13d4:	08 95       	ret

000013d6 <Get_SystemEventMaskRegister>:
    13d6:	2c 98       	cbi	0x05, 4	; 5
    13d8:	fc 01       	movw	r30, r24
    13da:	34 96       	adiw	r30, 0x04	; 4
    13dc:	21 e0       	ldi	r18, 0x01	; 1
    13de:	30 e0       	ldi	r19, 0x00	; 0
    13e0:	9e e0       	ldi	r25, 0x0E	; 14
    13e2:	21 30       	cpi	r18, 0x01	; 1
    13e4:	31 05       	cpc	r19, r1
    13e6:	59 f4       	brne	.+22     	; 0x13fe <Get_SystemEventMaskRegister+0x28>
    13e8:	9e bd       	out	0x2e, r25	; 46
    13ea:	0d b4       	in	r0, 0x2d	; 45
    13ec:	07 fe       	sbrs	r0, 7
    13ee:	fd cf       	rjmp	.-6      	; 0x13ea <Get_SystemEventMaskRegister+0x14>
    13f0:	8e b5       	in	r24, 0x2e	; 46
    13f2:	2f 5f       	subi	r18, 0xFF	; 255
    13f4:	3f 4f       	sbci	r19, 0xFF	; 255
    13f6:	31 97       	sbiw	r30, 0x01	; 1
    13f8:	21 30       	cpi	r18, 0x01	; 1
    13fa:	31 05       	cpc	r19, r1
    13fc:	a9 f3       	breq	.-22     	; 0x13e8 <Get_SystemEventMaskRegister+0x12>
    13fe:	1e bc       	out	0x2e, r1	; 46
    1400:	0d b4       	in	r0, 0x2d	; 45
    1402:	07 fe       	sbrs	r0, 7
    1404:	fd cf       	rjmp	.-6      	; 0x1400 <Get_SystemEventMaskRegister+0x2a>
    1406:	8e b5       	in	r24, 0x2e	; 46
    1408:	80 83       	st	Z, r24
    140a:	25 30       	cpi	r18, 0x05	; 5
    140c:	31 05       	cpc	r19, r1
    140e:	89 f7       	brne	.-30     	; 0x13f2 <Get_SystemEventMaskRegister+0x1c>
    1410:	2c 9a       	sbi	0x05, 4	; 5
    1412:	08 95       	ret

00001414 <Get_SystemEventStatusRegister>:
    1414:	2c 98       	cbi	0x05, 4	; 5
    1416:	fc 01       	movw	r30, r24
    1418:	34 96       	adiw	r30, 0x04	; 4
    141a:	21 e0       	ldi	r18, 0x01	; 1
    141c:	30 e0       	ldi	r19, 0x00	; 0
    141e:	9f e0       	ldi	r25, 0x0F	; 15
    1420:	21 30       	cpi	r18, 0x01	; 1
    1422:	31 05       	cpc	r19, r1
    1424:	59 f4       	brne	.+22     	; 0x143c <Get_SystemEventStatusRegister+0x28>
    1426:	9e bd       	out	0x2e, r25	; 46
    1428:	0d b4       	in	r0, 0x2d	; 45
    142a:	07 fe       	sbrs	r0, 7
    142c:	fd cf       	rjmp	.-6      	; 0x1428 <Get_SystemEventStatusRegister+0x14>
    142e:	8e b5       	in	r24, 0x2e	; 46
    1430:	2f 5f       	subi	r18, 0xFF	; 255
    1432:	3f 4f       	sbci	r19, 0xFF	; 255
    1434:	31 97       	sbiw	r30, 0x01	; 1
    1436:	21 30       	cpi	r18, 0x01	; 1
    1438:	31 05       	cpc	r19, r1
    143a:	a9 f3       	breq	.-22     	; 0x1426 <Get_SystemEventStatusRegister+0x12>
    143c:	1e bc       	out	0x2e, r1	; 46
    143e:	0d b4       	in	r0, 0x2d	; 45
    1440:	07 fe       	sbrs	r0, 7
    1442:	fd cf       	rjmp	.-6      	; 0x143e <Get_SystemEventStatusRegister+0x2a>
    1444:	8e b5       	in	r24, 0x2e	; 46
    1446:	80 83       	st	Z, r24
    1448:	25 30       	cpi	r18, 0x05	; 5
    144a:	31 05       	cpc	r19, r1
    144c:	89 f7       	brne	.-30     	; 0x1430 <Get_SystemEventStatusRegister+0x1c>
    144e:	2c 9a       	sbi	0x05, 4	; 5
    1450:	2c 98       	cbi	0x05, 4	; 5
    1452:	fb 01       	movw	r30, r22
    1454:	32 96       	adiw	r30, 0x02	; 2
    1456:	81 e0       	ldi	r24, 0x01	; 1
    1458:	90 e0       	ldi	r25, 0x00	; 0
    145a:	5f e4       	ldi	r21, 0x4F	; 79
    145c:	44 e0       	ldi	r20, 0x04	; 4
    145e:	9c 01       	movw	r18, r24
    1460:	21 50       	subi	r18, 0x01	; 1
    1462:	31 09       	sbc	r19, r1
    1464:	71 f0       	breq	.+28     	; 0x1482 <Get_SystemEventStatusRegister+0x6e>
    1466:	21 30       	cpi	r18, 0x01	; 1
    1468:	31 05       	cpc	r19, r1
    146a:	81 f4       	brne	.+32     	; 0x148c <Get_SystemEventStatusRegister+0x78>
    146c:	4e bd       	out	0x2e, r20	; 46
    146e:	0d b4       	in	r0, 0x2d	; 45
    1470:	07 fe       	sbrs	r0, 7
    1472:	fd cf       	rjmp	.-6      	; 0x146e <Get_SystemEventStatusRegister+0x5a>
    1474:	2e b5       	in	r18, 0x2e	; 46
    1476:	01 96       	adiw	r24, 0x01	; 1
    1478:	31 97       	sbiw	r30, 0x01	; 1
    147a:	9c 01       	movw	r18, r24
    147c:	21 50       	subi	r18, 0x01	; 1
    147e:	31 09       	sbc	r19, r1
    1480:	91 f7       	brne	.-28     	; 0x1466 <Get_SystemEventStatusRegister+0x52>
    1482:	5e bd       	out	0x2e, r21	; 46
    1484:	0d b4       	in	r0, 0x2d	; 45
    1486:	07 fe       	sbrs	r0, 7
    1488:	fd cf       	rjmp	.-6      	; 0x1484 <Get_SystemEventStatusRegister+0x70>
    148a:	f4 cf       	rjmp	.-24     	; 0x1474 <Get_SystemEventStatusRegister+0x60>
    148c:	1e bc       	out	0x2e, r1	; 46
    148e:	0d b4       	in	r0, 0x2d	; 45
    1490:	07 fe       	sbrs	r0, 7
    1492:	fd cf       	rjmp	.-6      	; 0x148e <Get_SystemEventStatusRegister+0x7a>
    1494:	2e b5       	in	r18, 0x2e	; 46
    1496:	20 83       	st	Z, r18
    1498:	83 30       	cpi	r24, 0x03	; 3
    149a:	91 05       	cpc	r25, r1
    149c:	61 f7       	brne	.-40     	; 0x1476 <Get_SystemEventStatusRegister+0x62>
    149e:	2c 9a       	sbi	0x05, 4	; 5
    14a0:	08 95       	ret

000014a2 <Get_RXFrameInformationRegister>:
    14a2:	2c 98       	cbi	0x05, 4	; 5
    14a4:	fc 01       	movw	r30, r24
    14a6:	34 96       	adiw	r30, 0x04	; 4
    14a8:	21 e0       	ldi	r18, 0x01	; 1
    14aa:	30 e0       	ldi	r19, 0x00	; 0
    14ac:	90 e1       	ldi	r25, 0x10	; 16
    14ae:	21 30       	cpi	r18, 0x01	; 1
    14b0:	31 05       	cpc	r19, r1
    14b2:	59 f4       	brne	.+22     	; 0x14ca <Get_RXFrameInformationRegister+0x28>
    14b4:	9e bd       	out	0x2e, r25	; 46
    14b6:	0d b4       	in	r0, 0x2d	; 45
    14b8:	07 fe       	sbrs	r0, 7
    14ba:	fd cf       	rjmp	.-6      	; 0x14b6 <Get_RXFrameInformationRegister+0x14>
    14bc:	8e b5       	in	r24, 0x2e	; 46
    14be:	2f 5f       	subi	r18, 0xFF	; 255
    14c0:	3f 4f       	sbci	r19, 0xFF	; 255
    14c2:	31 97       	sbiw	r30, 0x01	; 1
    14c4:	21 30       	cpi	r18, 0x01	; 1
    14c6:	31 05       	cpc	r19, r1
    14c8:	a9 f3       	breq	.-22     	; 0x14b4 <Get_RXFrameInformationRegister+0x12>
    14ca:	1e bc       	out	0x2e, r1	; 46
    14cc:	0d b4       	in	r0, 0x2d	; 45
    14ce:	07 fe       	sbrs	r0, 7
    14d0:	fd cf       	rjmp	.-6      	; 0x14cc <Get_RXFrameInformationRegister+0x2a>
    14d2:	8e b5       	in	r24, 0x2e	; 46
    14d4:	80 83       	st	Z, r24
    14d6:	25 30       	cpi	r18, 0x05	; 5
    14d8:	31 05       	cpc	r19, r1
    14da:	89 f7       	brne	.-30     	; 0x14be <Get_RXFrameInformationRegister+0x1c>
    14dc:	2c 9a       	sbi	0x05, 4	; 5
    14de:	08 95       	ret

000014e0 <Get_RXFrameQualityInformation>:
    14e0:	2c 98       	cbi	0x05, 4	; 5
    14e2:	fc 01       	movw	r30, r24
    14e4:	34 96       	adiw	r30, 0x04	; 4
    14e6:	21 e0       	ldi	r18, 0x01	; 1
    14e8:	30 e0       	ldi	r19, 0x00	; 0
    14ea:	92 e1       	ldi	r25, 0x12	; 18
    14ec:	21 30       	cpi	r18, 0x01	; 1
    14ee:	31 05       	cpc	r19, r1
    14f0:	59 f4       	brne	.+22     	; 0x1508 <Get_RXFrameQualityInformation+0x28>
    14f2:	9e bd       	out	0x2e, r25	; 46
    14f4:	0d b4       	in	r0, 0x2d	; 45
    14f6:	07 fe       	sbrs	r0, 7
    14f8:	fd cf       	rjmp	.-6      	; 0x14f4 <Get_RXFrameQualityInformation+0x14>
    14fa:	8e b5       	in	r24, 0x2e	; 46
    14fc:	2f 5f       	subi	r18, 0xFF	; 255
    14fe:	3f 4f       	sbci	r19, 0xFF	; 255
    1500:	31 97       	sbiw	r30, 0x01	; 1
    1502:	21 30       	cpi	r18, 0x01	; 1
    1504:	31 05       	cpc	r19, r1
    1506:	a9 f3       	breq	.-22     	; 0x14f2 <Get_RXFrameQualityInformation+0x12>
    1508:	1e bc       	out	0x2e, r1	; 46
    150a:	0d b4       	in	r0, 0x2d	; 45
    150c:	07 fe       	sbrs	r0, 7
    150e:	fd cf       	rjmp	.-6      	; 0x150a <Get_RXFrameQualityInformation+0x2a>
    1510:	8e b5       	in	r24, 0x2e	; 46
    1512:	80 83       	st	Z, r24
    1514:	25 30       	cpi	r18, 0x05	; 5
    1516:	31 05       	cpc	r19, r1
    1518:	89 f7       	brne	.-30     	; 0x14fc <Get_RXFrameQualityInformation+0x1c>
    151a:	2c 9a       	sbi	0x05, 4	; 5
    151c:	2c 98       	cbi	0x05, 4	; 5
    151e:	fb 01       	movw	r30, r22
    1520:	35 96       	adiw	r30, 0x05	; 5
    1522:	81 e0       	ldi	r24, 0x01	; 1
    1524:	90 e0       	ldi	r25, 0x00	; 0
    1526:	52 e5       	ldi	r21, 0x52	; 82
    1528:	44 e0       	ldi	r20, 0x04	; 4
    152a:	9c 01       	movw	r18, r24
    152c:	21 50       	subi	r18, 0x01	; 1
    152e:	31 09       	sbc	r19, r1
    1530:	71 f0       	breq	.+28     	; 0x154e <Get_RXFrameQualityInformation+0x6e>
    1532:	21 30       	cpi	r18, 0x01	; 1
    1534:	31 05       	cpc	r19, r1
    1536:	81 f4       	brne	.+32     	; 0x1558 <Get_RXFrameQualityInformation+0x78>
    1538:	4e bd       	out	0x2e, r20	; 46
    153a:	0d b4       	in	r0, 0x2d	; 45
    153c:	07 fe       	sbrs	r0, 7
    153e:	fd cf       	rjmp	.-6      	; 0x153a <Get_RXFrameQualityInformation+0x5a>
    1540:	2e b5       	in	r18, 0x2e	; 46
    1542:	01 96       	adiw	r24, 0x01	; 1
    1544:	31 97       	sbiw	r30, 0x01	; 1
    1546:	9c 01       	movw	r18, r24
    1548:	21 50       	subi	r18, 0x01	; 1
    154a:	31 09       	sbc	r19, r1
    154c:	91 f7       	brne	.-28     	; 0x1532 <Get_RXFrameQualityInformation+0x52>
    154e:	5e bd       	out	0x2e, r21	; 46
    1550:	0d b4       	in	r0, 0x2d	; 45
    1552:	07 fe       	sbrs	r0, 7
    1554:	fd cf       	rjmp	.-6      	; 0x1550 <Get_RXFrameQualityInformation+0x70>
    1556:	f4 cf       	rjmp	.-24     	; 0x1540 <Get_RXFrameQualityInformation+0x60>
    1558:	1e bc       	out	0x2e, r1	; 46
    155a:	0d b4       	in	r0, 0x2d	; 45
    155c:	07 fe       	sbrs	r0, 7
    155e:	fd cf       	rjmp	.-6      	; 0x155a <Get_RXFrameQualityInformation+0x7a>
    1560:	2e b5       	in	r18, 0x2e	; 46
    1562:	20 83       	st	Z, r18
    1564:	86 30       	cpi	r24, 0x06	; 6
    1566:	91 05       	cpc	r25, r1
    1568:	61 f7       	brne	.-40     	; 0x1542 <Get_RXFrameQualityInformation+0x62>
    156a:	2c 9a       	sbi	0x05, 4	; 5
    156c:	08 95       	ret

0000156e <Get_ReceiverTimeTrackingInterval>:
    156e:	2c 98       	cbi	0x05, 4	; 5
    1570:	fc 01       	movw	r30, r24
    1572:	34 96       	adiw	r30, 0x04	; 4
    1574:	21 e0       	ldi	r18, 0x01	; 1
    1576:	30 e0       	ldi	r19, 0x00	; 0
    1578:	93 e1       	ldi	r25, 0x13	; 19
    157a:	21 30       	cpi	r18, 0x01	; 1
    157c:	31 05       	cpc	r19, r1
    157e:	59 f4       	brne	.+22     	; 0x1596 <Get_ReceiverTimeTrackingInterval+0x28>
    1580:	9e bd       	out	0x2e, r25	; 46
    1582:	0d b4       	in	r0, 0x2d	; 45
    1584:	07 fe       	sbrs	r0, 7
    1586:	fd cf       	rjmp	.-6      	; 0x1582 <Get_ReceiverTimeTrackingInterval+0x14>
    1588:	8e b5       	in	r24, 0x2e	; 46
    158a:	2f 5f       	subi	r18, 0xFF	; 255
    158c:	3f 4f       	sbci	r19, 0xFF	; 255
    158e:	31 97       	sbiw	r30, 0x01	; 1
    1590:	21 30       	cpi	r18, 0x01	; 1
    1592:	31 05       	cpc	r19, r1
    1594:	a9 f3       	breq	.-22     	; 0x1580 <Get_ReceiverTimeTrackingInterval+0x12>
    1596:	1e bc       	out	0x2e, r1	; 46
    1598:	0d b4       	in	r0, 0x2d	; 45
    159a:	07 fe       	sbrs	r0, 7
    159c:	fd cf       	rjmp	.-6      	; 0x1598 <Get_ReceiverTimeTrackingInterval+0x2a>
    159e:	8e b5       	in	r24, 0x2e	; 46
    15a0:	80 83       	st	Z, r24
    15a2:	25 30       	cpi	r18, 0x05	; 5
    15a4:	31 05       	cpc	r19, r1
    15a6:	89 f7       	brne	.-30     	; 0x158a <Get_ReceiverTimeTrackingInterval+0x1c>
    15a8:	2c 9a       	sbi	0x05, 4	; 5
    15aa:	08 95       	ret

000015ac <Get_ReceiverTimeTrackingOffset>:
    15ac:	2c 98       	cbi	0x05, 4	; 5
    15ae:	fc 01       	movw	r30, r24
    15b0:	34 96       	adiw	r30, 0x04	; 4
    15b2:	21 e0       	ldi	r18, 0x01	; 1
    15b4:	30 e0       	ldi	r19, 0x00	; 0
    15b6:	94 e1       	ldi	r25, 0x14	; 20
    15b8:	21 30       	cpi	r18, 0x01	; 1
    15ba:	31 05       	cpc	r19, r1
    15bc:	59 f4       	brne	.+22     	; 0x15d4 <Get_ReceiverTimeTrackingOffset+0x28>
    15be:	9e bd       	out	0x2e, r25	; 46
    15c0:	0d b4       	in	r0, 0x2d	; 45
    15c2:	07 fe       	sbrs	r0, 7
    15c4:	fd cf       	rjmp	.-6      	; 0x15c0 <Get_ReceiverTimeTrackingOffset+0x14>
    15c6:	8e b5       	in	r24, 0x2e	; 46
    15c8:	2f 5f       	subi	r18, 0xFF	; 255
    15ca:	3f 4f       	sbci	r19, 0xFF	; 255
    15cc:	31 97       	sbiw	r30, 0x01	; 1
    15ce:	21 30       	cpi	r18, 0x01	; 1
    15d0:	31 05       	cpc	r19, r1
    15d2:	a9 f3       	breq	.-22     	; 0x15be <Get_ReceiverTimeTrackingOffset+0x12>
    15d4:	1e bc       	out	0x2e, r1	; 46
    15d6:	0d b4       	in	r0, 0x2d	; 45
    15d8:	07 fe       	sbrs	r0, 7
    15da:	fd cf       	rjmp	.-6      	; 0x15d6 <Get_ReceiverTimeTrackingOffset+0x2a>
    15dc:	8e b5       	in	r24, 0x2e	; 46
    15de:	80 83       	st	Z, r24
    15e0:	25 30       	cpi	r18, 0x05	; 5
    15e2:	31 05       	cpc	r19, r1
    15e4:	89 f7       	brne	.-30     	; 0x15c8 <Get_ReceiverTimeTrackingOffset+0x1c>
    15e6:	2c 9a       	sbi	0x05, 4	; 5
    15e8:	2c 98       	cbi	0x05, 4	; 5
    15ea:	fb 01       	movw	r30, r22
    15ec:	32 96       	adiw	r30, 0x02	; 2
    15ee:	81 e0       	ldi	r24, 0x01	; 1
    15f0:	90 e0       	ldi	r25, 0x00	; 0
    15f2:	54 e5       	ldi	r21, 0x54	; 84
    15f4:	44 e0       	ldi	r20, 0x04	; 4
    15f6:	9c 01       	movw	r18, r24
    15f8:	21 50       	subi	r18, 0x01	; 1
    15fa:	31 09       	sbc	r19, r1
    15fc:	71 f0       	breq	.+28     	; 0x161a <Get_ReceiverTimeTrackingOffset+0x6e>
    15fe:	21 30       	cpi	r18, 0x01	; 1
    1600:	31 05       	cpc	r19, r1
    1602:	81 f4       	brne	.+32     	; 0x1624 <Get_ReceiverTimeTrackingOffset+0x78>
    1604:	4e bd       	out	0x2e, r20	; 46
    1606:	0d b4       	in	r0, 0x2d	; 45
    1608:	07 fe       	sbrs	r0, 7
    160a:	fd cf       	rjmp	.-6      	; 0x1606 <Get_ReceiverTimeTrackingOffset+0x5a>
    160c:	2e b5       	in	r18, 0x2e	; 46
    160e:	01 96       	adiw	r24, 0x01	; 1
    1610:	31 97       	sbiw	r30, 0x01	; 1
    1612:	9c 01       	movw	r18, r24
    1614:	21 50       	subi	r18, 0x01	; 1
    1616:	31 09       	sbc	r19, r1
    1618:	91 f7       	brne	.-28     	; 0x15fe <Get_ReceiverTimeTrackingOffset+0x52>
    161a:	5e bd       	out	0x2e, r21	; 46
    161c:	0d b4       	in	r0, 0x2d	; 45
    161e:	07 fe       	sbrs	r0, 7
    1620:	fd cf       	rjmp	.-6      	; 0x161c <Get_ReceiverTimeTrackingOffset+0x70>
    1622:	f4 cf       	rjmp	.-24     	; 0x160c <Get_ReceiverTimeTrackingOffset+0x60>
    1624:	1e bc       	out	0x2e, r1	; 46
    1626:	0d b4       	in	r0, 0x2d	; 45
    1628:	07 fe       	sbrs	r0, 7
    162a:	fd cf       	rjmp	.-6      	; 0x1626 <Get_ReceiverTimeTrackingOffset+0x7a>
    162c:	2e b5       	in	r18, 0x2e	; 46
    162e:	20 83       	st	Z, r18
    1630:	83 30       	cpi	r24, 0x03	; 3
    1632:	91 05       	cpc	r25, r1
    1634:	61 f7       	brne	.-40     	; 0x160e <Get_ReceiverTimeTrackingOffset+0x62>
    1636:	2c 9a       	sbi	0x05, 4	; 5
    1638:	08 95       	ret

0000163a <Get_FastReceiveTimeStamp>:
    163a:	dc 01       	movw	r26, r24
    163c:	8f b7       	in	r24, 0x3f	; 63
    163e:	f8 94       	cli
    1640:	2c 98       	cbi	0x05, 4	; 5
    1642:	fd 01       	movw	r30, r26
    1644:	35 96       	adiw	r30, 0x05	; 5
    1646:	21 e0       	ldi	r18, 0x01	; 1
    1648:	30 e0       	ldi	r19, 0x00	; 0
    164a:	45 e1       	ldi	r20, 0x15	; 21
    164c:	21 30       	cpi	r18, 0x01	; 1
    164e:	31 05       	cpc	r19, r1
    1650:	59 f4       	brne	.+22     	; 0x1668 <Get_FastReceiveTimeStamp+0x2e>
    1652:	4e bd       	out	0x2e, r20	; 46
    1654:	0d b4       	in	r0, 0x2d	; 45
    1656:	07 fe       	sbrs	r0, 7
    1658:	fd cf       	rjmp	.-6      	; 0x1654 <Get_FastReceiveTimeStamp+0x1a>
    165a:	9e b5       	in	r25, 0x2e	; 46
    165c:	2f 5f       	subi	r18, 0xFF	; 255
    165e:	3f 4f       	sbci	r19, 0xFF	; 255
    1660:	31 97       	sbiw	r30, 0x01	; 1
    1662:	21 30       	cpi	r18, 0x01	; 1
    1664:	31 05       	cpc	r19, r1
    1666:	a9 f3       	breq	.-22     	; 0x1652 <Get_FastReceiveTimeStamp+0x18>
    1668:	1e bc       	out	0x2e, r1	; 46
    166a:	0d b4       	in	r0, 0x2d	; 45
    166c:	07 fe       	sbrs	r0, 7
    166e:	fd cf       	rjmp	.-6      	; 0x166a <Get_FastReceiveTimeStamp+0x30>
    1670:	9e b5       	in	r25, 0x2e	; 46
    1672:	90 83       	st	Z, r25
    1674:	25 30       	cpi	r18, 0x05	; 5
    1676:	31 05       	cpc	r19, r1
    1678:	89 f7       	brne	.-30     	; 0x165c <Get_FastReceiveTimeStamp+0x22>
    167a:	2c 9a       	sbi	0x05, 4	; 5
    167c:	2c 98       	cbi	0x05, 4	; 5
    167e:	21 e0       	ldi	r18, 0x01	; 1
    1680:	30 e0       	ldi	r19, 0x00	; 0
    1682:	65 e5       	ldi	r22, 0x55	; 85
    1684:	94 e0       	ldi	r25, 0x04	; 4
    1686:	a9 01       	movw	r20, r18
    1688:	41 50       	subi	r20, 0x01	; 1
    168a:	51 09       	sbc	r21, r1
    168c:	71 f0       	breq	.+28     	; 0x16aa <Get_FastReceiveTimeStamp+0x70>
    168e:	41 30       	cpi	r20, 0x01	; 1
    1690:	51 05       	cpc	r21, r1
    1692:	81 f4       	brne	.+32     	; 0x16b4 <Get_FastReceiveTimeStamp+0x7a>
    1694:	9e bd       	out	0x2e, r25	; 46
    1696:	0d b4       	in	r0, 0x2d	; 45
    1698:	07 fe       	sbrs	r0, 7
    169a:	fd cf       	rjmp	.-6      	; 0x1696 <Get_FastReceiveTimeStamp+0x5c>
    169c:	4e b5       	in	r20, 0x2e	; 46
    169e:	2f 5f       	subi	r18, 0xFF	; 255
    16a0:	3f 4f       	sbci	r19, 0xFF	; 255
    16a2:	a9 01       	movw	r20, r18
    16a4:	41 50       	subi	r20, 0x01	; 1
    16a6:	51 09       	sbc	r21, r1
    16a8:	91 f7       	brne	.-28     	; 0x168e <Get_FastReceiveTimeStamp+0x54>
    16aa:	6e bd       	out	0x2e, r22	; 46
    16ac:	0d b4       	in	r0, 0x2d	; 45
    16ae:	07 fe       	sbrs	r0, 7
    16b0:	fd cf       	rjmp	.-6      	; 0x16ac <Get_FastReceiveTimeStamp+0x72>
    16b2:	f4 cf       	rjmp	.-24     	; 0x169c <Get_FastReceiveTimeStamp+0x62>
    16b4:	1e bc       	out	0x2e, r1	; 46
    16b6:	0d b4       	in	r0, 0x2d	; 45
    16b8:	07 fe       	sbrs	r0, 7
    16ba:	fd cf       	rjmp	.-6      	; 0x16b6 <Get_FastReceiveTimeStamp+0x7c>
    16bc:	4e b5       	in	r20, 0x2e	; 46
    16be:	4c 93       	st	X, r20
    16c0:	23 30       	cpi	r18, 0x03	; 3
    16c2:	31 05       	cpc	r19, r1
    16c4:	61 f7       	brne	.-40     	; 0x169e <Get_FastReceiveTimeStamp+0x64>
    16c6:	2c 9a       	sbi	0x05, 4	; 5
    16c8:	8f bf       	out	0x3f, r24	; 63
    16ca:	08 95       	ret

000016cc <Get_ReceiveTimeStamp>:
    16cc:	cf 93       	push	r28
    16ce:	2c 98       	cbi	0x05, 4	; 5
    16d0:	dc 01       	movw	r26, r24
    16d2:	14 96       	adiw	r26, 0x04	; 4
    16d4:	e1 e0       	ldi	r30, 0x01	; 1
    16d6:	f0 e0       	ldi	r31, 0x00	; 0
    16d8:	95 e1       	ldi	r25, 0x15	; 21
    16da:	e1 30       	cpi	r30, 0x01	; 1
    16dc:	f1 05       	cpc	r31, r1
    16de:	51 f4       	brne	.+20     	; 0x16f4 <Get_ReceiveTimeStamp+0x28>
    16e0:	9e bd       	out	0x2e, r25	; 46
    16e2:	0d b4       	in	r0, 0x2d	; 45
    16e4:	07 fe       	sbrs	r0, 7
    16e6:	fd cf       	rjmp	.-6      	; 0x16e2 <Get_ReceiveTimeStamp+0x16>
    16e8:	8e b5       	in	r24, 0x2e	; 46
    16ea:	31 96       	adiw	r30, 0x01	; 1
    16ec:	11 97       	sbiw	r26, 0x01	; 1
    16ee:	e1 30       	cpi	r30, 0x01	; 1
    16f0:	f1 05       	cpc	r31, r1
    16f2:	b1 f3       	breq	.-20     	; 0x16e0 <Get_ReceiveTimeStamp+0x14>
    16f4:	1e bc       	out	0x2e, r1	; 46
    16f6:	0d b4       	in	r0, 0x2d	; 45
    16f8:	07 fe       	sbrs	r0, 7
    16fa:	fd cf       	rjmp	.-6      	; 0x16f6 <Get_ReceiveTimeStamp+0x2a>
    16fc:	8e b5       	in	r24, 0x2e	; 46
    16fe:	8c 93       	st	X, r24
    1700:	e5 30       	cpi	r30, 0x05	; 5
    1702:	f1 05       	cpc	r31, r1
    1704:	91 f7       	brne	.-28     	; 0x16ea <Get_ReceiveTimeStamp+0x1e>
    1706:	2c 9a       	sbi	0x05, 4	; 5
    1708:	2c 98       	cbi	0x05, 4	; 5
    170a:	db 01       	movw	r26, r22
    170c:	15 96       	adiw	r26, 0x05	; 5
    170e:	81 e0       	ldi	r24, 0x01	; 1
    1710:	90 e0       	ldi	r25, 0x00	; 0
    1712:	c5 e5       	ldi	r28, 0x55	; 85
    1714:	74 e0       	ldi	r23, 0x04	; 4
    1716:	fc 01       	movw	r30, r24
    1718:	31 97       	sbiw	r30, 0x01	; 1
    171a:	61 f0       	breq	.+24     	; 0x1734 <Get_ReceiveTimeStamp+0x68>
    171c:	31 97       	sbiw	r30, 0x01	; 1
    171e:	79 f4       	brne	.+30     	; 0x173e <Get_ReceiveTimeStamp+0x72>
    1720:	7e bd       	out	0x2e, r23	; 46
    1722:	0d b4       	in	r0, 0x2d	; 45
    1724:	07 fe       	sbrs	r0, 7
    1726:	fd cf       	rjmp	.-6      	; 0x1722 <Get_ReceiveTimeStamp+0x56>
    1728:	6e b5       	in	r22, 0x2e	; 46
    172a:	01 96       	adiw	r24, 0x01	; 1
    172c:	11 97       	sbiw	r26, 0x01	; 1
    172e:	fc 01       	movw	r30, r24
    1730:	31 97       	sbiw	r30, 0x01	; 1
    1732:	a1 f7       	brne	.-24     	; 0x171c <Get_ReceiveTimeStamp+0x50>
    1734:	ce bd       	out	0x2e, r28	; 46
    1736:	0d b4       	in	r0, 0x2d	; 45
    1738:	07 fe       	sbrs	r0, 7
    173a:	fd cf       	rjmp	.-6      	; 0x1736 <Get_ReceiveTimeStamp+0x6a>
    173c:	f5 cf       	rjmp	.-22     	; 0x1728 <Get_ReceiveTimeStamp+0x5c>
    173e:	1e bc       	out	0x2e, r1	; 46
    1740:	0d b4       	in	r0, 0x2d	; 45
    1742:	07 fe       	sbrs	r0, 7
    1744:	fd cf       	rjmp	.-6      	; 0x1740 <Get_ReceiveTimeStamp+0x74>
    1746:	6e b5       	in	r22, 0x2e	; 46
    1748:	6c 93       	st	X, r22
    174a:	86 30       	cpi	r24, 0x06	; 6
    174c:	91 05       	cpc	r25, r1
    174e:	69 f7       	brne	.-38     	; 0x172a <Get_ReceiveTimeStamp+0x5e>
    1750:	2c 9a       	sbi	0x05, 4	; 5
    1752:	2c 98       	cbi	0x05, 4	; 5
    1754:	fa 01       	movw	r30, r20
    1756:	35 96       	adiw	r30, 0x05	; 5
    1758:	81 e0       	ldi	r24, 0x01	; 1
    175a:	90 e0       	ldi	r25, 0x00	; 0
    175c:	a5 e5       	ldi	r26, 0x55	; 85
    175e:	58 e0       	ldi	r21, 0x08	; 8
    1760:	bc 01       	movw	r22, r24
    1762:	61 50       	subi	r22, 0x01	; 1
    1764:	71 09       	sbc	r23, r1
    1766:	71 f0       	breq	.+28     	; 0x1784 <Get_ReceiveTimeStamp+0xb8>
    1768:	61 30       	cpi	r22, 0x01	; 1
    176a:	71 05       	cpc	r23, r1
    176c:	81 f4       	brne	.+32     	; 0x178e <Get_ReceiveTimeStamp+0xc2>
    176e:	5e bd       	out	0x2e, r21	; 46
    1770:	0d b4       	in	r0, 0x2d	; 45
    1772:	07 fe       	sbrs	r0, 7
    1774:	fd cf       	rjmp	.-6      	; 0x1770 <Get_ReceiveTimeStamp+0xa4>
    1776:	4e b5       	in	r20, 0x2e	; 46
    1778:	01 96       	adiw	r24, 0x01	; 1
    177a:	31 97       	sbiw	r30, 0x01	; 1
    177c:	bc 01       	movw	r22, r24
    177e:	61 50       	subi	r22, 0x01	; 1
    1780:	71 09       	sbc	r23, r1
    1782:	91 f7       	brne	.-28     	; 0x1768 <Get_ReceiveTimeStamp+0x9c>
    1784:	ae bd       	out	0x2e, r26	; 46
    1786:	0d b4       	in	r0, 0x2d	; 45
    1788:	07 fe       	sbrs	r0, 7
    178a:	fd cf       	rjmp	.-6      	; 0x1786 <Get_ReceiveTimeStamp+0xba>
    178c:	f4 cf       	rjmp	.-24     	; 0x1776 <Get_ReceiveTimeStamp+0xaa>
    178e:	1e bc       	out	0x2e, r1	; 46
    1790:	0d b4       	in	r0, 0x2d	; 45
    1792:	07 fe       	sbrs	r0, 7
    1794:	fd cf       	rjmp	.-6      	; 0x1790 <Get_ReceiveTimeStamp+0xc4>
    1796:	4e b5       	in	r20, 0x2e	; 46
    1798:	40 83       	st	Z, r20
    179a:	86 30       	cpi	r24, 0x06	; 6
    179c:	91 05       	cpc	r25, r1
    179e:	61 f7       	brne	.-40     	; 0x1778 <Get_ReceiveTimeStamp+0xac>
    17a0:	2c 9a       	sbi	0x05, 4	; 5
    17a2:	2c 98       	cbi	0x05, 4	; 5
    17a4:	f9 01       	movw	r30, r18
    17a6:	33 96       	adiw	r30, 0x03	; 3
    17a8:	81 e0       	ldi	r24, 0x01	; 1
    17aa:	90 e0       	ldi	r25, 0x00	; 0
    17ac:	65 e5       	ldi	r22, 0x55	; 85
    17ae:	3c e0       	ldi	r19, 0x0C	; 12
    17b0:	ac 01       	movw	r20, r24
    17b2:	41 50       	subi	r20, 0x01	; 1
    17b4:	51 09       	sbc	r21, r1
    17b6:	71 f0       	breq	.+28     	; 0x17d4 <Get_ReceiveTimeStamp+0x108>
    17b8:	41 30       	cpi	r20, 0x01	; 1
    17ba:	51 05       	cpc	r21, r1
    17bc:	81 f4       	brne	.+32     	; 0x17de <Get_ReceiveTimeStamp+0x112>
    17be:	3e bd       	out	0x2e, r19	; 46
    17c0:	0d b4       	in	r0, 0x2d	; 45
    17c2:	07 fe       	sbrs	r0, 7
    17c4:	fd cf       	rjmp	.-6      	; 0x17c0 <Get_ReceiveTimeStamp+0xf4>
    17c6:	2e b5       	in	r18, 0x2e	; 46
    17c8:	01 96       	adiw	r24, 0x01	; 1
    17ca:	31 97       	sbiw	r30, 0x01	; 1
    17cc:	ac 01       	movw	r20, r24
    17ce:	41 50       	subi	r20, 0x01	; 1
    17d0:	51 09       	sbc	r21, r1
    17d2:	91 f7       	brne	.-28     	; 0x17b8 <Get_ReceiveTimeStamp+0xec>
    17d4:	6e bd       	out	0x2e, r22	; 46
    17d6:	0d b4       	in	r0, 0x2d	; 45
    17d8:	07 fe       	sbrs	r0, 7
    17da:	fd cf       	rjmp	.-6      	; 0x17d6 <Get_ReceiveTimeStamp+0x10a>
    17dc:	f4 cf       	rjmp	.-24     	; 0x17c6 <Get_ReceiveTimeStamp+0xfa>
    17de:	1e bc       	out	0x2e, r1	; 46
    17e0:	0d b4       	in	r0, 0x2d	; 45
    17e2:	07 fe       	sbrs	r0, 7
    17e4:	fd cf       	rjmp	.-6      	; 0x17e0 <Get_ReceiveTimeStamp+0x114>
    17e6:	2e b5       	in	r18, 0x2e	; 46
    17e8:	20 83       	st	Z, r18
    17ea:	84 30       	cpi	r24, 0x04	; 4
    17ec:	91 05       	cpc	r25, r1
    17ee:	61 f7       	brne	.-40     	; 0x17c8 <Get_ReceiveTimeStamp+0xfc>
    17f0:	2c 9a       	sbi	0x05, 4	; 5
    17f2:	cf 91       	pop	r28
    17f4:	08 95       	ret

000017f6 <Get_FastTransmitTimeStamp>:
    17f6:	dc 01       	movw	r26, r24
    17f8:	8f b7       	in	r24, 0x3f	; 63
    17fa:	f8 94       	cli
    17fc:	2c 98       	cbi	0x05, 4	; 5
    17fe:	fd 01       	movw	r30, r26
    1800:	35 96       	adiw	r30, 0x05	; 5
    1802:	21 e0       	ldi	r18, 0x01	; 1
    1804:	30 e0       	ldi	r19, 0x00	; 0
    1806:	47 e1       	ldi	r20, 0x17	; 23
    1808:	21 30       	cpi	r18, 0x01	; 1
    180a:	31 05       	cpc	r19, r1
    180c:	59 f4       	brne	.+22     	; 0x1824 <Get_FastTransmitTimeStamp+0x2e>
    180e:	4e bd       	out	0x2e, r20	; 46
    1810:	0d b4       	in	r0, 0x2d	; 45
    1812:	07 fe       	sbrs	r0, 7
    1814:	fd cf       	rjmp	.-6      	; 0x1810 <Get_FastTransmitTimeStamp+0x1a>
    1816:	9e b5       	in	r25, 0x2e	; 46
    1818:	2f 5f       	subi	r18, 0xFF	; 255
    181a:	3f 4f       	sbci	r19, 0xFF	; 255
    181c:	31 97       	sbiw	r30, 0x01	; 1
    181e:	21 30       	cpi	r18, 0x01	; 1
    1820:	31 05       	cpc	r19, r1
    1822:	a9 f3       	breq	.-22     	; 0x180e <Get_FastTransmitTimeStamp+0x18>
    1824:	1e bc       	out	0x2e, r1	; 46
    1826:	0d b4       	in	r0, 0x2d	; 45
    1828:	07 fe       	sbrs	r0, 7
    182a:	fd cf       	rjmp	.-6      	; 0x1826 <Get_FastTransmitTimeStamp+0x30>
    182c:	9e b5       	in	r25, 0x2e	; 46
    182e:	90 83       	st	Z, r25
    1830:	25 30       	cpi	r18, 0x05	; 5
    1832:	31 05       	cpc	r19, r1
    1834:	89 f7       	brne	.-30     	; 0x1818 <Get_FastTransmitTimeStamp+0x22>
    1836:	2c 9a       	sbi	0x05, 4	; 5
    1838:	2c 98       	cbi	0x05, 4	; 5
    183a:	21 e0       	ldi	r18, 0x01	; 1
    183c:	30 e0       	ldi	r19, 0x00	; 0
    183e:	67 e5       	ldi	r22, 0x57	; 87
    1840:	94 e0       	ldi	r25, 0x04	; 4
    1842:	a9 01       	movw	r20, r18
    1844:	41 50       	subi	r20, 0x01	; 1
    1846:	51 09       	sbc	r21, r1
    1848:	71 f0       	breq	.+28     	; 0x1866 <Get_FastTransmitTimeStamp+0x70>
    184a:	41 30       	cpi	r20, 0x01	; 1
    184c:	51 05       	cpc	r21, r1
    184e:	81 f4       	brne	.+32     	; 0x1870 <Get_FastTransmitTimeStamp+0x7a>
    1850:	9e bd       	out	0x2e, r25	; 46
    1852:	0d b4       	in	r0, 0x2d	; 45
    1854:	07 fe       	sbrs	r0, 7
    1856:	fd cf       	rjmp	.-6      	; 0x1852 <Get_FastTransmitTimeStamp+0x5c>
    1858:	4e b5       	in	r20, 0x2e	; 46
    185a:	2f 5f       	subi	r18, 0xFF	; 255
    185c:	3f 4f       	sbci	r19, 0xFF	; 255
    185e:	a9 01       	movw	r20, r18
    1860:	41 50       	subi	r20, 0x01	; 1
    1862:	51 09       	sbc	r21, r1
    1864:	91 f7       	brne	.-28     	; 0x184a <Get_FastTransmitTimeStamp+0x54>
    1866:	6e bd       	out	0x2e, r22	; 46
    1868:	0d b4       	in	r0, 0x2d	; 45
    186a:	07 fe       	sbrs	r0, 7
    186c:	fd cf       	rjmp	.-6      	; 0x1868 <Get_FastTransmitTimeStamp+0x72>
    186e:	f4 cf       	rjmp	.-24     	; 0x1858 <Get_FastTransmitTimeStamp+0x62>
    1870:	1e bc       	out	0x2e, r1	; 46
    1872:	0d b4       	in	r0, 0x2d	; 45
    1874:	07 fe       	sbrs	r0, 7
    1876:	fd cf       	rjmp	.-6      	; 0x1872 <Get_FastTransmitTimeStamp+0x7c>
    1878:	4e b5       	in	r20, 0x2e	; 46
    187a:	4c 93       	st	X, r20
    187c:	23 30       	cpi	r18, 0x03	; 3
    187e:	31 05       	cpc	r19, r1
    1880:	61 f7       	brne	.-40     	; 0x185a <Get_FastTransmitTimeStamp+0x64>
    1882:	2c 9a       	sbi	0x05, 4	; 5
    1884:	8f bf       	out	0x3f, r24	; 63
    1886:	08 95       	ret

00001888 <Get_TransmitTimeStamp>:
    1888:	2c 98       	cbi	0x05, 4	; 5
    188a:	fc 01       	movw	r30, r24
    188c:	34 96       	adiw	r30, 0x04	; 4
    188e:	21 e0       	ldi	r18, 0x01	; 1
    1890:	30 e0       	ldi	r19, 0x00	; 0
    1892:	97 e1       	ldi	r25, 0x17	; 23
    1894:	21 30       	cpi	r18, 0x01	; 1
    1896:	31 05       	cpc	r19, r1
    1898:	59 f4       	brne	.+22     	; 0x18b0 <Get_TransmitTimeStamp+0x28>
    189a:	9e bd       	out	0x2e, r25	; 46
    189c:	0d b4       	in	r0, 0x2d	; 45
    189e:	07 fe       	sbrs	r0, 7
    18a0:	fd cf       	rjmp	.-6      	; 0x189c <Get_TransmitTimeStamp+0x14>
    18a2:	8e b5       	in	r24, 0x2e	; 46
    18a4:	2f 5f       	subi	r18, 0xFF	; 255
    18a6:	3f 4f       	sbci	r19, 0xFF	; 255
    18a8:	31 97       	sbiw	r30, 0x01	; 1
    18aa:	21 30       	cpi	r18, 0x01	; 1
    18ac:	31 05       	cpc	r19, r1
    18ae:	a9 f3       	breq	.-22     	; 0x189a <Get_TransmitTimeStamp+0x12>
    18b0:	1e bc       	out	0x2e, r1	; 46
    18b2:	0d b4       	in	r0, 0x2d	; 45
    18b4:	07 fe       	sbrs	r0, 7
    18b6:	fd cf       	rjmp	.-6      	; 0x18b2 <Get_TransmitTimeStamp+0x2a>
    18b8:	8e b5       	in	r24, 0x2e	; 46
    18ba:	80 83       	st	Z, r24
    18bc:	25 30       	cpi	r18, 0x05	; 5
    18be:	31 05       	cpc	r19, r1
    18c0:	89 f7       	brne	.-30     	; 0x18a4 <Get_TransmitTimeStamp+0x1c>
    18c2:	2c 9a       	sbi	0x05, 4	; 5
    18c4:	2c 98       	cbi	0x05, 4	; 5
    18c6:	fb 01       	movw	r30, r22
    18c8:	35 96       	adiw	r30, 0x05	; 5
    18ca:	81 e0       	ldi	r24, 0x01	; 1
    18cc:	90 e0       	ldi	r25, 0x00	; 0
    18ce:	77 e5       	ldi	r23, 0x57	; 87
    18d0:	64 e0       	ldi	r22, 0x04	; 4
    18d2:	9c 01       	movw	r18, r24
    18d4:	21 50       	subi	r18, 0x01	; 1
    18d6:	31 09       	sbc	r19, r1
    18d8:	71 f0       	breq	.+28     	; 0x18f6 <Get_TransmitTimeStamp+0x6e>
    18da:	21 30       	cpi	r18, 0x01	; 1
    18dc:	31 05       	cpc	r19, r1
    18de:	81 f4       	brne	.+32     	; 0x1900 <Get_TransmitTimeStamp+0x78>
    18e0:	6e bd       	out	0x2e, r22	; 46
    18e2:	0d b4       	in	r0, 0x2d	; 45
    18e4:	07 fe       	sbrs	r0, 7
    18e6:	fd cf       	rjmp	.-6      	; 0x18e2 <Get_TransmitTimeStamp+0x5a>
    18e8:	2e b5       	in	r18, 0x2e	; 46
    18ea:	01 96       	adiw	r24, 0x01	; 1
    18ec:	31 97       	sbiw	r30, 0x01	; 1
    18ee:	9c 01       	movw	r18, r24
    18f0:	21 50       	subi	r18, 0x01	; 1
    18f2:	31 09       	sbc	r19, r1
    18f4:	91 f7       	brne	.-28     	; 0x18da <Get_TransmitTimeStamp+0x52>
    18f6:	7e bd       	out	0x2e, r23	; 46
    18f8:	0d b4       	in	r0, 0x2d	; 45
    18fa:	07 fe       	sbrs	r0, 7
    18fc:	fd cf       	rjmp	.-6      	; 0x18f8 <Get_TransmitTimeStamp+0x70>
    18fe:	f4 cf       	rjmp	.-24     	; 0x18e8 <Get_TransmitTimeStamp+0x60>
    1900:	1e bc       	out	0x2e, r1	; 46
    1902:	0d b4       	in	r0, 0x2d	; 45
    1904:	07 fe       	sbrs	r0, 7
    1906:	fd cf       	rjmp	.-6      	; 0x1902 <Get_TransmitTimeStamp+0x7a>
    1908:	2e b5       	in	r18, 0x2e	; 46
    190a:	20 83       	st	Z, r18
    190c:	86 30       	cpi	r24, 0x06	; 6
    190e:	91 05       	cpc	r25, r1
    1910:	61 f7       	brne	.-40     	; 0x18ea <Get_TransmitTimeStamp+0x62>
    1912:	2c 9a       	sbi	0x05, 4	; 5
    1914:	2c 98       	cbi	0x05, 4	; 5
    1916:	fa 01       	movw	r30, r20
    1918:	33 96       	adiw	r30, 0x03	; 3
    191a:	81 e0       	ldi	r24, 0x01	; 1
    191c:	90 e0       	ldi	r25, 0x00	; 0
    191e:	57 e5       	ldi	r21, 0x57	; 87
    1920:	48 e0       	ldi	r20, 0x08	; 8
    1922:	9c 01       	movw	r18, r24
    1924:	21 50       	subi	r18, 0x01	; 1
    1926:	31 09       	sbc	r19, r1
    1928:	71 f0       	breq	.+28     	; 0x1946 <Get_TransmitTimeStamp+0xbe>
    192a:	21 30       	cpi	r18, 0x01	; 1
    192c:	31 05       	cpc	r19, r1
    192e:	81 f4       	brne	.+32     	; 0x1950 <Get_TransmitTimeStamp+0xc8>
    1930:	4e bd       	out	0x2e, r20	; 46
    1932:	0d b4       	in	r0, 0x2d	; 45
    1934:	07 fe       	sbrs	r0, 7
    1936:	fd cf       	rjmp	.-6      	; 0x1932 <Get_TransmitTimeStamp+0xaa>
    1938:	2e b5       	in	r18, 0x2e	; 46
    193a:	01 96       	adiw	r24, 0x01	; 1
    193c:	31 97       	sbiw	r30, 0x01	; 1
    193e:	9c 01       	movw	r18, r24
    1940:	21 50       	subi	r18, 0x01	; 1
    1942:	31 09       	sbc	r19, r1
    1944:	91 f7       	brne	.-28     	; 0x192a <Get_TransmitTimeStamp+0xa2>
    1946:	5e bd       	out	0x2e, r21	; 46
    1948:	0d b4       	in	r0, 0x2d	; 45
    194a:	07 fe       	sbrs	r0, 7
    194c:	fd cf       	rjmp	.-6      	; 0x1948 <Get_TransmitTimeStamp+0xc0>
    194e:	f4 cf       	rjmp	.-24     	; 0x1938 <Get_TransmitTimeStamp+0xb0>
    1950:	1e bc       	out	0x2e, r1	; 46
    1952:	0d b4       	in	r0, 0x2d	; 45
    1954:	07 fe       	sbrs	r0, 7
    1956:	fd cf       	rjmp	.-6      	; 0x1952 <Get_TransmitTimeStamp+0xca>
    1958:	2e b5       	in	r18, 0x2e	; 46
    195a:	20 83       	st	Z, r18
    195c:	84 30       	cpi	r24, 0x04	; 4
    195e:	91 05       	cpc	r25, r1
    1960:	61 f7       	brne	.-40     	; 0x193a <Get_TransmitTimeStamp+0xb2>
    1962:	2c 9a       	sbi	0x05, 4	; 5
    1964:	08 95       	ret

00001966 <Get_TransmitterAntennaDelay>:
    1966:	2c 98       	cbi	0x05, 4	; 5
    1968:	fc 01       	movw	r30, r24
    196a:	32 96       	adiw	r30, 0x02	; 2
    196c:	21 e0       	ldi	r18, 0x01	; 1
    196e:	30 e0       	ldi	r19, 0x00	; 0
    1970:	98 e1       	ldi	r25, 0x18	; 24
    1972:	21 30       	cpi	r18, 0x01	; 1
    1974:	31 05       	cpc	r19, r1
    1976:	59 f4       	brne	.+22     	; 0x198e <Get_TransmitterAntennaDelay+0x28>
    1978:	9e bd       	out	0x2e, r25	; 46
    197a:	0d b4       	in	r0, 0x2d	; 45
    197c:	07 fe       	sbrs	r0, 7
    197e:	fd cf       	rjmp	.-6      	; 0x197a <Get_TransmitterAntennaDelay+0x14>
    1980:	8e b5       	in	r24, 0x2e	; 46
    1982:	2f 5f       	subi	r18, 0xFF	; 255
    1984:	3f 4f       	sbci	r19, 0xFF	; 255
    1986:	31 97       	sbiw	r30, 0x01	; 1
    1988:	21 30       	cpi	r18, 0x01	; 1
    198a:	31 05       	cpc	r19, r1
    198c:	a9 f3       	breq	.-22     	; 0x1978 <Get_TransmitterAntennaDelay+0x12>
    198e:	1e bc       	out	0x2e, r1	; 46
    1990:	0d b4       	in	r0, 0x2d	; 45
    1992:	07 fe       	sbrs	r0, 7
    1994:	fd cf       	rjmp	.-6      	; 0x1990 <Get_TransmitterAntennaDelay+0x2a>
    1996:	8e b5       	in	r24, 0x2e	; 46
    1998:	80 83       	st	Z, r24
    199a:	23 30       	cpi	r18, 0x03	; 3
    199c:	31 05       	cpc	r19, r1
    199e:	89 f7       	brne	.-30     	; 0x1982 <Get_TransmitterAntennaDelay+0x1c>
    19a0:	2c 9a       	sbi	0x05, 4	; 5
    19a2:	08 95       	ret

000019a4 <Get_AcknowledgementTimeAndResponceTime>:
    19a4:	2c 98       	cbi	0x05, 4	; 5
    19a6:	fc 01       	movw	r30, r24
    19a8:	34 96       	adiw	r30, 0x04	; 4
    19aa:	21 e0       	ldi	r18, 0x01	; 1
    19ac:	30 e0       	ldi	r19, 0x00	; 0
    19ae:	9a e1       	ldi	r25, 0x1A	; 26
    19b0:	21 30       	cpi	r18, 0x01	; 1
    19b2:	31 05       	cpc	r19, r1
    19b4:	59 f4       	brne	.+22     	; 0x19cc <Get_AcknowledgementTimeAndResponceTime+0x28>
    19b6:	9e bd       	out	0x2e, r25	; 46
    19b8:	0d b4       	in	r0, 0x2d	; 45
    19ba:	07 fe       	sbrs	r0, 7
    19bc:	fd cf       	rjmp	.-6      	; 0x19b8 <Get_AcknowledgementTimeAndResponceTime+0x14>
    19be:	8e b5       	in	r24, 0x2e	; 46
    19c0:	2f 5f       	subi	r18, 0xFF	; 255
    19c2:	3f 4f       	sbci	r19, 0xFF	; 255
    19c4:	31 97       	sbiw	r30, 0x01	; 1
    19c6:	21 30       	cpi	r18, 0x01	; 1
    19c8:	31 05       	cpc	r19, r1
    19ca:	a9 f3       	breq	.-22     	; 0x19b6 <Get_AcknowledgementTimeAndResponceTime+0x12>
    19cc:	1e bc       	out	0x2e, r1	; 46
    19ce:	0d b4       	in	r0, 0x2d	; 45
    19d0:	07 fe       	sbrs	r0, 7
    19d2:	fd cf       	rjmp	.-6      	; 0x19ce <Get_AcknowledgementTimeAndResponceTime+0x2a>
    19d4:	8e b5       	in	r24, 0x2e	; 46
    19d6:	80 83       	st	Z, r24
    19d8:	25 30       	cpi	r18, 0x05	; 5
    19da:	31 05       	cpc	r19, r1
    19dc:	89 f7       	brne	.-30     	; 0x19c0 <Get_AcknowledgementTimeAndResponceTime+0x1c>
    19de:	2c 9a       	sbi	0x05, 4	; 5
    19e0:	08 95       	ret

000019e2 <Get_SNIFFMode>:
    19e2:	2c 98       	cbi	0x05, 4	; 5
    19e4:	fc 01       	movw	r30, r24
    19e6:	34 96       	adiw	r30, 0x04	; 4
    19e8:	21 e0       	ldi	r18, 0x01	; 1
    19ea:	30 e0       	ldi	r19, 0x00	; 0
    19ec:	9d e1       	ldi	r25, 0x1D	; 29
    19ee:	21 30       	cpi	r18, 0x01	; 1
    19f0:	31 05       	cpc	r19, r1
    19f2:	59 f4       	brne	.+22     	; 0x1a0a <Get_SNIFFMode+0x28>
    19f4:	9e bd       	out	0x2e, r25	; 46
    19f6:	0d b4       	in	r0, 0x2d	; 45
    19f8:	07 fe       	sbrs	r0, 7
    19fa:	fd cf       	rjmp	.-6      	; 0x19f6 <Get_SNIFFMode+0x14>
    19fc:	8e b5       	in	r24, 0x2e	; 46
    19fe:	2f 5f       	subi	r18, 0xFF	; 255
    1a00:	3f 4f       	sbci	r19, 0xFF	; 255
    1a02:	31 97       	sbiw	r30, 0x01	; 1
    1a04:	21 30       	cpi	r18, 0x01	; 1
    1a06:	31 05       	cpc	r19, r1
    1a08:	a9 f3       	breq	.-22     	; 0x19f4 <Get_SNIFFMode+0x12>
    1a0a:	1e bc       	out	0x2e, r1	; 46
    1a0c:	0d b4       	in	r0, 0x2d	; 45
    1a0e:	07 fe       	sbrs	r0, 7
    1a10:	fd cf       	rjmp	.-6      	; 0x1a0c <Get_SNIFFMode+0x2a>
    1a12:	8e b5       	in	r24, 0x2e	; 46
    1a14:	80 83       	st	Z, r24
    1a16:	25 30       	cpi	r18, 0x05	; 5
    1a18:	31 05       	cpc	r19, r1
    1a1a:	89 f7       	brne	.-30     	; 0x19fe <Get_SNIFFMode+0x1c>
    1a1c:	2c 9a       	sbi	0x05, 4	; 5
    1a1e:	08 95       	ret

00001a20 <Get_TransmitPowerControl>:
    1a20:	2c 98       	cbi	0x05, 4	; 5
    1a22:	fc 01       	movw	r30, r24
    1a24:	34 96       	adiw	r30, 0x04	; 4
    1a26:	21 e0       	ldi	r18, 0x01	; 1
    1a28:	30 e0       	ldi	r19, 0x00	; 0
    1a2a:	9e e1       	ldi	r25, 0x1E	; 30
    1a2c:	21 30       	cpi	r18, 0x01	; 1
    1a2e:	31 05       	cpc	r19, r1
    1a30:	59 f4       	brne	.+22     	; 0x1a48 <Get_TransmitPowerControl+0x28>
    1a32:	9e bd       	out	0x2e, r25	; 46
    1a34:	0d b4       	in	r0, 0x2d	; 45
    1a36:	07 fe       	sbrs	r0, 7
    1a38:	fd cf       	rjmp	.-6      	; 0x1a34 <Get_TransmitPowerControl+0x14>
    1a3a:	8e b5       	in	r24, 0x2e	; 46
    1a3c:	2f 5f       	subi	r18, 0xFF	; 255
    1a3e:	3f 4f       	sbci	r19, 0xFF	; 255
    1a40:	31 97       	sbiw	r30, 0x01	; 1
    1a42:	21 30       	cpi	r18, 0x01	; 1
    1a44:	31 05       	cpc	r19, r1
    1a46:	a9 f3       	breq	.-22     	; 0x1a32 <Get_TransmitPowerControl+0x12>
    1a48:	1e bc       	out	0x2e, r1	; 46
    1a4a:	0d b4       	in	r0, 0x2d	; 45
    1a4c:	07 fe       	sbrs	r0, 7
    1a4e:	fd cf       	rjmp	.-6      	; 0x1a4a <Get_TransmitPowerControl+0x2a>
    1a50:	8e b5       	in	r24, 0x2e	; 46
    1a52:	80 83       	st	Z, r24
    1a54:	25 30       	cpi	r18, 0x05	; 5
    1a56:	31 05       	cpc	r19, r1
    1a58:	89 f7       	brne	.-30     	; 0x1a3c <Get_TransmitPowerControl+0x1c>
    1a5a:	2c 9a       	sbi	0x05, 4	; 5
    1a5c:	08 95       	ret

00001a5e <Get_ChannelControl>:
    1a5e:	2c 98       	cbi	0x05, 4	; 5
    1a60:	fc 01       	movw	r30, r24
    1a62:	34 96       	adiw	r30, 0x04	; 4
    1a64:	21 e0       	ldi	r18, 0x01	; 1
    1a66:	30 e0       	ldi	r19, 0x00	; 0
    1a68:	9f e1       	ldi	r25, 0x1F	; 31
    1a6a:	21 30       	cpi	r18, 0x01	; 1
    1a6c:	31 05       	cpc	r19, r1
    1a6e:	59 f4       	brne	.+22     	; 0x1a86 <Get_ChannelControl+0x28>
    1a70:	9e bd       	out	0x2e, r25	; 46
    1a72:	0d b4       	in	r0, 0x2d	; 45
    1a74:	07 fe       	sbrs	r0, 7
    1a76:	fd cf       	rjmp	.-6      	; 0x1a72 <Get_ChannelControl+0x14>
    1a78:	8e b5       	in	r24, 0x2e	; 46
    1a7a:	2f 5f       	subi	r18, 0xFF	; 255
    1a7c:	3f 4f       	sbci	r19, 0xFF	; 255
    1a7e:	31 97       	sbiw	r30, 0x01	; 1
    1a80:	21 30       	cpi	r18, 0x01	; 1
    1a82:	31 05       	cpc	r19, r1
    1a84:	a9 f3       	breq	.-22     	; 0x1a70 <Get_ChannelControl+0x12>
    1a86:	1e bc       	out	0x2e, r1	; 46
    1a88:	0d b4       	in	r0, 0x2d	; 45
    1a8a:	07 fe       	sbrs	r0, 7
    1a8c:	fd cf       	rjmp	.-6      	; 0x1a88 <Get_ChannelControl+0x2a>
    1a8e:	8e b5       	in	r24, 0x2e	; 46
    1a90:	80 83       	st	Z, r24
    1a92:	25 30       	cpi	r18, 0x05	; 5
    1a94:	31 05       	cpc	r19, r1
    1a96:	89 f7       	brne	.-30     	; 0x1a7a <Get_ChannelControl+0x1c>
    1a98:	2c 9a       	sbi	0x05, 4	; 5
    1a9a:	08 95       	ret

00001a9c <Get_AGCConfigurationAndControl>:
    1a9c:	ff 92       	push	r15
    1a9e:	0f 93       	push	r16
    1aa0:	1f 93       	push	r17
    1aa2:	cf 93       	push	r28
    1aa4:	df 93       	push	r29
    1aa6:	2c 98       	cbi	0x05, 4	; 5
    1aa8:	ec 01       	movw	r28, r24
    1aaa:	23 96       	adiw	r28, 0x03	; 3
    1aac:	e1 e0       	ldi	r30, 0x01	; 1
    1aae:	f0 e0       	ldi	r31, 0x00	; 0
    1ab0:	83 e6       	ldi	r24, 0x63	; 99
    1ab2:	f8 2e       	mov	r15, r24
    1ab4:	92 e0       	ldi	r25, 0x02	; 2
    1ab6:	df 01       	movw	r26, r30
    1ab8:	11 97       	sbiw	r26, 0x01	; 1
    1aba:	61 f0       	breq	.+24     	; 0x1ad4 <Get_AGCConfigurationAndControl+0x38>
    1abc:	11 97       	sbiw	r26, 0x01	; 1
    1abe:	79 f4       	brne	.+30     	; 0x1ade <Get_AGCConfigurationAndControl+0x42>
    1ac0:	9e bd       	out	0x2e, r25	; 46
    1ac2:	0d b4       	in	r0, 0x2d	; 45
    1ac4:	07 fe       	sbrs	r0, 7
    1ac6:	fd cf       	rjmp	.-6      	; 0x1ac2 <Get_AGCConfigurationAndControl+0x26>
    1ac8:	8e b5       	in	r24, 0x2e	; 46
    1aca:	31 96       	adiw	r30, 0x01	; 1
    1acc:	21 97       	sbiw	r28, 0x01	; 1
    1ace:	df 01       	movw	r26, r30
    1ad0:	11 97       	sbiw	r26, 0x01	; 1
    1ad2:	a1 f7       	brne	.-24     	; 0x1abc <Get_AGCConfigurationAndControl+0x20>
    1ad4:	fe bc       	out	0x2e, r15	; 46
    1ad6:	0d b4       	in	r0, 0x2d	; 45
    1ad8:	07 fe       	sbrs	r0, 7
    1ada:	fd cf       	rjmp	.-6      	; 0x1ad6 <Get_AGCConfigurationAndControl+0x3a>
    1adc:	f5 cf       	rjmp	.-22     	; 0x1ac8 <Get_AGCConfigurationAndControl+0x2c>
    1ade:	1e bc       	out	0x2e, r1	; 46
    1ae0:	0d b4       	in	r0, 0x2d	; 45
    1ae2:	07 fe       	sbrs	r0, 7
    1ae4:	fd cf       	rjmp	.-6      	; 0x1ae0 <Get_AGCConfigurationAndControl+0x44>
    1ae6:	8e b5       	in	r24, 0x2e	; 46
    1ae8:	88 83       	st	Y, r24
    1aea:	e4 30       	cpi	r30, 0x04	; 4
    1aec:	f1 05       	cpc	r31, r1
    1aee:	69 f7       	brne	.-38     	; 0x1aca <Get_AGCConfigurationAndControl+0x2e>
    1af0:	2c 9a       	sbi	0x05, 4	; 5
    1af2:	2c 98       	cbi	0x05, 4	; 5
    1af4:	db 01       	movw	r26, r22
    1af6:	13 96       	adiw	r26, 0x03	; 3
    1af8:	81 e0       	ldi	r24, 0x01	; 1
    1afa:	90 e0       	ldi	r25, 0x00	; 0
    1afc:	c3 e6       	ldi	r28, 0x63	; 99
    1afe:	74 e0       	ldi	r23, 0x04	; 4
    1b00:	fc 01       	movw	r30, r24
    1b02:	31 97       	sbiw	r30, 0x01	; 1
    1b04:	61 f0       	breq	.+24     	; 0x1b1e <Get_AGCConfigurationAndControl+0x82>
    1b06:	31 97       	sbiw	r30, 0x01	; 1
    1b08:	79 f4       	brne	.+30     	; 0x1b28 <Get_AGCConfigurationAndControl+0x8c>
    1b0a:	7e bd       	out	0x2e, r23	; 46
    1b0c:	0d b4       	in	r0, 0x2d	; 45
    1b0e:	07 fe       	sbrs	r0, 7
    1b10:	fd cf       	rjmp	.-6      	; 0x1b0c <Get_AGCConfigurationAndControl+0x70>
    1b12:	6e b5       	in	r22, 0x2e	; 46
    1b14:	01 96       	adiw	r24, 0x01	; 1
    1b16:	11 97       	sbiw	r26, 0x01	; 1
    1b18:	fc 01       	movw	r30, r24
    1b1a:	31 97       	sbiw	r30, 0x01	; 1
    1b1c:	a1 f7       	brne	.-24     	; 0x1b06 <Get_AGCConfigurationAndControl+0x6a>
    1b1e:	ce bd       	out	0x2e, r28	; 46
    1b20:	0d b4       	in	r0, 0x2d	; 45
    1b22:	07 fe       	sbrs	r0, 7
    1b24:	fd cf       	rjmp	.-6      	; 0x1b20 <Get_AGCConfigurationAndControl+0x84>
    1b26:	f5 cf       	rjmp	.-22     	; 0x1b12 <Get_AGCConfigurationAndControl+0x76>
    1b28:	1e bc       	out	0x2e, r1	; 46
    1b2a:	0d b4       	in	r0, 0x2d	; 45
    1b2c:	07 fe       	sbrs	r0, 7
    1b2e:	fd cf       	rjmp	.-6      	; 0x1b2a <Get_AGCConfigurationAndControl+0x8e>
    1b30:	6e b5       	in	r22, 0x2e	; 46
    1b32:	6c 93       	st	X, r22
    1b34:	84 30       	cpi	r24, 0x04	; 4
    1b36:	91 05       	cpc	r25, r1
    1b38:	69 f7       	brne	.-38     	; 0x1b14 <Get_AGCConfigurationAndControl+0x78>
    1b3a:	2c 9a       	sbi	0x05, 4	; 5
    1b3c:	2c 98       	cbi	0x05, 4	; 5
    1b3e:	fa 01       	movw	r30, r20
    1b40:	35 96       	adiw	r30, 0x05	; 5
    1b42:	81 e0       	ldi	r24, 0x01	; 1
    1b44:	90 e0       	ldi	r25, 0x00	; 0
    1b46:	a3 e6       	ldi	r26, 0x63	; 99
    1b48:	5c e0       	ldi	r21, 0x0C	; 12
    1b4a:	bc 01       	movw	r22, r24
    1b4c:	61 50       	subi	r22, 0x01	; 1
    1b4e:	71 09       	sbc	r23, r1
    1b50:	71 f0       	breq	.+28     	; 0x1b6e <Get_AGCConfigurationAndControl+0xd2>
    1b52:	61 30       	cpi	r22, 0x01	; 1
    1b54:	71 05       	cpc	r23, r1
    1b56:	81 f4       	brne	.+32     	; 0x1b78 <Get_AGCConfigurationAndControl+0xdc>
    1b58:	5e bd       	out	0x2e, r21	; 46
    1b5a:	0d b4       	in	r0, 0x2d	; 45
    1b5c:	07 fe       	sbrs	r0, 7
    1b5e:	fd cf       	rjmp	.-6      	; 0x1b5a <Get_AGCConfigurationAndControl+0xbe>
    1b60:	4e b5       	in	r20, 0x2e	; 46
    1b62:	01 96       	adiw	r24, 0x01	; 1
    1b64:	31 97       	sbiw	r30, 0x01	; 1
    1b66:	bc 01       	movw	r22, r24
    1b68:	61 50       	subi	r22, 0x01	; 1
    1b6a:	71 09       	sbc	r23, r1
    1b6c:	91 f7       	brne	.-28     	; 0x1b52 <Get_AGCConfigurationAndControl+0xb6>
    1b6e:	ae bd       	out	0x2e, r26	; 46
    1b70:	0d b4       	in	r0, 0x2d	; 45
    1b72:	07 fe       	sbrs	r0, 7
    1b74:	fd cf       	rjmp	.-6      	; 0x1b70 <Get_AGCConfigurationAndControl+0xd4>
    1b76:	f4 cf       	rjmp	.-24     	; 0x1b60 <Get_AGCConfigurationAndControl+0xc4>
    1b78:	1e bc       	out	0x2e, r1	; 46
    1b7a:	0d b4       	in	r0, 0x2d	; 45
    1b7c:	07 fe       	sbrs	r0, 7
    1b7e:	fd cf       	rjmp	.-6      	; 0x1b7a <Get_AGCConfigurationAndControl+0xde>
    1b80:	4e b5       	in	r20, 0x2e	; 46
    1b82:	40 83       	st	Z, r20
    1b84:	86 30       	cpi	r24, 0x06	; 6
    1b86:	91 05       	cpc	r25, r1
    1b88:	61 f7       	brne	.-40     	; 0x1b62 <Get_AGCConfigurationAndControl+0xc6>
    1b8a:	2c 9a       	sbi	0x05, 4	; 5
    1b8c:	2c 98       	cbi	0x05, 4	; 5
    1b8e:	f9 01       	movw	r30, r18
    1b90:	33 96       	adiw	r30, 0x03	; 3
    1b92:	81 e0       	ldi	r24, 0x01	; 1
    1b94:	90 e0       	ldi	r25, 0x00	; 0
    1b96:	63 e6       	ldi	r22, 0x63	; 99
    1b98:	32 e1       	ldi	r19, 0x12	; 18
    1b9a:	ac 01       	movw	r20, r24
    1b9c:	41 50       	subi	r20, 0x01	; 1
    1b9e:	51 09       	sbc	r21, r1
    1ba0:	71 f0       	breq	.+28     	; 0x1bbe <Get_AGCConfigurationAndControl+0x122>
    1ba2:	41 30       	cpi	r20, 0x01	; 1
    1ba4:	51 05       	cpc	r21, r1
    1ba6:	81 f4       	brne	.+32     	; 0x1bc8 <Get_AGCConfigurationAndControl+0x12c>
    1ba8:	3e bd       	out	0x2e, r19	; 46
    1baa:	0d b4       	in	r0, 0x2d	; 45
    1bac:	07 fe       	sbrs	r0, 7
    1bae:	fd cf       	rjmp	.-6      	; 0x1baa <Get_AGCConfigurationAndControl+0x10e>
    1bb0:	2e b5       	in	r18, 0x2e	; 46
    1bb2:	01 96       	adiw	r24, 0x01	; 1
    1bb4:	31 97       	sbiw	r30, 0x01	; 1
    1bb6:	ac 01       	movw	r20, r24
    1bb8:	41 50       	subi	r20, 0x01	; 1
    1bba:	51 09       	sbc	r21, r1
    1bbc:	91 f7       	brne	.-28     	; 0x1ba2 <Get_AGCConfigurationAndControl+0x106>
    1bbe:	6e bd       	out	0x2e, r22	; 46
    1bc0:	0d b4       	in	r0, 0x2d	; 45
    1bc2:	07 fe       	sbrs	r0, 7
    1bc4:	fd cf       	rjmp	.-6      	; 0x1bc0 <Get_AGCConfigurationAndControl+0x124>
    1bc6:	f4 cf       	rjmp	.-24     	; 0x1bb0 <Get_AGCConfigurationAndControl+0x114>
    1bc8:	1e bc       	out	0x2e, r1	; 46
    1bca:	0d b4       	in	r0, 0x2d	; 45
    1bcc:	07 fe       	sbrs	r0, 7
    1bce:	fd cf       	rjmp	.-6      	; 0x1bca <Get_AGCConfigurationAndControl+0x12e>
    1bd0:	2e b5       	in	r18, 0x2e	; 46
    1bd2:	20 83       	st	Z, r18
    1bd4:	84 30       	cpi	r24, 0x04	; 4
    1bd6:	91 05       	cpc	r25, r1
    1bd8:	61 f7       	brne	.-40     	; 0x1bb2 <Get_AGCConfigurationAndControl+0x116>
    1bda:	2c 9a       	sbi	0x05, 4	; 5
    1bdc:	2c 98       	cbi	0x05, 4	; 5
    1bde:	f8 01       	movw	r30, r16
    1be0:	34 96       	adiw	r30, 0x04	; 4
    1be2:	81 e0       	ldi	r24, 0x01	; 1
    1be4:	90 e0       	ldi	r25, 0x00	; 0
    1be6:	53 e6       	ldi	r21, 0x63	; 99
    1be8:	4e e1       	ldi	r20, 0x1E	; 30
    1bea:	9c 01       	movw	r18, r24
    1bec:	21 50       	subi	r18, 0x01	; 1
    1bee:	31 09       	sbc	r19, r1
    1bf0:	71 f0       	breq	.+28     	; 0x1c0e <Get_AGCConfigurationAndControl+0x172>
    1bf2:	21 30       	cpi	r18, 0x01	; 1
    1bf4:	31 05       	cpc	r19, r1
    1bf6:	81 f4       	brne	.+32     	; 0x1c18 <Get_AGCConfigurationAndControl+0x17c>
    1bf8:	4e bd       	out	0x2e, r20	; 46
    1bfa:	0d b4       	in	r0, 0x2d	; 45
    1bfc:	07 fe       	sbrs	r0, 7
    1bfe:	fd cf       	rjmp	.-6      	; 0x1bfa <Get_AGCConfigurationAndControl+0x15e>
    1c00:	2e b5       	in	r18, 0x2e	; 46
    1c02:	01 96       	adiw	r24, 0x01	; 1
    1c04:	31 97       	sbiw	r30, 0x01	; 1
    1c06:	9c 01       	movw	r18, r24
    1c08:	21 50       	subi	r18, 0x01	; 1
    1c0a:	31 09       	sbc	r19, r1
    1c0c:	91 f7       	brne	.-28     	; 0x1bf2 <Get_AGCConfigurationAndControl+0x156>
    1c0e:	5e bd       	out	0x2e, r21	; 46
    1c10:	0d b4       	in	r0, 0x2d	; 45
    1c12:	07 fe       	sbrs	r0, 7
    1c14:	fd cf       	rjmp	.-6      	; 0x1c10 <Get_AGCConfigurationAndControl+0x174>
    1c16:	f4 cf       	rjmp	.-24     	; 0x1c00 <Get_AGCConfigurationAndControl+0x164>
    1c18:	1e bc       	out	0x2e, r1	; 46
    1c1a:	0d b4       	in	r0, 0x2d	; 45
    1c1c:	07 fe       	sbrs	r0, 7
    1c1e:	fd cf       	rjmp	.-6      	; 0x1c1a <Get_AGCConfigurationAndControl+0x17e>
    1c20:	2e b5       	in	r18, 0x2e	; 46
    1c22:	20 83       	st	Z, r18
    1c24:	85 30       	cpi	r24, 0x05	; 5
    1c26:	91 05       	cpc	r25, r1
    1c28:	61 f7       	brne	.-40     	; 0x1c02 <Get_AGCConfigurationAndControl+0x166>
    1c2a:	2c 9a       	sbi	0x05, 4	; 5
    1c2c:	df 91       	pop	r29
    1c2e:	cf 91       	pop	r28
    1c30:	1f 91       	pop	r17
    1c32:	0f 91       	pop	r16
    1c34:	ff 90       	pop	r15
    1c36:	08 95       	ret

00001c38 <Get_ExternalSynchronizationControl>:
    1c38:	2c 98       	cbi	0x05, 4	; 5
    1c3a:	fc 01       	movw	r30, r24
    1c3c:	34 96       	adiw	r30, 0x04	; 4
    1c3e:	21 e0       	ldi	r18, 0x01	; 1
    1c40:	30 e0       	ldi	r19, 0x00	; 0
    1c42:	94 e2       	ldi	r25, 0x24	; 36
    1c44:	21 30       	cpi	r18, 0x01	; 1
    1c46:	31 05       	cpc	r19, r1
    1c48:	59 f4       	brne	.+22     	; 0x1c60 <Get_ExternalSynchronizationControl+0x28>
    1c4a:	9e bd       	out	0x2e, r25	; 46
    1c4c:	0d b4       	in	r0, 0x2d	; 45
    1c4e:	07 fe       	sbrs	r0, 7
    1c50:	fd cf       	rjmp	.-6      	; 0x1c4c <Get_ExternalSynchronizationControl+0x14>
    1c52:	8e b5       	in	r24, 0x2e	; 46
    1c54:	2f 5f       	subi	r18, 0xFF	; 255
    1c56:	3f 4f       	sbci	r19, 0xFF	; 255
    1c58:	31 97       	sbiw	r30, 0x01	; 1
    1c5a:	21 30       	cpi	r18, 0x01	; 1
    1c5c:	31 05       	cpc	r19, r1
    1c5e:	a9 f3       	breq	.-22     	; 0x1c4a <Get_ExternalSynchronizationControl+0x12>
    1c60:	1e bc       	out	0x2e, r1	; 46
    1c62:	0d b4       	in	r0, 0x2d	; 45
    1c64:	07 fe       	sbrs	r0, 7
    1c66:	fd cf       	rjmp	.-6      	; 0x1c62 <Get_ExternalSynchronizationControl+0x2a>
    1c68:	8e b5       	in	r24, 0x2e	; 46
    1c6a:	80 83       	st	Z, r24
    1c6c:	25 30       	cpi	r18, 0x05	; 5
    1c6e:	31 05       	cpc	r19, r1
    1c70:	89 f7       	brne	.-30     	; 0x1c54 <Get_ExternalSynchronizationControl+0x1c>
    1c72:	2c 9a       	sbi	0x05, 4	; 5
    1c74:	2c 98       	cbi	0x05, 4	; 5
    1c76:	fb 01       	movw	r30, r22
    1c78:	35 96       	adiw	r30, 0x05	; 5
    1c7a:	81 e0       	ldi	r24, 0x01	; 1
    1c7c:	90 e0       	ldi	r25, 0x00	; 0
    1c7e:	74 e6       	ldi	r23, 0x64	; 100
    1c80:	64 e0       	ldi	r22, 0x04	; 4
    1c82:	9c 01       	movw	r18, r24
    1c84:	21 50       	subi	r18, 0x01	; 1
    1c86:	31 09       	sbc	r19, r1
    1c88:	71 f0       	breq	.+28     	; 0x1ca6 <Get_ExternalSynchronizationControl+0x6e>
    1c8a:	21 30       	cpi	r18, 0x01	; 1
    1c8c:	31 05       	cpc	r19, r1
    1c8e:	81 f4       	brne	.+32     	; 0x1cb0 <Get_ExternalSynchronizationControl+0x78>
    1c90:	6e bd       	out	0x2e, r22	; 46
    1c92:	0d b4       	in	r0, 0x2d	; 45
    1c94:	07 fe       	sbrs	r0, 7
    1c96:	fd cf       	rjmp	.-6      	; 0x1c92 <Get_ExternalSynchronizationControl+0x5a>
    1c98:	2e b5       	in	r18, 0x2e	; 46
    1c9a:	01 96       	adiw	r24, 0x01	; 1
    1c9c:	31 97       	sbiw	r30, 0x01	; 1
    1c9e:	9c 01       	movw	r18, r24
    1ca0:	21 50       	subi	r18, 0x01	; 1
    1ca2:	31 09       	sbc	r19, r1
    1ca4:	91 f7       	brne	.-28     	; 0x1c8a <Get_ExternalSynchronizationControl+0x52>
    1ca6:	7e bd       	out	0x2e, r23	; 46
    1ca8:	0d b4       	in	r0, 0x2d	; 45
    1caa:	07 fe       	sbrs	r0, 7
    1cac:	fd cf       	rjmp	.-6      	; 0x1ca8 <Get_ExternalSynchronizationControl+0x70>
    1cae:	f4 cf       	rjmp	.-24     	; 0x1c98 <Get_ExternalSynchronizationControl+0x60>
    1cb0:	1e bc       	out	0x2e, r1	; 46
    1cb2:	0d b4       	in	r0, 0x2d	; 45
    1cb4:	07 fe       	sbrs	r0, 7
    1cb6:	fd cf       	rjmp	.-6      	; 0x1cb2 <Get_ExternalSynchronizationControl+0x7a>
    1cb8:	2e b5       	in	r18, 0x2e	; 46
    1cba:	20 83       	st	Z, r18
    1cbc:	86 30       	cpi	r24, 0x06	; 6
    1cbe:	91 05       	cpc	r25, r1
    1cc0:	61 f7       	brne	.-40     	; 0x1c9a <Get_ExternalSynchronizationControl+0x62>
    1cc2:	2c 9a       	sbi	0x05, 4	; 5
    1cc4:	2c 98       	cbi	0x05, 4	; 5
    1cc6:	fa 01       	movw	r30, r20
    1cc8:	35 96       	adiw	r30, 0x05	; 5
    1cca:	81 e0       	ldi	r24, 0x01	; 1
    1ccc:	90 e0       	ldi	r25, 0x00	; 0
    1cce:	54 e6       	ldi	r21, 0x64	; 100
    1cd0:	48 e0       	ldi	r20, 0x08	; 8
    1cd2:	9c 01       	movw	r18, r24
    1cd4:	21 50       	subi	r18, 0x01	; 1
    1cd6:	31 09       	sbc	r19, r1
    1cd8:	71 f0       	breq	.+28     	; 0x1cf6 <Get_ExternalSynchronizationControl+0xbe>
    1cda:	21 30       	cpi	r18, 0x01	; 1
    1cdc:	31 05       	cpc	r19, r1
    1cde:	81 f4       	brne	.+32     	; 0x1d00 <Get_ExternalSynchronizationControl+0xc8>
    1ce0:	4e bd       	out	0x2e, r20	; 46
    1ce2:	0d b4       	in	r0, 0x2d	; 45
    1ce4:	07 fe       	sbrs	r0, 7
    1ce6:	fd cf       	rjmp	.-6      	; 0x1ce2 <Get_ExternalSynchronizationControl+0xaa>
    1ce8:	2e b5       	in	r18, 0x2e	; 46
    1cea:	01 96       	adiw	r24, 0x01	; 1
    1cec:	31 97       	sbiw	r30, 0x01	; 1
    1cee:	9c 01       	movw	r18, r24
    1cf0:	21 50       	subi	r18, 0x01	; 1
    1cf2:	31 09       	sbc	r19, r1
    1cf4:	91 f7       	brne	.-28     	; 0x1cda <Get_ExternalSynchronizationControl+0xa2>
    1cf6:	5e bd       	out	0x2e, r21	; 46
    1cf8:	0d b4       	in	r0, 0x2d	; 45
    1cfa:	07 fe       	sbrs	r0, 7
    1cfc:	fd cf       	rjmp	.-6      	; 0x1cf8 <Get_ExternalSynchronizationControl+0xc0>
    1cfe:	f4 cf       	rjmp	.-24     	; 0x1ce8 <Get_ExternalSynchronizationControl+0xb0>
    1d00:	1e bc       	out	0x2e, r1	; 46
    1d02:	0d b4       	in	r0, 0x2d	; 45
    1d04:	07 fe       	sbrs	r0, 7
    1d06:	fd cf       	rjmp	.-6      	; 0x1d02 <Get_ExternalSynchronizationControl+0xca>
    1d08:	2e b5       	in	r18, 0x2e	; 46
    1d0a:	20 83       	st	Z, r18
    1d0c:	86 30       	cpi	r24, 0x06	; 6
    1d0e:	91 05       	cpc	r25, r1
    1d10:	61 f7       	brne	.-40     	; 0x1cea <Get_ExternalSynchronizationControl+0xb2>
    1d12:	2c 9a       	sbi	0x05, 4	; 5
    1d14:	08 95       	ret

00001d16 <Get_GPIOModeControlRegister>:
    1d16:	2c 98       	cbi	0x05, 4	; 5
    1d18:	fc 01       	movw	r30, r24
    1d1a:	35 96       	adiw	r30, 0x05	; 5
    1d1c:	21 e0       	ldi	r18, 0x01	; 1
    1d1e:	30 e0       	ldi	r19, 0x00	; 0
    1d20:	96 e6       	ldi	r25, 0x66	; 102
    1d22:	a9 01       	movw	r20, r18
    1d24:	41 50       	subi	r20, 0x01	; 1
    1d26:	51 09       	sbc	r21, r1
    1d28:	79 f0       	breq	.+30     	; 0x1d48 <Get_GPIOModeControlRegister+0x32>
    1d2a:	41 30       	cpi	r20, 0x01	; 1
    1d2c:	51 05       	cpc	r21, r1
    1d2e:	89 f4       	brne	.+34     	; 0x1d52 <Get_GPIOModeControlRegister+0x3c>
    1d30:	1e bc       	out	0x2e, r1	; 46
    1d32:	0d b4       	in	r0, 0x2d	; 45
    1d34:	07 fe       	sbrs	r0, 7
    1d36:	fd cf       	rjmp	.-6      	; 0x1d32 <Get_GPIOModeControlRegister+0x1c>
    1d38:	8e b5       	in	r24, 0x2e	; 46
    1d3a:	2f 5f       	subi	r18, 0xFF	; 255
    1d3c:	3f 4f       	sbci	r19, 0xFF	; 255
    1d3e:	31 97       	sbiw	r30, 0x01	; 1
    1d40:	a9 01       	movw	r20, r18
    1d42:	41 50       	subi	r20, 0x01	; 1
    1d44:	51 09       	sbc	r21, r1
    1d46:	89 f7       	brne	.-30     	; 0x1d2a <Get_GPIOModeControlRegister+0x14>
    1d48:	9e bd       	out	0x2e, r25	; 46
    1d4a:	0d b4       	in	r0, 0x2d	; 45
    1d4c:	07 fe       	sbrs	r0, 7
    1d4e:	fd cf       	rjmp	.-6      	; 0x1d4a <Get_GPIOModeControlRegister+0x34>
    1d50:	f3 cf       	rjmp	.-26     	; 0x1d38 <Get_GPIOModeControlRegister+0x22>
    1d52:	1e bc       	out	0x2e, r1	; 46
    1d54:	0d b4       	in	r0, 0x2d	; 45
    1d56:	07 fe       	sbrs	r0, 7
    1d58:	fd cf       	rjmp	.-6      	; 0x1d54 <Get_GPIOModeControlRegister+0x3e>
    1d5a:	8e b5       	in	r24, 0x2e	; 46
    1d5c:	80 83       	st	Z, r24
    1d5e:	26 30       	cpi	r18, 0x06	; 6
    1d60:	31 05       	cpc	r19, r1
    1d62:	59 f7       	brne	.-42     	; 0x1d3a <Get_GPIOModeControlRegister+0x24>
    1d64:	2c 9a       	sbi	0x05, 4	; 5
    1d66:	08 95       	ret

00001d68 <Get_GPIODirectionControlRegister>:
    1d68:	2c 98       	cbi	0x05, 4	; 5
    1d6a:	fc 01       	movw	r30, r24
    1d6c:	35 96       	adiw	r30, 0x05	; 5
    1d6e:	21 e0       	ldi	r18, 0x01	; 1
    1d70:	30 e0       	ldi	r19, 0x00	; 0
    1d72:	66 e6       	ldi	r22, 0x66	; 102
    1d74:	98 e0       	ldi	r25, 0x08	; 8
    1d76:	a9 01       	movw	r20, r18
    1d78:	41 50       	subi	r20, 0x01	; 1
    1d7a:	51 09       	sbc	r21, r1
    1d7c:	79 f0       	breq	.+30     	; 0x1d9c <Get_GPIODirectionControlRegister+0x34>
    1d7e:	41 30       	cpi	r20, 0x01	; 1
    1d80:	51 05       	cpc	r21, r1
    1d82:	89 f4       	brne	.+34     	; 0x1da6 <Get_GPIODirectionControlRegister+0x3e>
    1d84:	9e bd       	out	0x2e, r25	; 46
    1d86:	0d b4       	in	r0, 0x2d	; 45
    1d88:	07 fe       	sbrs	r0, 7
    1d8a:	fd cf       	rjmp	.-6      	; 0x1d86 <Get_GPIODirectionControlRegister+0x1e>
    1d8c:	8e b5       	in	r24, 0x2e	; 46
    1d8e:	2f 5f       	subi	r18, 0xFF	; 255
    1d90:	3f 4f       	sbci	r19, 0xFF	; 255
    1d92:	31 97       	sbiw	r30, 0x01	; 1
    1d94:	a9 01       	movw	r20, r18
    1d96:	41 50       	subi	r20, 0x01	; 1
    1d98:	51 09       	sbc	r21, r1
    1d9a:	89 f7       	brne	.-30     	; 0x1d7e <Get_GPIODirectionControlRegister+0x16>
    1d9c:	6e bd       	out	0x2e, r22	; 46
    1d9e:	0d b4       	in	r0, 0x2d	; 45
    1da0:	07 fe       	sbrs	r0, 7
    1da2:	fd cf       	rjmp	.-6      	; 0x1d9e <Get_GPIODirectionControlRegister+0x36>
    1da4:	f3 cf       	rjmp	.-26     	; 0x1d8c <Get_GPIODirectionControlRegister+0x24>
    1da6:	1e bc       	out	0x2e, r1	; 46
    1da8:	0d b4       	in	r0, 0x2d	; 45
    1daa:	07 fe       	sbrs	r0, 7
    1dac:	fd cf       	rjmp	.-6      	; 0x1da8 <Get_GPIODirectionControlRegister+0x40>
    1dae:	8e b5       	in	r24, 0x2e	; 46
    1db0:	80 83       	st	Z, r24
    1db2:	26 30       	cpi	r18, 0x06	; 6
    1db4:	31 05       	cpc	r19, r1
    1db6:	59 f7       	brne	.-42     	; 0x1d8e <Get_GPIODirectionControlRegister+0x26>
    1db8:	2c 9a       	sbi	0x05, 4	; 5
    1dba:	08 95       	ret

00001dbc <Get_GPIODataOutputRegister>:
    1dbc:	2c 98       	cbi	0x05, 4	; 5
    1dbe:	fc 01       	movw	r30, r24
    1dc0:	35 96       	adiw	r30, 0x05	; 5
    1dc2:	21 e0       	ldi	r18, 0x01	; 1
    1dc4:	30 e0       	ldi	r19, 0x00	; 0
    1dc6:	66 e6       	ldi	r22, 0x66	; 102
    1dc8:	9c e0       	ldi	r25, 0x0C	; 12
    1dca:	a9 01       	movw	r20, r18
    1dcc:	41 50       	subi	r20, 0x01	; 1
    1dce:	51 09       	sbc	r21, r1
    1dd0:	79 f0       	breq	.+30     	; 0x1df0 <Get_GPIODataOutputRegister+0x34>
    1dd2:	41 30       	cpi	r20, 0x01	; 1
    1dd4:	51 05       	cpc	r21, r1
    1dd6:	89 f4       	brne	.+34     	; 0x1dfa <Get_GPIODataOutputRegister+0x3e>
    1dd8:	9e bd       	out	0x2e, r25	; 46
    1dda:	0d b4       	in	r0, 0x2d	; 45
    1ddc:	07 fe       	sbrs	r0, 7
    1dde:	fd cf       	rjmp	.-6      	; 0x1dda <Get_GPIODataOutputRegister+0x1e>
    1de0:	8e b5       	in	r24, 0x2e	; 46
    1de2:	2f 5f       	subi	r18, 0xFF	; 255
    1de4:	3f 4f       	sbci	r19, 0xFF	; 255
    1de6:	31 97       	sbiw	r30, 0x01	; 1
    1de8:	a9 01       	movw	r20, r18
    1dea:	41 50       	subi	r20, 0x01	; 1
    1dec:	51 09       	sbc	r21, r1
    1dee:	89 f7       	brne	.-30     	; 0x1dd2 <Get_GPIODataOutputRegister+0x16>
    1df0:	6e bd       	out	0x2e, r22	; 46
    1df2:	0d b4       	in	r0, 0x2d	; 45
    1df4:	07 fe       	sbrs	r0, 7
    1df6:	fd cf       	rjmp	.-6      	; 0x1df2 <Get_GPIODataOutputRegister+0x36>
    1df8:	f3 cf       	rjmp	.-26     	; 0x1de0 <Get_GPIODataOutputRegister+0x24>
    1dfa:	1e bc       	out	0x2e, r1	; 46
    1dfc:	0d b4       	in	r0, 0x2d	; 45
    1dfe:	07 fe       	sbrs	r0, 7
    1e00:	fd cf       	rjmp	.-6      	; 0x1dfc <Get_GPIODataOutputRegister+0x40>
    1e02:	8e b5       	in	r24, 0x2e	; 46
    1e04:	80 83       	st	Z, r24
    1e06:	26 30       	cpi	r18, 0x06	; 6
    1e08:	31 05       	cpc	r19, r1
    1e0a:	59 f7       	brne	.-42     	; 0x1de2 <Get_GPIODataOutputRegister+0x26>
    1e0c:	2c 9a       	sbi	0x05, 4	; 5
    1e0e:	08 95       	ret

00001e10 <Get_GPIOInterruptEnable>:
    1e10:	2c 98       	cbi	0x05, 4	; 5
    1e12:	fc 01       	movw	r30, r24
    1e14:	35 96       	adiw	r30, 0x05	; 5
    1e16:	21 e0       	ldi	r18, 0x01	; 1
    1e18:	30 e0       	ldi	r19, 0x00	; 0
    1e1a:	66 e6       	ldi	r22, 0x66	; 102
    1e1c:	90 e1       	ldi	r25, 0x10	; 16
    1e1e:	a9 01       	movw	r20, r18
    1e20:	41 50       	subi	r20, 0x01	; 1
    1e22:	51 09       	sbc	r21, r1
    1e24:	79 f0       	breq	.+30     	; 0x1e44 <Get_GPIOInterruptEnable+0x34>
    1e26:	41 30       	cpi	r20, 0x01	; 1
    1e28:	51 05       	cpc	r21, r1
    1e2a:	89 f4       	brne	.+34     	; 0x1e4e <Get_GPIOInterruptEnable+0x3e>
    1e2c:	9e bd       	out	0x2e, r25	; 46
    1e2e:	0d b4       	in	r0, 0x2d	; 45
    1e30:	07 fe       	sbrs	r0, 7
    1e32:	fd cf       	rjmp	.-6      	; 0x1e2e <Get_GPIOInterruptEnable+0x1e>
    1e34:	8e b5       	in	r24, 0x2e	; 46
    1e36:	2f 5f       	subi	r18, 0xFF	; 255
    1e38:	3f 4f       	sbci	r19, 0xFF	; 255
    1e3a:	31 97       	sbiw	r30, 0x01	; 1
    1e3c:	a9 01       	movw	r20, r18
    1e3e:	41 50       	subi	r20, 0x01	; 1
    1e40:	51 09       	sbc	r21, r1
    1e42:	89 f7       	brne	.-30     	; 0x1e26 <Get_GPIOInterruptEnable+0x16>
    1e44:	6e bd       	out	0x2e, r22	; 46
    1e46:	0d b4       	in	r0, 0x2d	; 45
    1e48:	07 fe       	sbrs	r0, 7
    1e4a:	fd cf       	rjmp	.-6      	; 0x1e46 <Get_GPIOInterruptEnable+0x36>
    1e4c:	f3 cf       	rjmp	.-26     	; 0x1e34 <Get_GPIOInterruptEnable+0x24>
    1e4e:	1e bc       	out	0x2e, r1	; 46
    1e50:	0d b4       	in	r0, 0x2d	; 45
    1e52:	07 fe       	sbrs	r0, 7
    1e54:	fd cf       	rjmp	.-6      	; 0x1e50 <Get_GPIOInterruptEnable+0x40>
    1e56:	8e b5       	in	r24, 0x2e	; 46
    1e58:	80 83       	st	Z, r24
    1e5a:	26 30       	cpi	r18, 0x06	; 6
    1e5c:	31 05       	cpc	r19, r1
    1e5e:	59 f7       	brne	.-42     	; 0x1e36 <Get_GPIOInterruptEnable+0x26>
    1e60:	2c 9a       	sbi	0x05, 4	; 5
    1e62:	08 95       	ret

00001e64 <Get_GPIOInterruptSenseSelection>:
    1e64:	2c 98       	cbi	0x05, 4	; 5
    1e66:	fc 01       	movw	r30, r24
    1e68:	35 96       	adiw	r30, 0x05	; 5
    1e6a:	21 e0       	ldi	r18, 0x01	; 1
    1e6c:	30 e0       	ldi	r19, 0x00	; 0
    1e6e:	66 e6       	ldi	r22, 0x66	; 102
    1e70:	94 e1       	ldi	r25, 0x14	; 20
    1e72:	a9 01       	movw	r20, r18
    1e74:	41 50       	subi	r20, 0x01	; 1
    1e76:	51 09       	sbc	r21, r1
    1e78:	79 f0       	breq	.+30     	; 0x1e98 <Get_GPIOInterruptSenseSelection+0x34>
    1e7a:	41 30       	cpi	r20, 0x01	; 1
    1e7c:	51 05       	cpc	r21, r1
    1e7e:	89 f4       	brne	.+34     	; 0x1ea2 <Get_GPIOInterruptSenseSelection+0x3e>
    1e80:	9e bd       	out	0x2e, r25	; 46
    1e82:	0d b4       	in	r0, 0x2d	; 45
    1e84:	07 fe       	sbrs	r0, 7
    1e86:	fd cf       	rjmp	.-6      	; 0x1e82 <Get_GPIOInterruptSenseSelection+0x1e>
    1e88:	8e b5       	in	r24, 0x2e	; 46
    1e8a:	2f 5f       	subi	r18, 0xFF	; 255
    1e8c:	3f 4f       	sbci	r19, 0xFF	; 255
    1e8e:	31 97       	sbiw	r30, 0x01	; 1
    1e90:	a9 01       	movw	r20, r18
    1e92:	41 50       	subi	r20, 0x01	; 1
    1e94:	51 09       	sbc	r21, r1
    1e96:	89 f7       	brne	.-30     	; 0x1e7a <Get_GPIOInterruptSenseSelection+0x16>
    1e98:	6e bd       	out	0x2e, r22	; 46
    1e9a:	0d b4       	in	r0, 0x2d	; 45
    1e9c:	07 fe       	sbrs	r0, 7
    1e9e:	fd cf       	rjmp	.-6      	; 0x1e9a <Get_GPIOInterruptSenseSelection+0x36>
    1ea0:	f3 cf       	rjmp	.-26     	; 0x1e88 <Get_GPIOInterruptSenseSelection+0x24>
    1ea2:	1e bc       	out	0x2e, r1	; 46
    1ea4:	0d b4       	in	r0, 0x2d	; 45
    1ea6:	07 fe       	sbrs	r0, 7
    1ea8:	fd cf       	rjmp	.-6      	; 0x1ea4 <Get_GPIOInterruptSenseSelection+0x40>
    1eaa:	8e b5       	in	r24, 0x2e	; 46
    1eac:	80 83       	st	Z, r24
    1eae:	26 30       	cpi	r18, 0x06	; 6
    1eb0:	31 05       	cpc	r19, r1
    1eb2:	59 f7       	brne	.-42     	; 0x1e8a <Get_GPIOInterruptSenseSelection+0x26>
    1eb4:	2c 9a       	sbi	0x05, 4	; 5
    1eb6:	08 95       	ret

00001eb8 <Get_GPIOInterruptMode>:
    1eb8:	2c 98       	cbi	0x05, 4	; 5
    1eba:	fc 01       	movw	r30, r24
    1ebc:	35 96       	adiw	r30, 0x05	; 5
    1ebe:	21 e0       	ldi	r18, 0x01	; 1
    1ec0:	30 e0       	ldi	r19, 0x00	; 0
    1ec2:	66 e6       	ldi	r22, 0x66	; 102
    1ec4:	98 e1       	ldi	r25, 0x18	; 24
    1ec6:	a9 01       	movw	r20, r18
    1ec8:	41 50       	subi	r20, 0x01	; 1
    1eca:	51 09       	sbc	r21, r1
    1ecc:	79 f0       	breq	.+30     	; 0x1eec <Get_GPIOInterruptMode+0x34>
    1ece:	41 30       	cpi	r20, 0x01	; 1
    1ed0:	51 05       	cpc	r21, r1
    1ed2:	89 f4       	brne	.+34     	; 0x1ef6 <Get_GPIOInterruptMode+0x3e>
    1ed4:	9e bd       	out	0x2e, r25	; 46
    1ed6:	0d b4       	in	r0, 0x2d	; 45
    1ed8:	07 fe       	sbrs	r0, 7
    1eda:	fd cf       	rjmp	.-6      	; 0x1ed6 <Get_GPIOInterruptMode+0x1e>
    1edc:	8e b5       	in	r24, 0x2e	; 46
    1ede:	2f 5f       	subi	r18, 0xFF	; 255
    1ee0:	3f 4f       	sbci	r19, 0xFF	; 255
    1ee2:	31 97       	sbiw	r30, 0x01	; 1
    1ee4:	a9 01       	movw	r20, r18
    1ee6:	41 50       	subi	r20, 0x01	; 1
    1ee8:	51 09       	sbc	r21, r1
    1eea:	89 f7       	brne	.-30     	; 0x1ece <Get_GPIOInterruptMode+0x16>
    1eec:	6e bd       	out	0x2e, r22	; 46
    1eee:	0d b4       	in	r0, 0x2d	; 45
    1ef0:	07 fe       	sbrs	r0, 7
    1ef2:	fd cf       	rjmp	.-6      	; 0x1eee <Get_GPIOInterruptMode+0x36>
    1ef4:	f3 cf       	rjmp	.-26     	; 0x1edc <Get_GPIOInterruptMode+0x24>
    1ef6:	1e bc       	out	0x2e, r1	; 46
    1ef8:	0d b4       	in	r0, 0x2d	; 45
    1efa:	07 fe       	sbrs	r0, 7
    1efc:	fd cf       	rjmp	.-6      	; 0x1ef8 <Get_GPIOInterruptMode+0x40>
    1efe:	8e b5       	in	r24, 0x2e	; 46
    1f00:	80 83       	st	Z, r24
    1f02:	26 30       	cpi	r18, 0x06	; 6
    1f04:	31 05       	cpc	r19, r1
    1f06:	59 f7       	brne	.-42     	; 0x1ede <Get_GPIOInterruptMode+0x26>
    1f08:	2c 9a       	sbi	0x05, 4	; 5
    1f0a:	08 95       	ret

00001f0c <Get_GPIOInterruptBoth_EdgeSelect>:
    1f0c:	2c 98       	cbi	0x05, 4	; 5
    1f0e:	fc 01       	movw	r30, r24
    1f10:	35 96       	adiw	r30, 0x05	; 5
    1f12:	21 e0       	ldi	r18, 0x01	; 1
    1f14:	30 e0       	ldi	r19, 0x00	; 0
    1f16:	66 e6       	ldi	r22, 0x66	; 102
    1f18:	9c e1       	ldi	r25, 0x1C	; 28
    1f1a:	a9 01       	movw	r20, r18
    1f1c:	41 50       	subi	r20, 0x01	; 1
    1f1e:	51 09       	sbc	r21, r1
    1f20:	79 f0       	breq	.+30     	; 0x1f40 <Get_GPIOInterruptBoth_EdgeSelect+0x34>
    1f22:	41 30       	cpi	r20, 0x01	; 1
    1f24:	51 05       	cpc	r21, r1
    1f26:	89 f4       	brne	.+34     	; 0x1f4a <Get_GPIOInterruptBoth_EdgeSelect+0x3e>
    1f28:	9e bd       	out	0x2e, r25	; 46
    1f2a:	0d b4       	in	r0, 0x2d	; 45
    1f2c:	07 fe       	sbrs	r0, 7
    1f2e:	fd cf       	rjmp	.-6      	; 0x1f2a <Get_GPIOInterruptBoth_EdgeSelect+0x1e>
    1f30:	8e b5       	in	r24, 0x2e	; 46
    1f32:	2f 5f       	subi	r18, 0xFF	; 255
    1f34:	3f 4f       	sbci	r19, 0xFF	; 255
    1f36:	31 97       	sbiw	r30, 0x01	; 1
    1f38:	a9 01       	movw	r20, r18
    1f3a:	41 50       	subi	r20, 0x01	; 1
    1f3c:	51 09       	sbc	r21, r1
    1f3e:	89 f7       	brne	.-30     	; 0x1f22 <Get_GPIOInterruptBoth_EdgeSelect+0x16>
    1f40:	6e bd       	out	0x2e, r22	; 46
    1f42:	0d b4       	in	r0, 0x2d	; 45
    1f44:	07 fe       	sbrs	r0, 7
    1f46:	fd cf       	rjmp	.-6      	; 0x1f42 <Get_GPIOInterruptBoth_EdgeSelect+0x36>
    1f48:	f3 cf       	rjmp	.-26     	; 0x1f30 <Get_GPIOInterruptBoth_EdgeSelect+0x24>
    1f4a:	1e bc       	out	0x2e, r1	; 46
    1f4c:	0d b4       	in	r0, 0x2d	; 45
    1f4e:	07 fe       	sbrs	r0, 7
    1f50:	fd cf       	rjmp	.-6      	; 0x1f4c <Get_GPIOInterruptBoth_EdgeSelect+0x40>
    1f52:	8e b5       	in	r24, 0x2e	; 46
    1f54:	80 83       	st	Z, r24
    1f56:	26 30       	cpi	r18, 0x06	; 6
    1f58:	31 05       	cpc	r19, r1
    1f5a:	59 f7       	brne	.-42     	; 0x1f32 <Get_GPIOInterruptBoth_EdgeSelect+0x26>
    1f5c:	2c 9a       	sbi	0x05, 4	; 5
    1f5e:	08 95       	ret

00001f60 <Get_GPIOInterruptLatchClear>:
    1f60:	2c 98       	cbi	0x05, 4	; 5
    1f62:	fc 01       	movw	r30, r24
    1f64:	35 96       	adiw	r30, 0x05	; 5
    1f66:	21 e0       	ldi	r18, 0x01	; 1
    1f68:	30 e0       	ldi	r19, 0x00	; 0
    1f6a:	66 e6       	ldi	r22, 0x66	; 102
    1f6c:	90 e2       	ldi	r25, 0x20	; 32
    1f6e:	a9 01       	movw	r20, r18
    1f70:	41 50       	subi	r20, 0x01	; 1
    1f72:	51 09       	sbc	r21, r1
    1f74:	79 f0       	breq	.+30     	; 0x1f94 <Get_GPIOInterruptLatchClear+0x34>
    1f76:	41 30       	cpi	r20, 0x01	; 1
    1f78:	51 05       	cpc	r21, r1
    1f7a:	89 f4       	brne	.+34     	; 0x1f9e <Get_GPIOInterruptLatchClear+0x3e>
    1f7c:	9e bd       	out	0x2e, r25	; 46
    1f7e:	0d b4       	in	r0, 0x2d	; 45
    1f80:	07 fe       	sbrs	r0, 7
    1f82:	fd cf       	rjmp	.-6      	; 0x1f7e <Get_GPIOInterruptLatchClear+0x1e>
    1f84:	8e b5       	in	r24, 0x2e	; 46
    1f86:	2f 5f       	subi	r18, 0xFF	; 255
    1f88:	3f 4f       	sbci	r19, 0xFF	; 255
    1f8a:	31 97       	sbiw	r30, 0x01	; 1
    1f8c:	a9 01       	movw	r20, r18
    1f8e:	41 50       	subi	r20, 0x01	; 1
    1f90:	51 09       	sbc	r21, r1
    1f92:	89 f7       	brne	.-30     	; 0x1f76 <Get_GPIOInterruptLatchClear+0x16>
    1f94:	6e bd       	out	0x2e, r22	; 46
    1f96:	0d b4       	in	r0, 0x2d	; 45
    1f98:	07 fe       	sbrs	r0, 7
    1f9a:	fd cf       	rjmp	.-6      	; 0x1f96 <Get_GPIOInterruptLatchClear+0x36>
    1f9c:	f3 cf       	rjmp	.-26     	; 0x1f84 <Get_GPIOInterruptLatchClear+0x24>
    1f9e:	1e bc       	out	0x2e, r1	; 46
    1fa0:	0d b4       	in	r0, 0x2d	; 45
    1fa2:	07 fe       	sbrs	r0, 7
    1fa4:	fd cf       	rjmp	.-6      	; 0x1fa0 <Get_GPIOInterruptLatchClear+0x40>
    1fa6:	8e b5       	in	r24, 0x2e	; 46
    1fa8:	80 83       	st	Z, r24
    1faa:	26 30       	cpi	r18, 0x06	; 6
    1fac:	31 05       	cpc	r19, r1
    1fae:	59 f7       	brne	.-42     	; 0x1f86 <Get_GPIOInterruptLatchClear+0x26>
    1fb0:	2c 9a       	sbi	0x05, 4	; 5
    1fb2:	08 95       	ret

00001fb4 <Get_GPIOInterruptDebounceEnable>:
    1fb4:	2c 98       	cbi	0x05, 4	; 5
    1fb6:	fc 01       	movw	r30, r24
    1fb8:	35 96       	adiw	r30, 0x05	; 5
    1fba:	21 e0       	ldi	r18, 0x01	; 1
    1fbc:	30 e0       	ldi	r19, 0x00	; 0
    1fbe:	66 e6       	ldi	r22, 0x66	; 102
    1fc0:	94 e2       	ldi	r25, 0x24	; 36
    1fc2:	a9 01       	movw	r20, r18
    1fc4:	41 50       	subi	r20, 0x01	; 1
    1fc6:	51 09       	sbc	r21, r1
    1fc8:	79 f0       	breq	.+30     	; 0x1fe8 <Get_GPIOInterruptDebounceEnable+0x34>
    1fca:	41 30       	cpi	r20, 0x01	; 1
    1fcc:	51 05       	cpc	r21, r1
    1fce:	89 f4       	brne	.+34     	; 0x1ff2 <Get_GPIOInterruptDebounceEnable+0x3e>
    1fd0:	9e bd       	out	0x2e, r25	; 46
    1fd2:	0d b4       	in	r0, 0x2d	; 45
    1fd4:	07 fe       	sbrs	r0, 7
    1fd6:	fd cf       	rjmp	.-6      	; 0x1fd2 <Get_GPIOInterruptDebounceEnable+0x1e>
    1fd8:	8e b5       	in	r24, 0x2e	; 46
    1fda:	2f 5f       	subi	r18, 0xFF	; 255
    1fdc:	3f 4f       	sbci	r19, 0xFF	; 255
    1fde:	31 97       	sbiw	r30, 0x01	; 1
    1fe0:	a9 01       	movw	r20, r18
    1fe2:	41 50       	subi	r20, 0x01	; 1
    1fe4:	51 09       	sbc	r21, r1
    1fe6:	89 f7       	brne	.-30     	; 0x1fca <Get_GPIOInterruptDebounceEnable+0x16>
    1fe8:	6e bd       	out	0x2e, r22	; 46
    1fea:	0d b4       	in	r0, 0x2d	; 45
    1fec:	07 fe       	sbrs	r0, 7
    1fee:	fd cf       	rjmp	.-6      	; 0x1fea <Get_GPIOInterruptDebounceEnable+0x36>
    1ff0:	f3 cf       	rjmp	.-26     	; 0x1fd8 <Get_GPIOInterruptDebounceEnable+0x24>
    1ff2:	1e bc       	out	0x2e, r1	; 46
    1ff4:	0d b4       	in	r0, 0x2d	; 45
    1ff6:	07 fe       	sbrs	r0, 7
    1ff8:	fd cf       	rjmp	.-6      	; 0x1ff4 <Get_GPIOInterruptDebounceEnable+0x40>
    1ffa:	8e b5       	in	r24, 0x2e	; 46
    1ffc:	80 83       	st	Z, r24
    1ffe:	26 30       	cpi	r18, 0x06	; 6
    2000:	31 05       	cpc	r19, r1
    2002:	59 f7       	brne	.-42     	; 0x1fda <Get_GPIOInterruptDebounceEnable+0x26>
    2004:	2c 9a       	sbi	0x05, 4	; 5
    2006:	08 95       	ret

00002008 <Get_GPIORawState>:
    2008:	2c 98       	cbi	0x05, 4	; 5
    200a:	fc 01       	movw	r30, r24
    200c:	35 96       	adiw	r30, 0x05	; 5
    200e:	21 e0       	ldi	r18, 0x01	; 1
    2010:	30 e0       	ldi	r19, 0x00	; 0
    2012:	66 e6       	ldi	r22, 0x66	; 102
    2014:	98 e2       	ldi	r25, 0x28	; 40
    2016:	a9 01       	movw	r20, r18
    2018:	41 50       	subi	r20, 0x01	; 1
    201a:	51 09       	sbc	r21, r1
    201c:	79 f0       	breq	.+30     	; 0x203c <Get_GPIORawState+0x34>
    201e:	41 30       	cpi	r20, 0x01	; 1
    2020:	51 05       	cpc	r21, r1
    2022:	89 f4       	brne	.+34     	; 0x2046 <Get_GPIORawState+0x3e>
    2024:	9e bd       	out	0x2e, r25	; 46
    2026:	0d b4       	in	r0, 0x2d	; 45
    2028:	07 fe       	sbrs	r0, 7
    202a:	fd cf       	rjmp	.-6      	; 0x2026 <Get_GPIORawState+0x1e>
    202c:	8e b5       	in	r24, 0x2e	; 46
    202e:	2f 5f       	subi	r18, 0xFF	; 255
    2030:	3f 4f       	sbci	r19, 0xFF	; 255
    2032:	31 97       	sbiw	r30, 0x01	; 1
    2034:	a9 01       	movw	r20, r18
    2036:	41 50       	subi	r20, 0x01	; 1
    2038:	51 09       	sbc	r21, r1
    203a:	89 f7       	brne	.-30     	; 0x201e <Get_GPIORawState+0x16>
    203c:	6e bd       	out	0x2e, r22	; 46
    203e:	0d b4       	in	r0, 0x2d	; 45
    2040:	07 fe       	sbrs	r0, 7
    2042:	fd cf       	rjmp	.-6      	; 0x203e <Get_GPIORawState+0x36>
    2044:	f3 cf       	rjmp	.-26     	; 0x202c <Get_GPIORawState+0x24>
    2046:	1e bc       	out	0x2e, r1	; 46
    2048:	0d b4       	in	r0, 0x2d	; 45
    204a:	07 fe       	sbrs	r0, 7
    204c:	fd cf       	rjmp	.-6      	; 0x2048 <Get_GPIORawState+0x40>
    204e:	8e b5       	in	r24, 0x2e	; 46
    2050:	80 83       	st	Z, r24
    2052:	26 30       	cpi	r18, 0x06	; 6
    2054:	31 05       	cpc	r19, r1
    2056:	59 f7       	brne	.-42     	; 0x202e <Get_GPIORawState+0x26>
    2058:	2c 9a       	sbi	0x05, 4	; 5
    205a:	08 95       	ret

0000205c <Get_DigitalReceiverConfiguration>:
    205c:	bf 92       	push	r11
    205e:	cf 92       	push	r12
    2060:	df 92       	push	r13
    2062:	ef 92       	push	r14
    2064:	ff 92       	push	r15
    2066:	0f 93       	push	r16
    2068:	1f 93       	push	r17
    206a:	cf 93       	push	r28
    206c:	df 93       	push	r29
    206e:	2c 98       	cbi	0x05, 4	; 5
    2070:	ec 01       	movw	r28, r24
    2072:	23 96       	adiw	r28, 0x03	; 3
    2074:	e1 e0       	ldi	r30, 0x01	; 1
    2076:	f0 e0       	ldi	r31, 0x00	; 0
    2078:	87 e6       	ldi	r24, 0x67	; 103
    207a:	b8 2e       	mov	r11, r24
    207c:	92 e0       	ldi	r25, 0x02	; 2
    207e:	df 01       	movw	r26, r30
    2080:	11 97       	sbiw	r26, 0x01	; 1
    2082:	61 f0       	breq	.+24     	; 0x209c <Get_DigitalReceiverConfiguration+0x40>
    2084:	11 97       	sbiw	r26, 0x01	; 1
    2086:	79 f4       	brne	.+30     	; 0x20a6 <Get_DigitalReceiverConfiguration+0x4a>
    2088:	9e bd       	out	0x2e, r25	; 46
    208a:	0d b4       	in	r0, 0x2d	; 45
    208c:	07 fe       	sbrs	r0, 7
    208e:	fd cf       	rjmp	.-6      	; 0x208a <Get_DigitalReceiverConfiguration+0x2e>
    2090:	8e b5       	in	r24, 0x2e	; 46
    2092:	31 96       	adiw	r30, 0x01	; 1
    2094:	21 97       	sbiw	r28, 0x01	; 1
    2096:	df 01       	movw	r26, r30
    2098:	11 97       	sbiw	r26, 0x01	; 1
    209a:	a1 f7       	brne	.-24     	; 0x2084 <Get_DigitalReceiverConfiguration+0x28>
    209c:	be bc       	out	0x2e, r11	; 46
    209e:	0d b4       	in	r0, 0x2d	; 45
    20a0:	07 fe       	sbrs	r0, 7
    20a2:	fd cf       	rjmp	.-6      	; 0x209e <Get_DigitalReceiverConfiguration+0x42>
    20a4:	f5 cf       	rjmp	.-22     	; 0x2090 <Get_DigitalReceiverConfiguration+0x34>
    20a6:	1e bc       	out	0x2e, r1	; 46
    20a8:	0d b4       	in	r0, 0x2d	; 45
    20aa:	07 fe       	sbrs	r0, 7
    20ac:	fd cf       	rjmp	.-6      	; 0x20a8 <Get_DigitalReceiverConfiguration+0x4c>
    20ae:	8e b5       	in	r24, 0x2e	; 46
    20b0:	88 83       	st	Y, r24
    20b2:	e4 30       	cpi	r30, 0x04	; 4
    20b4:	f1 05       	cpc	r31, r1
    20b6:	69 f7       	brne	.-38     	; 0x2092 <Get_DigitalReceiverConfiguration+0x36>
    20b8:	2c 9a       	sbi	0x05, 4	; 5
    20ba:	2c 98       	cbi	0x05, 4	; 5
    20bc:	db 01       	movw	r26, r22
    20be:	13 96       	adiw	r26, 0x03	; 3
    20c0:	81 e0       	ldi	r24, 0x01	; 1
    20c2:	90 e0       	ldi	r25, 0x00	; 0
    20c4:	c7 e6       	ldi	r28, 0x67	; 103
    20c6:	74 e0       	ldi	r23, 0x04	; 4
    20c8:	fc 01       	movw	r30, r24
    20ca:	31 97       	sbiw	r30, 0x01	; 1
    20cc:	61 f0       	breq	.+24     	; 0x20e6 <Get_DigitalReceiverConfiguration+0x8a>
    20ce:	31 97       	sbiw	r30, 0x01	; 1
    20d0:	79 f4       	brne	.+30     	; 0x20f0 <Get_DigitalReceiverConfiguration+0x94>
    20d2:	7e bd       	out	0x2e, r23	; 46
    20d4:	0d b4       	in	r0, 0x2d	; 45
    20d6:	07 fe       	sbrs	r0, 7
    20d8:	fd cf       	rjmp	.-6      	; 0x20d4 <Get_DigitalReceiverConfiguration+0x78>
    20da:	6e b5       	in	r22, 0x2e	; 46
    20dc:	01 96       	adiw	r24, 0x01	; 1
    20de:	11 97       	sbiw	r26, 0x01	; 1
    20e0:	fc 01       	movw	r30, r24
    20e2:	31 97       	sbiw	r30, 0x01	; 1
    20e4:	a1 f7       	brne	.-24     	; 0x20ce <Get_DigitalReceiverConfiguration+0x72>
    20e6:	ce bd       	out	0x2e, r28	; 46
    20e8:	0d b4       	in	r0, 0x2d	; 45
    20ea:	07 fe       	sbrs	r0, 7
    20ec:	fd cf       	rjmp	.-6      	; 0x20e8 <Get_DigitalReceiverConfiguration+0x8c>
    20ee:	f5 cf       	rjmp	.-22     	; 0x20da <Get_DigitalReceiverConfiguration+0x7e>
    20f0:	1e bc       	out	0x2e, r1	; 46
    20f2:	0d b4       	in	r0, 0x2d	; 45
    20f4:	07 fe       	sbrs	r0, 7
    20f6:	fd cf       	rjmp	.-6      	; 0x20f2 <Get_DigitalReceiverConfiguration+0x96>
    20f8:	6e b5       	in	r22, 0x2e	; 46
    20fa:	6c 93       	st	X, r22
    20fc:	84 30       	cpi	r24, 0x04	; 4
    20fe:	91 05       	cpc	r25, r1
    2100:	69 f7       	brne	.-38     	; 0x20dc <Get_DigitalReceiverConfiguration+0x80>
    2102:	2c 9a       	sbi	0x05, 4	; 5
    2104:	2c 98       	cbi	0x05, 4	; 5
    2106:	fa 01       	movw	r30, r20
    2108:	33 96       	adiw	r30, 0x03	; 3
    210a:	81 e0       	ldi	r24, 0x01	; 1
    210c:	90 e0       	ldi	r25, 0x00	; 0
    210e:	a7 e6       	ldi	r26, 0x67	; 103
    2110:	56 e0       	ldi	r21, 0x06	; 6
    2112:	bc 01       	movw	r22, r24
    2114:	61 50       	subi	r22, 0x01	; 1
    2116:	71 09       	sbc	r23, r1
    2118:	71 f0       	breq	.+28     	; 0x2136 <Get_DigitalReceiverConfiguration+0xda>
    211a:	61 30       	cpi	r22, 0x01	; 1
    211c:	71 05       	cpc	r23, r1
    211e:	81 f4       	brne	.+32     	; 0x2140 <Get_DigitalReceiverConfiguration+0xe4>
    2120:	5e bd       	out	0x2e, r21	; 46
    2122:	0d b4       	in	r0, 0x2d	; 45
    2124:	07 fe       	sbrs	r0, 7
    2126:	fd cf       	rjmp	.-6      	; 0x2122 <Get_DigitalReceiverConfiguration+0xc6>
    2128:	4e b5       	in	r20, 0x2e	; 46
    212a:	01 96       	adiw	r24, 0x01	; 1
    212c:	31 97       	sbiw	r30, 0x01	; 1
    212e:	bc 01       	movw	r22, r24
    2130:	61 50       	subi	r22, 0x01	; 1
    2132:	71 09       	sbc	r23, r1
    2134:	91 f7       	brne	.-28     	; 0x211a <Get_DigitalReceiverConfiguration+0xbe>
    2136:	ae bd       	out	0x2e, r26	; 46
    2138:	0d b4       	in	r0, 0x2d	; 45
    213a:	07 fe       	sbrs	r0, 7
    213c:	fd cf       	rjmp	.-6      	; 0x2138 <Get_DigitalReceiverConfiguration+0xdc>
    213e:	f4 cf       	rjmp	.-24     	; 0x2128 <Get_DigitalReceiverConfiguration+0xcc>
    2140:	1e bc       	out	0x2e, r1	; 46
    2142:	0d b4       	in	r0, 0x2d	; 45
    2144:	07 fe       	sbrs	r0, 7
    2146:	fd cf       	rjmp	.-6      	; 0x2142 <Get_DigitalReceiverConfiguration+0xe6>
    2148:	4e b5       	in	r20, 0x2e	; 46
    214a:	40 83       	st	Z, r20
    214c:	84 30       	cpi	r24, 0x04	; 4
    214e:	91 05       	cpc	r25, r1
    2150:	61 f7       	brne	.-40     	; 0x212a <Get_DigitalReceiverConfiguration+0xce>
    2152:	2c 9a       	sbi	0x05, 4	; 5
    2154:	2c 98       	cbi	0x05, 4	; 5
    2156:	f9 01       	movw	r30, r18
    2158:	35 96       	adiw	r30, 0x05	; 5
    215a:	81 e0       	ldi	r24, 0x01	; 1
    215c:	90 e0       	ldi	r25, 0x00	; 0
    215e:	67 e6       	ldi	r22, 0x67	; 103
    2160:	38 e0       	ldi	r19, 0x08	; 8
    2162:	ac 01       	movw	r20, r24
    2164:	41 50       	subi	r20, 0x01	; 1
    2166:	51 09       	sbc	r21, r1
    2168:	71 f0       	breq	.+28     	; 0x2186 <Get_DigitalReceiverConfiguration+0x12a>
    216a:	41 30       	cpi	r20, 0x01	; 1
    216c:	51 05       	cpc	r21, r1
    216e:	81 f4       	brne	.+32     	; 0x2190 <Get_DigitalReceiverConfiguration+0x134>
    2170:	3e bd       	out	0x2e, r19	; 46
    2172:	0d b4       	in	r0, 0x2d	; 45
    2174:	07 fe       	sbrs	r0, 7
    2176:	fd cf       	rjmp	.-6      	; 0x2172 <Get_DigitalReceiverConfiguration+0x116>
    2178:	2e b5       	in	r18, 0x2e	; 46
    217a:	01 96       	adiw	r24, 0x01	; 1
    217c:	31 97       	sbiw	r30, 0x01	; 1
    217e:	ac 01       	movw	r20, r24
    2180:	41 50       	subi	r20, 0x01	; 1
    2182:	51 09       	sbc	r21, r1
    2184:	91 f7       	brne	.-28     	; 0x216a <Get_DigitalReceiverConfiguration+0x10e>
    2186:	6e bd       	out	0x2e, r22	; 46
    2188:	0d b4       	in	r0, 0x2d	; 45
    218a:	07 fe       	sbrs	r0, 7
    218c:	fd cf       	rjmp	.-6      	; 0x2188 <Get_DigitalReceiverConfiguration+0x12c>
    218e:	f4 cf       	rjmp	.-24     	; 0x2178 <Get_DigitalReceiverConfiguration+0x11c>
    2190:	1e bc       	out	0x2e, r1	; 46
    2192:	0d b4       	in	r0, 0x2d	; 45
    2194:	07 fe       	sbrs	r0, 7
    2196:	fd cf       	rjmp	.-6      	; 0x2192 <Get_DigitalReceiverConfiguration+0x136>
    2198:	2e b5       	in	r18, 0x2e	; 46
    219a:	20 83       	st	Z, r18
    219c:	86 30       	cpi	r24, 0x06	; 6
    219e:	91 05       	cpc	r25, r1
    21a0:	61 f7       	brne	.-40     	; 0x217a <Get_DigitalReceiverConfiguration+0x11e>
    21a2:	2c 9a       	sbi	0x05, 4	; 5
    21a4:	2c 98       	cbi	0x05, 4	; 5
    21a6:	f8 01       	movw	r30, r16
    21a8:	33 96       	adiw	r30, 0x03	; 3
    21aa:	81 e0       	ldi	r24, 0x01	; 1
    21ac:	90 e0       	ldi	r25, 0x00	; 0
    21ae:	57 e6       	ldi	r21, 0x67	; 103
    21b0:	40 e2       	ldi	r20, 0x20	; 32
    21b2:	9c 01       	movw	r18, r24
    21b4:	21 50       	subi	r18, 0x01	; 1
    21b6:	31 09       	sbc	r19, r1
    21b8:	71 f0       	breq	.+28     	; 0x21d6 <Get_DigitalReceiverConfiguration+0x17a>
    21ba:	21 30       	cpi	r18, 0x01	; 1
    21bc:	31 05       	cpc	r19, r1
    21be:	81 f4       	brne	.+32     	; 0x21e0 <Get_DigitalReceiverConfiguration+0x184>
    21c0:	4e bd       	out	0x2e, r20	; 46
    21c2:	0d b4       	in	r0, 0x2d	; 45
    21c4:	07 fe       	sbrs	r0, 7
    21c6:	fd cf       	rjmp	.-6      	; 0x21c2 <Get_DigitalReceiverConfiguration+0x166>
    21c8:	2e b5       	in	r18, 0x2e	; 46
    21ca:	01 96       	adiw	r24, 0x01	; 1
    21cc:	31 97       	sbiw	r30, 0x01	; 1
    21ce:	9c 01       	movw	r18, r24
    21d0:	21 50       	subi	r18, 0x01	; 1
    21d2:	31 09       	sbc	r19, r1
    21d4:	91 f7       	brne	.-28     	; 0x21ba <Get_DigitalReceiverConfiguration+0x15e>
    21d6:	5e bd       	out	0x2e, r21	; 46
    21d8:	0d b4       	in	r0, 0x2d	; 45
    21da:	07 fe       	sbrs	r0, 7
    21dc:	fd cf       	rjmp	.-6      	; 0x21d8 <Get_DigitalReceiverConfiguration+0x17c>
    21de:	f4 cf       	rjmp	.-24     	; 0x21c8 <Get_DigitalReceiverConfiguration+0x16c>
    21e0:	1e bc       	out	0x2e, r1	; 46
    21e2:	0d b4       	in	r0, 0x2d	; 45
    21e4:	07 fe       	sbrs	r0, 7
    21e6:	fd cf       	rjmp	.-6      	; 0x21e2 <Get_DigitalReceiverConfiguration+0x186>
    21e8:	2e b5       	in	r18, 0x2e	; 46
    21ea:	20 83       	st	Z, r18
    21ec:	84 30       	cpi	r24, 0x04	; 4
    21ee:	91 05       	cpc	r25, r1
    21f0:	61 f7       	brne	.-40     	; 0x21ca <Get_DigitalReceiverConfiguration+0x16e>
    21f2:	2c 9a       	sbi	0x05, 4	; 5
    21f4:	2c 98       	cbi	0x05, 4	; 5
    21f6:	f7 01       	movw	r30, r14
    21f8:	33 96       	adiw	r30, 0x03	; 3
    21fa:	81 e0       	ldi	r24, 0x01	; 1
    21fc:	90 e0       	ldi	r25, 0x00	; 0
    21fe:	57 e6       	ldi	r21, 0x67	; 103
    2200:	44 e2       	ldi	r20, 0x24	; 36
    2202:	9c 01       	movw	r18, r24
    2204:	21 50       	subi	r18, 0x01	; 1
    2206:	31 09       	sbc	r19, r1
    2208:	71 f0       	breq	.+28     	; 0x2226 <Get_DigitalReceiverConfiguration+0x1ca>
    220a:	21 30       	cpi	r18, 0x01	; 1
    220c:	31 05       	cpc	r19, r1
    220e:	81 f4       	brne	.+32     	; 0x2230 <Get_DigitalReceiverConfiguration+0x1d4>
    2210:	4e bd       	out	0x2e, r20	; 46
    2212:	0d b4       	in	r0, 0x2d	; 45
    2214:	07 fe       	sbrs	r0, 7
    2216:	fd cf       	rjmp	.-6      	; 0x2212 <Get_DigitalReceiverConfiguration+0x1b6>
    2218:	2e b5       	in	r18, 0x2e	; 46
    221a:	01 96       	adiw	r24, 0x01	; 1
    221c:	31 97       	sbiw	r30, 0x01	; 1
    221e:	9c 01       	movw	r18, r24
    2220:	21 50       	subi	r18, 0x01	; 1
    2222:	31 09       	sbc	r19, r1
    2224:	91 f7       	brne	.-28     	; 0x220a <Get_DigitalReceiverConfiguration+0x1ae>
    2226:	5e bd       	out	0x2e, r21	; 46
    2228:	0d b4       	in	r0, 0x2d	; 45
    222a:	07 fe       	sbrs	r0, 7
    222c:	fd cf       	rjmp	.-6      	; 0x2228 <Get_DigitalReceiverConfiguration+0x1cc>
    222e:	f4 cf       	rjmp	.-24     	; 0x2218 <Get_DigitalReceiverConfiguration+0x1bc>
    2230:	1e bc       	out	0x2e, r1	; 46
    2232:	0d b4       	in	r0, 0x2d	; 45
    2234:	07 fe       	sbrs	r0, 7
    2236:	fd cf       	rjmp	.-6      	; 0x2232 <Get_DigitalReceiverConfiguration+0x1d6>
    2238:	2e b5       	in	r18, 0x2e	; 46
    223a:	20 83       	st	Z, r18
    223c:	84 30       	cpi	r24, 0x04	; 4
    223e:	91 05       	cpc	r25, r1
    2240:	61 f7       	brne	.-40     	; 0x221a <Get_DigitalReceiverConfiguration+0x1be>
    2242:	2c 9a       	sbi	0x05, 4	; 5
    2244:	2c 98       	cbi	0x05, 4	; 5
    2246:	f6 01       	movw	r30, r12
    2248:	33 96       	adiw	r30, 0x03	; 3
    224a:	81 e0       	ldi	r24, 0x01	; 1
    224c:	90 e0       	ldi	r25, 0x00	; 0
    224e:	57 e6       	ldi	r21, 0x67	; 103
    2250:	46 e2       	ldi	r20, 0x26	; 38
    2252:	9c 01       	movw	r18, r24
    2254:	21 50       	subi	r18, 0x01	; 1
    2256:	31 09       	sbc	r19, r1
    2258:	71 f0       	breq	.+28     	; 0x2276 <Get_DigitalReceiverConfiguration+0x21a>
    225a:	21 30       	cpi	r18, 0x01	; 1
    225c:	31 05       	cpc	r19, r1
    225e:	81 f4       	brne	.+32     	; 0x2280 <Get_DigitalReceiverConfiguration+0x224>
    2260:	4e bd       	out	0x2e, r20	; 46
    2262:	0d b4       	in	r0, 0x2d	; 45
    2264:	07 fe       	sbrs	r0, 7
    2266:	fd cf       	rjmp	.-6      	; 0x2262 <Get_DigitalReceiverConfiguration+0x206>
    2268:	2e b5       	in	r18, 0x2e	; 46
    226a:	01 96       	adiw	r24, 0x01	; 1
    226c:	31 97       	sbiw	r30, 0x01	; 1
    226e:	9c 01       	movw	r18, r24
    2270:	21 50       	subi	r18, 0x01	; 1
    2272:	31 09       	sbc	r19, r1
    2274:	91 f7       	brne	.-28     	; 0x225a <Get_DigitalReceiverConfiguration+0x1fe>
    2276:	5e bd       	out	0x2e, r21	; 46
    2278:	0d b4       	in	r0, 0x2d	; 45
    227a:	07 fe       	sbrs	r0, 7
    227c:	fd cf       	rjmp	.-6      	; 0x2278 <Get_DigitalReceiverConfiguration+0x21c>
    227e:	f4 cf       	rjmp	.-24     	; 0x2268 <Get_DigitalReceiverConfiguration+0x20c>
    2280:	1e bc       	out	0x2e, r1	; 46
    2282:	0d b4       	in	r0, 0x2d	; 45
    2284:	07 fe       	sbrs	r0, 7
    2286:	fd cf       	rjmp	.-6      	; 0x2282 <Get_DigitalReceiverConfiguration+0x226>
    2288:	2e b5       	in	r18, 0x2e	; 46
    228a:	20 83       	st	Z, r18
    228c:	84 30       	cpi	r24, 0x04	; 4
    228e:	91 05       	cpc	r25, r1
    2290:	61 f7       	brne	.-40     	; 0x226a <Get_DigitalReceiverConfiguration+0x20e>
    2292:	2c 9a       	sbi	0x05, 4	; 5
    2294:	df 91       	pop	r29
    2296:	cf 91       	pop	r28
    2298:	1f 91       	pop	r17
    229a:	0f 91       	pop	r16
    229c:	ff 90       	pop	r15
    229e:	ef 90       	pop	r14
    22a0:	df 90       	pop	r13
    22a2:	cf 90       	pop	r12
    22a4:	bf 90       	pop	r11
    22a6:	08 95       	ret

000022a8 <Get_AnalogRFConfigurationBlock>:
    22a8:	ef 92       	push	r14
    22aa:	ff 92       	push	r15
    22ac:	0f 93       	push	r16
    22ae:	1f 93       	push	r17
    22b0:	cf 93       	push	r28
    22b2:	df 93       	push	r29
    22b4:	2c 98       	cbi	0x05, 4	; 5
    22b6:	ec 01       	movw	r28, r24
    22b8:	25 96       	adiw	r28, 0x05	; 5
    22ba:	e1 e0       	ldi	r30, 0x01	; 1
    22bc:	f0 e0       	ldi	r31, 0x00	; 0
    22be:	98 e6       	ldi	r25, 0x68	; 104
    22c0:	df 01       	movw	r26, r30
    22c2:	11 97       	sbiw	r26, 0x01	; 1
    22c4:	61 f0       	breq	.+24     	; 0x22de <Get_AnalogRFConfigurationBlock+0x36>
    22c6:	11 97       	sbiw	r26, 0x01	; 1
    22c8:	79 f4       	brne	.+30     	; 0x22e8 <Get_AnalogRFConfigurationBlock+0x40>
    22ca:	1e bc       	out	0x2e, r1	; 46
    22cc:	0d b4       	in	r0, 0x2d	; 45
    22ce:	07 fe       	sbrs	r0, 7
    22d0:	fd cf       	rjmp	.-6      	; 0x22cc <Get_AnalogRFConfigurationBlock+0x24>
    22d2:	8e b5       	in	r24, 0x2e	; 46
    22d4:	31 96       	adiw	r30, 0x01	; 1
    22d6:	21 97       	sbiw	r28, 0x01	; 1
    22d8:	df 01       	movw	r26, r30
    22da:	11 97       	sbiw	r26, 0x01	; 1
    22dc:	a1 f7       	brne	.-24     	; 0x22c6 <Get_AnalogRFConfigurationBlock+0x1e>
    22de:	9e bd       	out	0x2e, r25	; 46
    22e0:	0d b4       	in	r0, 0x2d	; 45
    22e2:	07 fe       	sbrs	r0, 7
    22e4:	fd cf       	rjmp	.-6      	; 0x22e0 <Get_AnalogRFConfigurationBlock+0x38>
    22e6:	f5 cf       	rjmp	.-22     	; 0x22d2 <Get_AnalogRFConfigurationBlock+0x2a>
    22e8:	1e bc       	out	0x2e, r1	; 46
    22ea:	0d b4       	in	r0, 0x2d	; 45
    22ec:	07 fe       	sbrs	r0, 7
    22ee:	fd cf       	rjmp	.-6      	; 0x22ea <Get_AnalogRFConfigurationBlock+0x42>
    22f0:	8e b5       	in	r24, 0x2e	; 46
    22f2:	88 83       	st	Y, r24
    22f4:	e6 30       	cpi	r30, 0x06	; 6
    22f6:	f1 05       	cpc	r31, r1
    22f8:	69 f7       	brne	.-38     	; 0x22d4 <Get_AnalogRFConfigurationBlock+0x2c>
    22fa:	2c 9a       	sbi	0x05, 4	; 5
    22fc:	2c 98       	cbi	0x05, 4	; 5
    22fe:	eb 01       	movw	r28, r22
    2300:	22 96       	adiw	r28, 0x02	; 2
    2302:	81 e0       	ldi	r24, 0x01	; 1
    2304:	90 e0       	ldi	r25, 0x00	; 0
    2306:	b8 e6       	ldi	r27, 0x68	; 104
    2308:	ab e0       	ldi	r26, 0x0B	; 11
    230a:	fc 01       	movw	r30, r24
    230c:	31 97       	sbiw	r30, 0x01	; 1
    230e:	61 f0       	breq	.+24     	; 0x2328 <Get_AnalogRFConfigurationBlock+0x80>
    2310:	31 97       	sbiw	r30, 0x01	; 1
    2312:	79 f4       	brne	.+30     	; 0x2332 <Get_AnalogRFConfigurationBlock+0x8a>
    2314:	ae bd       	out	0x2e, r26	; 46
    2316:	0d b4       	in	r0, 0x2d	; 45
    2318:	07 fe       	sbrs	r0, 7
    231a:	fd cf       	rjmp	.-6      	; 0x2316 <Get_AnalogRFConfigurationBlock+0x6e>
    231c:	ee b5       	in	r30, 0x2e	; 46
    231e:	01 96       	adiw	r24, 0x01	; 1
    2320:	21 97       	sbiw	r28, 0x01	; 1
    2322:	fc 01       	movw	r30, r24
    2324:	31 97       	sbiw	r30, 0x01	; 1
    2326:	a1 f7       	brne	.-24     	; 0x2310 <Get_AnalogRFConfigurationBlock+0x68>
    2328:	be bd       	out	0x2e, r27	; 46
    232a:	0d b4       	in	r0, 0x2d	; 45
    232c:	07 fe       	sbrs	r0, 7
    232e:	fd cf       	rjmp	.-6      	; 0x232a <Get_AnalogRFConfigurationBlock+0x82>
    2330:	f5 cf       	rjmp	.-22     	; 0x231c <Get_AnalogRFConfigurationBlock+0x74>
    2332:	1e bc       	out	0x2e, r1	; 46
    2334:	0d b4       	in	r0, 0x2d	; 45
    2336:	07 fe       	sbrs	r0, 7
    2338:	fd cf       	rjmp	.-6      	; 0x2334 <Get_AnalogRFConfigurationBlock+0x8c>
    233a:	ee b5       	in	r30, 0x2e	; 46
    233c:	e8 83       	st	Y, r30
    233e:	83 30       	cpi	r24, 0x03	; 3
    2340:	91 05       	cpc	r25, r1
    2342:	69 f7       	brne	.-38     	; 0x231e <Get_AnalogRFConfigurationBlock+0x76>
    2344:	2c 9a       	sbi	0x05, 4	; 5
    2346:	2c 98       	cbi	0x05, 4	; 5
    2348:	fa 01       	movw	r30, r20
    234a:	34 96       	adiw	r30, 0x04	; 4
    234c:	81 e0       	ldi	r24, 0x01	; 1
    234e:	90 e0       	ldi	r25, 0x00	; 0
    2350:	a8 e6       	ldi	r26, 0x68	; 104
    2352:	5c e0       	ldi	r21, 0x0C	; 12
    2354:	bc 01       	movw	r22, r24
    2356:	61 50       	subi	r22, 0x01	; 1
    2358:	71 09       	sbc	r23, r1
    235a:	71 f0       	breq	.+28     	; 0x2378 <Get_AnalogRFConfigurationBlock+0xd0>
    235c:	61 30       	cpi	r22, 0x01	; 1
    235e:	71 05       	cpc	r23, r1
    2360:	81 f4       	brne	.+32     	; 0x2382 <Get_AnalogRFConfigurationBlock+0xda>
    2362:	5e bd       	out	0x2e, r21	; 46
    2364:	0d b4       	in	r0, 0x2d	; 45
    2366:	07 fe       	sbrs	r0, 7
    2368:	fd cf       	rjmp	.-6      	; 0x2364 <Get_AnalogRFConfigurationBlock+0xbc>
    236a:	4e b5       	in	r20, 0x2e	; 46
    236c:	01 96       	adiw	r24, 0x01	; 1
    236e:	31 97       	sbiw	r30, 0x01	; 1
    2370:	bc 01       	movw	r22, r24
    2372:	61 50       	subi	r22, 0x01	; 1
    2374:	71 09       	sbc	r23, r1
    2376:	91 f7       	brne	.-28     	; 0x235c <Get_AnalogRFConfigurationBlock+0xb4>
    2378:	ae bd       	out	0x2e, r26	; 46
    237a:	0d b4       	in	r0, 0x2d	; 45
    237c:	07 fe       	sbrs	r0, 7
    237e:	fd cf       	rjmp	.-6      	; 0x237a <Get_AnalogRFConfigurationBlock+0xd2>
    2380:	f4 cf       	rjmp	.-24     	; 0x236a <Get_AnalogRFConfigurationBlock+0xc2>
    2382:	1e bc       	out	0x2e, r1	; 46
    2384:	0d b4       	in	r0, 0x2d	; 45
    2386:	07 fe       	sbrs	r0, 7
    2388:	fd cf       	rjmp	.-6      	; 0x2384 <Get_AnalogRFConfigurationBlock+0xdc>
    238a:	4e b5       	in	r20, 0x2e	; 46
    238c:	40 83       	st	Z, r20
    238e:	85 30       	cpi	r24, 0x05	; 5
    2390:	91 05       	cpc	r25, r1
    2392:	61 f7       	brne	.-40     	; 0x236c <Get_AnalogRFConfigurationBlock+0xc4>
    2394:	2c 9a       	sbi	0x05, 4	; 5
    2396:	2c 98       	cbi	0x05, 4	; 5
    2398:	f9 01       	movw	r30, r18
    239a:	35 96       	adiw	r30, 0x05	; 5
    239c:	81 e0       	ldi	r24, 0x01	; 1
    239e:	90 e0       	ldi	r25, 0x00	; 0
    23a0:	68 e6       	ldi	r22, 0x68	; 104
    23a2:	3c e2       	ldi	r19, 0x2C	; 44
    23a4:	ac 01       	movw	r20, r24
    23a6:	41 50       	subi	r20, 0x01	; 1
    23a8:	51 09       	sbc	r21, r1
    23aa:	71 f0       	breq	.+28     	; 0x23c8 <Get_AnalogRFConfigurationBlock+0x120>
    23ac:	41 30       	cpi	r20, 0x01	; 1
    23ae:	51 05       	cpc	r21, r1
    23b0:	81 f4       	brne	.+32     	; 0x23d2 <Get_AnalogRFConfigurationBlock+0x12a>
    23b2:	3e bd       	out	0x2e, r19	; 46
    23b4:	0d b4       	in	r0, 0x2d	; 45
    23b6:	07 fe       	sbrs	r0, 7
    23b8:	fd cf       	rjmp	.-6      	; 0x23b4 <Get_AnalogRFConfigurationBlock+0x10c>
    23ba:	2e b5       	in	r18, 0x2e	; 46
    23bc:	01 96       	adiw	r24, 0x01	; 1
    23be:	31 97       	sbiw	r30, 0x01	; 1
    23c0:	ac 01       	movw	r20, r24
    23c2:	41 50       	subi	r20, 0x01	; 1
    23c4:	51 09       	sbc	r21, r1
    23c6:	91 f7       	brne	.-28     	; 0x23ac <Get_AnalogRFConfigurationBlock+0x104>
    23c8:	6e bd       	out	0x2e, r22	; 46
    23ca:	0d b4       	in	r0, 0x2d	; 45
    23cc:	07 fe       	sbrs	r0, 7
    23ce:	fd cf       	rjmp	.-6      	; 0x23ca <Get_AnalogRFConfigurationBlock+0x122>
    23d0:	f4 cf       	rjmp	.-24     	; 0x23ba <Get_AnalogRFConfigurationBlock+0x112>
    23d2:	1e bc       	out	0x2e, r1	; 46
    23d4:	0d b4       	in	r0, 0x2d	; 45
    23d6:	07 fe       	sbrs	r0, 7
    23d8:	fd cf       	rjmp	.-6      	; 0x23d4 <Get_AnalogRFConfigurationBlock+0x12c>
    23da:	2e b5       	in	r18, 0x2e	; 46
    23dc:	20 83       	st	Z, r18
    23de:	86 30       	cpi	r24, 0x06	; 6
    23e0:	91 05       	cpc	r25, r1
    23e2:	61 f7       	brne	.-40     	; 0x23bc <Get_AnalogRFConfigurationBlock+0x114>
    23e4:	2c 9a       	sbi	0x05, 4	; 5
    23e6:	2c 98       	cbi	0x05, 4	; 5
    23e8:	f8 01       	movw	r30, r16
    23ea:	35 96       	adiw	r30, 0x05	; 5
    23ec:	81 e0       	ldi	r24, 0x01	; 1
    23ee:	90 e0       	ldi	r25, 0x00	; 0
    23f0:	58 e6       	ldi	r21, 0x68	; 104
    23f2:	40 e3       	ldi	r20, 0x30	; 48
    23f4:	9c 01       	movw	r18, r24
    23f6:	21 50       	subi	r18, 0x01	; 1
    23f8:	31 09       	sbc	r19, r1
    23fa:	71 f0       	breq	.+28     	; 0x2418 <Get_AnalogRFConfigurationBlock+0x170>
    23fc:	21 30       	cpi	r18, 0x01	; 1
    23fe:	31 05       	cpc	r19, r1
    2400:	81 f4       	brne	.+32     	; 0x2422 <Get_AnalogRFConfigurationBlock+0x17a>
    2402:	4e bd       	out	0x2e, r20	; 46
    2404:	0d b4       	in	r0, 0x2d	; 45
    2406:	07 fe       	sbrs	r0, 7
    2408:	fd cf       	rjmp	.-6      	; 0x2404 <Get_AnalogRFConfigurationBlock+0x15c>
    240a:	2e b5       	in	r18, 0x2e	; 46
    240c:	01 96       	adiw	r24, 0x01	; 1
    240e:	31 97       	sbiw	r30, 0x01	; 1
    2410:	9c 01       	movw	r18, r24
    2412:	21 50       	subi	r18, 0x01	; 1
    2414:	31 09       	sbc	r19, r1
    2416:	91 f7       	brne	.-28     	; 0x23fc <Get_AnalogRFConfigurationBlock+0x154>
    2418:	5e bd       	out	0x2e, r21	; 46
    241a:	0d b4       	in	r0, 0x2d	; 45
    241c:	07 fe       	sbrs	r0, 7
    241e:	fd cf       	rjmp	.-6      	; 0x241a <Get_AnalogRFConfigurationBlock+0x172>
    2420:	f4 cf       	rjmp	.-24     	; 0x240a <Get_AnalogRFConfigurationBlock+0x162>
    2422:	1e bc       	out	0x2e, r1	; 46
    2424:	0d b4       	in	r0, 0x2d	; 45
    2426:	07 fe       	sbrs	r0, 7
    2428:	fd cf       	rjmp	.-6      	; 0x2424 <Get_AnalogRFConfigurationBlock+0x17c>
    242a:	2e b5       	in	r18, 0x2e	; 46
    242c:	20 83       	st	Z, r18
    242e:	86 30       	cpi	r24, 0x06	; 6
    2430:	91 05       	cpc	r25, r1
    2432:	61 f7       	brne	.-40     	; 0x240c <Get_AnalogRFConfigurationBlock+0x164>
    2434:	2c 9a       	sbi	0x05, 4	; 5
    2436:	2c 98       	cbi	0x05, 4	; 5
    2438:	f7 01       	movw	r30, r14
    243a:	32 96       	adiw	r30, 0x02	; 2
    243c:	81 e0       	ldi	r24, 0x01	; 1
    243e:	90 e0       	ldi	r25, 0x00	; 0
    2440:	58 e6       	ldi	r21, 0x68	; 104
    2442:	44 e3       	ldi	r20, 0x34	; 52
    2444:	9c 01       	movw	r18, r24
    2446:	21 50       	subi	r18, 0x01	; 1
    2448:	31 09       	sbc	r19, r1
    244a:	71 f0       	breq	.+28     	; 0x2468 <Get_AnalogRFConfigurationBlock+0x1c0>
    244c:	21 30       	cpi	r18, 0x01	; 1
    244e:	31 05       	cpc	r19, r1
    2450:	81 f4       	brne	.+32     	; 0x2472 <Get_AnalogRFConfigurationBlock+0x1ca>
    2452:	4e bd       	out	0x2e, r20	; 46
    2454:	0d b4       	in	r0, 0x2d	; 45
    2456:	07 fe       	sbrs	r0, 7
    2458:	fd cf       	rjmp	.-6      	; 0x2454 <Get_AnalogRFConfigurationBlock+0x1ac>
    245a:	2e b5       	in	r18, 0x2e	; 46
    245c:	01 96       	adiw	r24, 0x01	; 1
    245e:	31 97       	sbiw	r30, 0x01	; 1
    2460:	9c 01       	movw	r18, r24
    2462:	21 50       	subi	r18, 0x01	; 1
    2464:	31 09       	sbc	r19, r1
    2466:	91 f7       	brne	.-28     	; 0x244c <Get_AnalogRFConfigurationBlock+0x1a4>
    2468:	5e bd       	out	0x2e, r21	; 46
    246a:	0d b4       	in	r0, 0x2d	; 45
    246c:	07 fe       	sbrs	r0, 7
    246e:	fd cf       	rjmp	.-6      	; 0x246a <Get_AnalogRFConfigurationBlock+0x1c2>
    2470:	f4 cf       	rjmp	.-24     	; 0x245a <Get_AnalogRFConfigurationBlock+0x1b2>
    2472:	1e bc       	out	0x2e, r1	; 46
    2474:	0d b4       	in	r0, 0x2d	; 45
    2476:	07 fe       	sbrs	r0, 7
    2478:	fd cf       	rjmp	.-6      	; 0x2474 <Get_AnalogRFConfigurationBlock+0x1cc>
    247a:	2e b5       	in	r18, 0x2e	; 46
    247c:	20 83       	st	Z, r18
    247e:	83 30       	cpi	r24, 0x03	; 3
    2480:	91 05       	cpc	r25, r1
    2482:	61 f7       	brne	.-40     	; 0x245c <Get_AnalogRFConfigurationBlock+0x1b4>
    2484:	2c 9a       	sbi	0x05, 4	; 5
    2486:	df 91       	pop	r29
    2488:	cf 91       	pop	r28
    248a:	1f 91       	pop	r17
    248c:	0f 91       	pop	r16
    248e:	ff 90       	pop	r15
    2490:	ef 90       	pop	r14
    2492:	08 95       	ret

00002494 <Get_TransimtterCalibrationBlock>:
    2494:	0f 93       	push	r16
    2496:	1f 93       	push	r17
    2498:	cf 93       	push	r28
    249a:	df 93       	push	r29
    249c:	2c 98       	cbi	0x05, 4	; 5
    249e:	ec 01       	movw	r28, r24
    24a0:	23 96       	adiw	r28, 0x03	; 3
    24a2:	e1 e0       	ldi	r30, 0x01	; 1
    24a4:	f0 e0       	ldi	r31, 0x00	; 0
    24a6:	9a e6       	ldi	r25, 0x6A	; 106
    24a8:	df 01       	movw	r26, r30
    24aa:	11 97       	sbiw	r26, 0x01	; 1
    24ac:	61 f0       	breq	.+24     	; 0x24c6 <Get_TransimtterCalibrationBlock+0x32>
    24ae:	11 97       	sbiw	r26, 0x01	; 1
    24b0:	79 f4       	brne	.+30     	; 0x24d0 <Get_TransimtterCalibrationBlock+0x3c>
    24b2:	1e bc       	out	0x2e, r1	; 46
    24b4:	0d b4       	in	r0, 0x2d	; 45
    24b6:	07 fe       	sbrs	r0, 7
    24b8:	fd cf       	rjmp	.-6      	; 0x24b4 <Get_TransimtterCalibrationBlock+0x20>
    24ba:	8e b5       	in	r24, 0x2e	; 46
    24bc:	31 96       	adiw	r30, 0x01	; 1
    24be:	21 97       	sbiw	r28, 0x01	; 1
    24c0:	df 01       	movw	r26, r30
    24c2:	11 97       	sbiw	r26, 0x01	; 1
    24c4:	a1 f7       	brne	.-24     	; 0x24ae <Get_TransimtterCalibrationBlock+0x1a>
    24c6:	9e bd       	out	0x2e, r25	; 46
    24c8:	0d b4       	in	r0, 0x2d	; 45
    24ca:	07 fe       	sbrs	r0, 7
    24cc:	fd cf       	rjmp	.-6      	; 0x24c8 <Get_TransimtterCalibrationBlock+0x34>
    24ce:	f5 cf       	rjmp	.-22     	; 0x24ba <Get_TransimtterCalibrationBlock+0x26>
    24d0:	1e bc       	out	0x2e, r1	; 46
    24d2:	0d b4       	in	r0, 0x2d	; 45
    24d4:	07 fe       	sbrs	r0, 7
    24d6:	fd cf       	rjmp	.-6      	; 0x24d2 <Get_TransimtterCalibrationBlock+0x3e>
    24d8:	8e b5       	in	r24, 0x2e	; 46
    24da:	88 83       	st	Y, r24
    24dc:	e4 30       	cpi	r30, 0x04	; 4
    24de:	f1 05       	cpc	r31, r1
    24e0:	69 f7       	brne	.-38     	; 0x24bc <Get_TransimtterCalibrationBlock+0x28>
    24e2:	2c 9a       	sbi	0x05, 4	; 5
    24e4:	2c 98       	cbi	0x05, 4	; 5
    24e6:	db 01       	movw	r26, r22
    24e8:	14 96       	adiw	r26, 0x04	; 4
    24ea:	81 e0       	ldi	r24, 0x01	; 1
    24ec:	90 e0       	ldi	r25, 0x00	; 0
    24ee:	ca e6       	ldi	r28, 0x6A	; 106
    24f0:	73 e0       	ldi	r23, 0x03	; 3
    24f2:	fc 01       	movw	r30, r24
    24f4:	31 97       	sbiw	r30, 0x01	; 1
    24f6:	61 f0       	breq	.+24     	; 0x2510 <Get_TransimtterCalibrationBlock+0x7c>
    24f8:	31 97       	sbiw	r30, 0x01	; 1
    24fa:	79 f4       	brne	.+30     	; 0x251a <Get_TransimtterCalibrationBlock+0x86>
    24fc:	7e bd       	out	0x2e, r23	; 46
    24fe:	0d b4       	in	r0, 0x2d	; 45
    2500:	07 fe       	sbrs	r0, 7
    2502:	fd cf       	rjmp	.-6      	; 0x24fe <Get_TransimtterCalibrationBlock+0x6a>
    2504:	6e b5       	in	r22, 0x2e	; 46
    2506:	01 96       	adiw	r24, 0x01	; 1
    2508:	11 97       	sbiw	r26, 0x01	; 1
    250a:	fc 01       	movw	r30, r24
    250c:	31 97       	sbiw	r30, 0x01	; 1
    250e:	a1 f7       	brne	.-24     	; 0x24f8 <Get_TransimtterCalibrationBlock+0x64>
    2510:	ce bd       	out	0x2e, r28	; 46
    2512:	0d b4       	in	r0, 0x2d	; 45
    2514:	07 fe       	sbrs	r0, 7
    2516:	fd cf       	rjmp	.-6      	; 0x2512 <Get_TransimtterCalibrationBlock+0x7e>
    2518:	f5 cf       	rjmp	.-22     	; 0x2504 <Get_TransimtterCalibrationBlock+0x70>
    251a:	1e bc       	out	0x2e, r1	; 46
    251c:	0d b4       	in	r0, 0x2d	; 45
    251e:	07 fe       	sbrs	r0, 7
    2520:	fd cf       	rjmp	.-6      	; 0x251c <Get_TransimtterCalibrationBlock+0x88>
    2522:	6e b5       	in	r22, 0x2e	; 46
    2524:	6c 93       	st	X, r22
    2526:	85 30       	cpi	r24, 0x05	; 5
    2528:	91 05       	cpc	r25, r1
    252a:	69 f7       	brne	.-38     	; 0x2506 <Get_TransimtterCalibrationBlock+0x72>
    252c:	2c 9a       	sbi	0x05, 4	; 5
    252e:	2c 98       	cbi	0x05, 4	; 5
    2530:	fa 01       	movw	r30, r20
    2532:	33 96       	adiw	r30, 0x03	; 3
    2534:	81 e0       	ldi	r24, 0x01	; 1
    2536:	90 e0       	ldi	r25, 0x00	; 0
    2538:	aa e6       	ldi	r26, 0x6A	; 106
    253a:	56 e0       	ldi	r21, 0x06	; 6
    253c:	bc 01       	movw	r22, r24
    253e:	61 50       	subi	r22, 0x01	; 1
    2540:	71 09       	sbc	r23, r1
    2542:	71 f0       	breq	.+28     	; 0x2560 <Get_TransimtterCalibrationBlock+0xcc>
    2544:	61 30       	cpi	r22, 0x01	; 1
    2546:	71 05       	cpc	r23, r1
    2548:	81 f4       	brne	.+32     	; 0x256a <Get_TransimtterCalibrationBlock+0xd6>
    254a:	5e bd       	out	0x2e, r21	; 46
    254c:	0d b4       	in	r0, 0x2d	; 45
    254e:	07 fe       	sbrs	r0, 7
    2550:	fd cf       	rjmp	.-6      	; 0x254c <Get_TransimtterCalibrationBlock+0xb8>
    2552:	4e b5       	in	r20, 0x2e	; 46
    2554:	01 96       	adiw	r24, 0x01	; 1
    2556:	31 97       	sbiw	r30, 0x01	; 1
    2558:	bc 01       	movw	r22, r24
    255a:	61 50       	subi	r22, 0x01	; 1
    255c:	71 09       	sbc	r23, r1
    255e:	91 f7       	brne	.-28     	; 0x2544 <Get_TransimtterCalibrationBlock+0xb0>
    2560:	ae bd       	out	0x2e, r26	; 46
    2562:	0d b4       	in	r0, 0x2d	; 45
    2564:	07 fe       	sbrs	r0, 7
    2566:	fd cf       	rjmp	.-6      	; 0x2562 <Get_TransimtterCalibrationBlock+0xce>
    2568:	f4 cf       	rjmp	.-24     	; 0x2552 <Get_TransimtterCalibrationBlock+0xbe>
    256a:	1e bc       	out	0x2e, r1	; 46
    256c:	0d b4       	in	r0, 0x2d	; 45
    256e:	07 fe       	sbrs	r0, 7
    2570:	fd cf       	rjmp	.-6      	; 0x256c <Get_TransimtterCalibrationBlock+0xd8>
    2572:	4e b5       	in	r20, 0x2e	; 46
    2574:	40 83       	st	Z, r20
    2576:	84 30       	cpi	r24, 0x04	; 4
    2578:	91 05       	cpc	r25, r1
    257a:	61 f7       	brne	.-40     	; 0x2554 <Get_TransimtterCalibrationBlock+0xc0>
    257c:	2c 9a       	sbi	0x05, 4	; 5
    257e:	2c 98       	cbi	0x05, 4	; 5
    2580:	f9 01       	movw	r30, r18
    2582:	32 96       	adiw	r30, 0x02	; 2
    2584:	81 e0       	ldi	r24, 0x01	; 1
    2586:	90 e0       	ldi	r25, 0x00	; 0
    2588:	7a e6       	ldi	r23, 0x6A	; 106
    258a:	6b e0       	ldi	r22, 0x0B	; 11
    258c:	ac 01       	movw	r20, r24
    258e:	41 50       	subi	r20, 0x01	; 1
    2590:	51 09       	sbc	r21, r1
    2592:	71 f0       	breq	.+28     	; 0x25b0 <Get_TransimtterCalibrationBlock+0x11c>
    2594:	41 30       	cpi	r20, 0x01	; 1
    2596:	51 05       	cpc	r21, r1
    2598:	81 f4       	brne	.+32     	; 0x25ba <Get_TransimtterCalibrationBlock+0x126>
    259a:	6e bd       	out	0x2e, r22	; 46
    259c:	0d b4       	in	r0, 0x2d	; 45
    259e:	07 fe       	sbrs	r0, 7
    25a0:	fd cf       	rjmp	.-6      	; 0x259c <Get_TransimtterCalibrationBlock+0x108>
    25a2:	4e b5       	in	r20, 0x2e	; 46
    25a4:	01 96       	adiw	r24, 0x01	; 1
    25a6:	31 97       	sbiw	r30, 0x01	; 1
    25a8:	ac 01       	movw	r20, r24
    25aa:	41 50       	subi	r20, 0x01	; 1
    25ac:	51 09       	sbc	r21, r1
    25ae:	91 f7       	brne	.-28     	; 0x2594 <Get_TransimtterCalibrationBlock+0x100>
    25b0:	7e bd       	out	0x2e, r23	; 46
    25b2:	0d b4       	in	r0, 0x2d	; 45
    25b4:	07 fe       	sbrs	r0, 7
    25b6:	fd cf       	rjmp	.-6      	; 0x25b2 <Get_TransimtterCalibrationBlock+0x11e>
    25b8:	f4 cf       	rjmp	.-24     	; 0x25a2 <Get_TransimtterCalibrationBlock+0x10e>
    25ba:	1e bc       	out	0x2e, r1	; 46
    25bc:	0d b4       	in	r0, 0x2d	; 45
    25be:	07 fe       	sbrs	r0, 7
    25c0:	fd cf       	rjmp	.-6      	; 0x25bc <Get_TransimtterCalibrationBlock+0x128>
    25c2:	4e b5       	in	r20, 0x2e	; 46
    25c4:	40 83       	st	Z, r20
    25c6:	83 30       	cpi	r24, 0x03	; 3
    25c8:	91 05       	cpc	r25, r1
    25ca:	61 f7       	brne	.-40     	; 0x25a4 <Get_TransimtterCalibrationBlock+0x110>
    25cc:	2c 9a       	sbi	0x05, 4	; 5
    25ce:	2c 98       	cbi	0x05, 4	; 5
    25d0:	f8 01       	movw	r30, r16
    25d2:	32 96       	adiw	r30, 0x02	; 2
    25d4:	81 e0       	ldi	r24, 0x01	; 1
    25d6:	90 e0       	ldi	r25, 0x00	; 0
    25d8:	5a e6       	ldi	r21, 0x6A	; 106
    25da:	4c e0       	ldi	r20, 0x0C	; 12
    25dc:	9c 01       	movw	r18, r24
    25de:	21 50       	subi	r18, 0x01	; 1
    25e0:	31 09       	sbc	r19, r1
    25e2:	71 f0       	breq	.+28     	; 0x2600 <Get_TransimtterCalibrationBlock+0x16c>
    25e4:	21 30       	cpi	r18, 0x01	; 1
    25e6:	31 05       	cpc	r19, r1
    25e8:	81 f4       	brne	.+32     	; 0x260a <Get_TransimtterCalibrationBlock+0x176>
    25ea:	4e bd       	out	0x2e, r20	; 46
    25ec:	0d b4       	in	r0, 0x2d	; 45
    25ee:	07 fe       	sbrs	r0, 7
    25f0:	fd cf       	rjmp	.-6      	; 0x25ec <Get_TransimtterCalibrationBlock+0x158>
    25f2:	2e b5       	in	r18, 0x2e	; 46
    25f4:	01 96       	adiw	r24, 0x01	; 1
    25f6:	31 97       	sbiw	r30, 0x01	; 1
    25f8:	9c 01       	movw	r18, r24
    25fa:	21 50       	subi	r18, 0x01	; 1
    25fc:	31 09       	sbc	r19, r1
    25fe:	91 f7       	brne	.-28     	; 0x25e4 <Get_TransimtterCalibrationBlock+0x150>
    2600:	5e bd       	out	0x2e, r21	; 46
    2602:	0d b4       	in	r0, 0x2d	; 45
    2604:	07 fe       	sbrs	r0, 7
    2606:	fd cf       	rjmp	.-6      	; 0x2602 <Get_TransimtterCalibrationBlock+0x16e>
    2608:	f4 cf       	rjmp	.-24     	; 0x25f2 <Get_TransimtterCalibrationBlock+0x15e>
    260a:	1e bc       	out	0x2e, r1	; 46
    260c:	0d b4       	in	r0, 0x2d	; 45
    260e:	07 fe       	sbrs	r0, 7
    2610:	fd cf       	rjmp	.-6      	; 0x260c <Get_TransimtterCalibrationBlock+0x178>
    2612:	2e b5       	in	r18, 0x2e	; 46
    2614:	20 83       	st	Z, r18
    2616:	83 30       	cpi	r24, 0x03	; 3
    2618:	91 05       	cpc	r25, r1
    261a:	61 f7       	brne	.-40     	; 0x25f4 <Get_TransimtterCalibrationBlock+0x160>
    261c:	2c 9a       	sbi	0x05, 4	; 5
    261e:	df 91       	pop	r29
    2620:	cf 91       	pop	r28
    2622:	1f 91       	pop	r17
    2624:	0f 91       	pop	r16
    2626:	08 95       	ret

00002628 <Get_FrequencySynthesiserControlBlock>:
    2628:	cf 93       	push	r28
    262a:	2c 98       	cbi	0x05, 4	; 5
    262c:	dc 01       	movw	r26, r24
    262e:	15 96       	adiw	r26, 0x05	; 5
    2630:	21 e0       	ldi	r18, 0x01	; 1
    2632:	30 e0       	ldi	r19, 0x00	; 0
    2634:	cb e6       	ldi	r28, 0x6B	; 107
    2636:	97 e0       	ldi	r25, 0x07	; 7
    2638:	f9 01       	movw	r30, r18
    263a:	31 97       	sbiw	r30, 0x01	; 1
    263c:	69 f0       	breq	.+26     	; 0x2658 <Get_FrequencySynthesiserControlBlock+0x30>
    263e:	31 97       	sbiw	r30, 0x01	; 1
    2640:	81 f4       	brne	.+32     	; 0x2662 <Get_FrequencySynthesiserControlBlock+0x3a>
    2642:	9e bd       	out	0x2e, r25	; 46
    2644:	0d b4       	in	r0, 0x2d	; 45
    2646:	07 fe       	sbrs	r0, 7
    2648:	fd cf       	rjmp	.-6      	; 0x2644 <Get_FrequencySynthesiserControlBlock+0x1c>
    264a:	8e b5       	in	r24, 0x2e	; 46
    264c:	2f 5f       	subi	r18, 0xFF	; 255
    264e:	3f 4f       	sbci	r19, 0xFF	; 255
    2650:	11 97       	sbiw	r26, 0x01	; 1
    2652:	f9 01       	movw	r30, r18
    2654:	31 97       	sbiw	r30, 0x01	; 1
    2656:	99 f7       	brne	.-26     	; 0x263e <Get_FrequencySynthesiserControlBlock+0x16>
    2658:	ce bd       	out	0x2e, r28	; 46
    265a:	0d b4       	in	r0, 0x2d	; 45
    265c:	07 fe       	sbrs	r0, 7
    265e:	fd cf       	rjmp	.-6      	; 0x265a <Get_FrequencySynthesiserControlBlock+0x32>
    2660:	f4 cf       	rjmp	.-24     	; 0x264a <Get_FrequencySynthesiserControlBlock+0x22>
    2662:	1e bc       	out	0x2e, r1	; 46
    2664:	0d b4       	in	r0, 0x2d	; 45
    2666:	07 fe       	sbrs	r0, 7
    2668:	fd cf       	rjmp	.-6      	; 0x2664 <Get_FrequencySynthesiserControlBlock+0x3c>
    266a:	8e b5       	in	r24, 0x2e	; 46
    266c:	8c 93       	st	X, r24
    266e:	26 30       	cpi	r18, 0x06	; 6
    2670:	31 05       	cpc	r19, r1
    2672:	61 f7       	brne	.-40     	; 0x264c <Get_FrequencySynthesiserControlBlock+0x24>
    2674:	2c 9a       	sbi	0x05, 4	; 5
    2676:	2c 98       	cbi	0x05, 4	; 5
    2678:	fb 01       	movw	r30, r22
    267a:	32 96       	adiw	r30, 0x02	; 2
    267c:	81 e0       	ldi	r24, 0x01	; 1
    267e:	90 e0       	ldi	r25, 0x00	; 0
    2680:	7b e6       	ldi	r23, 0x6B	; 107
    2682:	6b e0       	ldi	r22, 0x0B	; 11
    2684:	9c 01       	movw	r18, r24
    2686:	21 50       	subi	r18, 0x01	; 1
    2688:	31 09       	sbc	r19, r1
    268a:	71 f0       	breq	.+28     	; 0x26a8 <Get_FrequencySynthesiserControlBlock+0x80>
    268c:	21 30       	cpi	r18, 0x01	; 1
    268e:	31 05       	cpc	r19, r1
    2690:	81 f4       	brne	.+32     	; 0x26b2 <Get_FrequencySynthesiserControlBlock+0x8a>
    2692:	6e bd       	out	0x2e, r22	; 46
    2694:	0d b4       	in	r0, 0x2d	; 45
    2696:	07 fe       	sbrs	r0, 7
    2698:	fd cf       	rjmp	.-6      	; 0x2694 <Get_FrequencySynthesiserControlBlock+0x6c>
    269a:	2e b5       	in	r18, 0x2e	; 46
    269c:	01 96       	adiw	r24, 0x01	; 1
    269e:	31 97       	sbiw	r30, 0x01	; 1
    26a0:	9c 01       	movw	r18, r24
    26a2:	21 50       	subi	r18, 0x01	; 1
    26a4:	31 09       	sbc	r19, r1
    26a6:	91 f7       	brne	.-28     	; 0x268c <Get_FrequencySynthesiserControlBlock+0x64>
    26a8:	7e bd       	out	0x2e, r23	; 46
    26aa:	0d b4       	in	r0, 0x2d	; 45
    26ac:	07 fe       	sbrs	r0, 7
    26ae:	fd cf       	rjmp	.-6      	; 0x26aa <Get_FrequencySynthesiserControlBlock+0x82>
    26b0:	f4 cf       	rjmp	.-24     	; 0x269a <Get_FrequencySynthesiserControlBlock+0x72>
    26b2:	1e bc       	out	0x2e, r1	; 46
    26b4:	0d b4       	in	r0, 0x2d	; 45
    26b6:	07 fe       	sbrs	r0, 7
    26b8:	fd cf       	rjmp	.-6      	; 0x26b4 <Get_FrequencySynthesiserControlBlock+0x8c>
    26ba:	2e b5       	in	r18, 0x2e	; 46
    26bc:	20 83       	st	Z, r18
    26be:	83 30       	cpi	r24, 0x03	; 3
    26c0:	91 05       	cpc	r25, r1
    26c2:	61 f7       	brne	.-40     	; 0x269c <Get_FrequencySynthesiserControlBlock+0x74>
    26c4:	2c 9a       	sbi	0x05, 4	; 5
    26c6:	2c 98       	cbi	0x05, 4	; 5
    26c8:	fa 01       	movw	r30, r20
    26ca:	32 96       	adiw	r30, 0x02	; 2
    26cc:	81 e0       	ldi	r24, 0x01	; 1
    26ce:	90 e0       	ldi	r25, 0x00	; 0
    26d0:	5b e6       	ldi	r21, 0x6B	; 107
    26d2:	4e e0       	ldi	r20, 0x0E	; 14
    26d4:	9c 01       	movw	r18, r24
    26d6:	21 50       	subi	r18, 0x01	; 1
    26d8:	31 09       	sbc	r19, r1
    26da:	71 f0       	breq	.+28     	; 0x26f8 <Get_FrequencySynthesiserControlBlock+0xd0>
    26dc:	21 30       	cpi	r18, 0x01	; 1
    26de:	31 05       	cpc	r19, r1
    26e0:	81 f4       	brne	.+32     	; 0x2702 <Get_FrequencySynthesiserControlBlock+0xda>
    26e2:	4e bd       	out	0x2e, r20	; 46
    26e4:	0d b4       	in	r0, 0x2d	; 45
    26e6:	07 fe       	sbrs	r0, 7
    26e8:	fd cf       	rjmp	.-6      	; 0x26e4 <Get_FrequencySynthesiserControlBlock+0xbc>
    26ea:	2e b5       	in	r18, 0x2e	; 46
    26ec:	01 96       	adiw	r24, 0x01	; 1
    26ee:	31 97       	sbiw	r30, 0x01	; 1
    26f0:	9c 01       	movw	r18, r24
    26f2:	21 50       	subi	r18, 0x01	; 1
    26f4:	31 09       	sbc	r19, r1
    26f6:	91 f7       	brne	.-28     	; 0x26dc <Get_FrequencySynthesiserControlBlock+0xb4>
    26f8:	5e bd       	out	0x2e, r21	; 46
    26fa:	0d b4       	in	r0, 0x2d	; 45
    26fc:	07 fe       	sbrs	r0, 7
    26fe:	fd cf       	rjmp	.-6      	; 0x26fa <Get_FrequencySynthesiserControlBlock+0xd2>
    2700:	f4 cf       	rjmp	.-24     	; 0x26ea <Get_FrequencySynthesiserControlBlock+0xc2>
    2702:	1e bc       	out	0x2e, r1	; 46
    2704:	0d b4       	in	r0, 0x2d	; 45
    2706:	07 fe       	sbrs	r0, 7
    2708:	fd cf       	rjmp	.-6      	; 0x2704 <Get_FrequencySynthesiserControlBlock+0xdc>
    270a:	2e b5       	in	r18, 0x2e	; 46
    270c:	20 83       	st	Z, r18
    270e:	83 30       	cpi	r24, 0x03	; 3
    2710:	91 05       	cpc	r25, r1
    2712:	61 f7       	brne	.-40     	; 0x26ec <Get_FrequencySynthesiserControlBlock+0xc4>
    2714:	2c 9a       	sbi	0x05, 4	; 5
    2716:	cf 91       	pop	r28
    2718:	08 95       	ret

0000271a <Get_AlwaysONSystemControlInterface>:
    271a:	ef 92       	push	r14
    271c:	ff 92       	push	r15
    271e:	0f 93       	push	r16
    2720:	1f 93       	push	r17
    2722:	cf 93       	push	r28
    2724:	df 93       	push	r29
    2726:	2c 98       	cbi	0x05, 4	; 5
    2728:	ec 01       	movw	r28, r24
    272a:	23 96       	adiw	r28, 0x03	; 3
    272c:	e1 e0       	ldi	r30, 0x01	; 1
    272e:	f0 e0       	ldi	r31, 0x00	; 0
    2730:	9c e6       	ldi	r25, 0x6C	; 108
    2732:	df 01       	movw	r26, r30
    2734:	11 97       	sbiw	r26, 0x01	; 1
    2736:	61 f0       	breq	.+24     	; 0x2750 <Get_AlwaysONSystemControlInterface+0x36>
    2738:	11 97       	sbiw	r26, 0x01	; 1
    273a:	79 f4       	brne	.+30     	; 0x275a <Get_AlwaysONSystemControlInterface+0x40>
    273c:	1e bc       	out	0x2e, r1	; 46
    273e:	0d b4       	in	r0, 0x2d	; 45
    2740:	07 fe       	sbrs	r0, 7
    2742:	fd cf       	rjmp	.-6      	; 0x273e <Get_AlwaysONSystemControlInterface+0x24>
    2744:	8e b5       	in	r24, 0x2e	; 46
    2746:	31 96       	adiw	r30, 0x01	; 1
    2748:	21 97       	sbiw	r28, 0x01	; 1
    274a:	df 01       	movw	r26, r30
    274c:	11 97       	sbiw	r26, 0x01	; 1
    274e:	a1 f7       	brne	.-24     	; 0x2738 <Get_AlwaysONSystemControlInterface+0x1e>
    2750:	9e bd       	out	0x2e, r25	; 46
    2752:	0d b4       	in	r0, 0x2d	; 45
    2754:	07 fe       	sbrs	r0, 7
    2756:	fd cf       	rjmp	.-6      	; 0x2752 <Get_AlwaysONSystemControlInterface+0x38>
    2758:	f5 cf       	rjmp	.-22     	; 0x2744 <Get_AlwaysONSystemControlInterface+0x2a>
    275a:	1e bc       	out	0x2e, r1	; 46
    275c:	0d b4       	in	r0, 0x2d	; 45
    275e:	07 fe       	sbrs	r0, 7
    2760:	fd cf       	rjmp	.-6      	; 0x275c <Get_AlwaysONSystemControlInterface+0x42>
    2762:	8e b5       	in	r24, 0x2e	; 46
    2764:	88 83       	st	Y, r24
    2766:	e4 30       	cpi	r30, 0x04	; 4
    2768:	f1 05       	cpc	r31, r1
    276a:	69 f7       	brne	.-38     	; 0x2746 <Get_AlwaysONSystemControlInterface+0x2c>
    276c:	2c 9a       	sbi	0x05, 4	; 5
    276e:	2c 98       	cbi	0x05, 4	; 5
    2770:	eb 01       	movw	r28, r22
    2772:	22 96       	adiw	r28, 0x02	; 2
    2774:	81 e0       	ldi	r24, 0x01	; 1
    2776:	90 e0       	ldi	r25, 0x00	; 0
    2778:	bc e6       	ldi	r27, 0x6C	; 108
    277a:	a2 e0       	ldi	r26, 0x02	; 2
    277c:	fc 01       	movw	r30, r24
    277e:	31 97       	sbiw	r30, 0x01	; 1
    2780:	61 f0       	breq	.+24     	; 0x279a <Get_AlwaysONSystemControlInterface+0x80>
    2782:	31 97       	sbiw	r30, 0x01	; 1
    2784:	79 f4       	brne	.+30     	; 0x27a4 <Get_AlwaysONSystemControlInterface+0x8a>
    2786:	ae bd       	out	0x2e, r26	; 46
    2788:	0d b4       	in	r0, 0x2d	; 45
    278a:	07 fe       	sbrs	r0, 7
    278c:	fd cf       	rjmp	.-6      	; 0x2788 <Get_AlwaysONSystemControlInterface+0x6e>
    278e:	ee b5       	in	r30, 0x2e	; 46
    2790:	01 96       	adiw	r24, 0x01	; 1
    2792:	21 97       	sbiw	r28, 0x01	; 1
    2794:	fc 01       	movw	r30, r24
    2796:	31 97       	sbiw	r30, 0x01	; 1
    2798:	a1 f7       	brne	.-24     	; 0x2782 <Get_AlwaysONSystemControlInterface+0x68>
    279a:	be bd       	out	0x2e, r27	; 46
    279c:	0d b4       	in	r0, 0x2d	; 45
    279e:	07 fe       	sbrs	r0, 7
    27a0:	fd cf       	rjmp	.-6      	; 0x279c <Get_AlwaysONSystemControlInterface+0x82>
    27a2:	f5 cf       	rjmp	.-22     	; 0x278e <Get_AlwaysONSystemControlInterface+0x74>
    27a4:	1e bc       	out	0x2e, r1	; 46
    27a6:	0d b4       	in	r0, 0x2d	; 45
    27a8:	07 fe       	sbrs	r0, 7
    27aa:	fd cf       	rjmp	.-6      	; 0x27a6 <Get_AlwaysONSystemControlInterface+0x8c>
    27ac:	ee b5       	in	r30, 0x2e	; 46
    27ae:	e8 83       	st	Y, r30
    27b0:	83 30       	cpi	r24, 0x03	; 3
    27b2:	91 05       	cpc	r25, r1
    27b4:	69 f7       	brne	.-38     	; 0x2790 <Get_AlwaysONSystemControlInterface+0x76>
    27b6:	2c 9a       	sbi	0x05, 4	; 5
    27b8:	2c 98       	cbi	0x05, 4	; 5
    27ba:	da 01       	movw	r26, r20
    27bc:	12 96       	adiw	r26, 0x02	; 2
    27be:	81 e0       	ldi	r24, 0x01	; 1
    27c0:	90 e0       	ldi	r25, 0x00	; 0
    27c2:	fc e6       	ldi	r31, 0x6C	; 108
    27c4:	e3 e0       	ldi	r30, 0x03	; 3
    27c6:	bc 01       	movw	r22, r24
    27c8:	61 50       	subi	r22, 0x01	; 1
    27ca:	71 09       	sbc	r23, r1
    27cc:	71 f0       	breq	.+28     	; 0x27ea <Get_AlwaysONSystemControlInterface+0xd0>
    27ce:	61 30       	cpi	r22, 0x01	; 1
    27d0:	71 05       	cpc	r23, r1
    27d2:	81 f4       	brne	.+32     	; 0x27f4 <Get_AlwaysONSystemControlInterface+0xda>
    27d4:	ee bd       	out	0x2e, r30	; 46
    27d6:	0d b4       	in	r0, 0x2d	; 45
    27d8:	07 fe       	sbrs	r0, 7
    27da:	fd cf       	rjmp	.-6      	; 0x27d6 <Get_AlwaysONSystemControlInterface+0xbc>
    27dc:	6e b5       	in	r22, 0x2e	; 46
    27de:	01 96       	adiw	r24, 0x01	; 1
    27e0:	11 97       	sbiw	r26, 0x01	; 1
    27e2:	bc 01       	movw	r22, r24
    27e4:	61 50       	subi	r22, 0x01	; 1
    27e6:	71 09       	sbc	r23, r1
    27e8:	91 f7       	brne	.-28     	; 0x27ce <Get_AlwaysONSystemControlInterface+0xb4>
    27ea:	fe bd       	out	0x2e, r31	; 46
    27ec:	0d b4       	in	r0, 0x2d	; 45
    27ee:	07 fe       	sbrs	r0, 7
    27f0:	fd cf       	rjmp	.-6      	; 0x27ec <Get_AlwaysONSystemControlInterface+0xd2>
    27f2:	f4 cf       	rjmp	.-24     	; 0x27dc <Get_AlwaysONSystemControlInterface+0xc2>
    27f4:	1e bc       	out	0x2e, r1	; 46
    27f6:	0d b4       	in	r0, 0x2d	; 45
    27f8:	07 fe       	sbrs	r0, 7
    27fa:	fd cf       	rjmp	.-6      	; 0x27f6 <Get_AlwaysONSystemControlInterface+0xdc>
    27fc:	6e b5       	in	r22, 0x2e	; 46
    27fe:	6c 93       	st	X, r22
    2800:	83 30       	cpi	r24, 0x03	; 3
    2802:	91 05       	cpc	r25, r1
    2804:	61 f7       	brne	.-40     	; 0x27de <Get_AlwaysONSystemControlInterface+0xc4>
    2806:	2c 9a       	sbi	0x05, 4	; 5
    2808:	2c 98       	cbi	0x05, 4	; 5
    280a:	f9 01       	movw	r30, r18
    280c:	32 96       	adiw	r30, 0x02	; 2
    280e:	81 e0       	ldi	r24, 0x01	; 1
    2810:	90 e0       	ldi	r25, 0x00	; 0
    2812:	7c e6       	ldi	r23, 0x6C	; 108
    2814:	64 e0       	ldi	r22, 0x04	; 4
    2816:	ac 01       	movw	r20, r24
    2818:	41 50       	subi	r20, 0x01	; 1
    281a:	51 09       	sbc	r21, r1
    281c:	71 f0       	breq	.+28     	; 0x283a <Get_AlwaysONSystemControlInterface+0x120>
    281e:	41 30       	cpi	r20, 0x01	; 1
    2820:	51 05       	cpc	r21, r1
    2822:	81 f4       	brne	.+32     	; 0x2844 <Get_AlwaysONSystemControlInterface+0x12a>
    2824:	6e bd       	out	0x2e, r22	; 46
    2826:	0d b4       	in	r0, 0x2d	; 45
    2828:	07 fe       	sbrs	r0, 7
    282a:	fd cf       	rjmp	.-6      	; 0x2826 <Get_AlwaysONSystemControlInterface+0x10c>
    282c:	4e b5       	in	r20, 0x2e	; 46
    282e:	01 96       	adiw	r24, 0x01	; 1
    2830:	31 97       	sbiw	r30, 0x01	; 1
    2832:	ac 01       	movw	r20, r24
    2834:	41 50       	subi	r20, 0x01	; 1
    2836:	51 09       	sbc	r21, r1
    2838:	91 f7       	brne	.-28     	; 0x281e <Get_AlwaysONSystemControlInterface+0x104>
    283a:	7e bd       	out	0x2e, r23	; 46
    283c:	0d b4       	in	r0, 0x2d	; 45
    283e:	07 fe       	sbrs	r0, 7
    2840:	fd cf       	rjmp	.-6      	; 0x283c <Get_AlwaysONSystemControlInterface+0x122>
    2842:	f4 cf       	rjmp	.-24     	; 0x282c <Get_AlwaysONSystemControlInterface+0x112>
    2844:	1e bc       	out	0x2e, r1	; 46
    2846:	0d b4       	in	r0, 0x2d	; 45
    2848:	07 fe       	sbrs	r0, 7
    284a:	fd cf       	rjmp	.-6      	; 0x2846 <Get_AlwaysONSystemControlInterface+0x12c>
    284c:	4e b5       	in	r20, 0x2e	; 46
    284e:	40 83       	st	Z, r20
    2850:	83 30       	cpi	r24, 0x03	; 3
    2852:	91 05       	cpc	r25, r1
    2854:	61 f7       	brne	.-40     	; 0x282e <Get_AlwaysONSystemControlInterface+0x114>
    2856:	2c 9a       	sbi	0x05, 4	; 5
    2858:	2c 98       	cbi	0x05, 4	; 5
    285a:	f8 01       	movw	r30, r16
    285c:	35 96       	adiw	r30, 0x05	; 5
    285e:	81 e0       	ldi	r24, 0x01	; 1
    2860:	90 e0       	ldi	r25, 0x00	; 0
    2862:	5c e6       	ldi	r21, 0x6C	; 108
    2864:	46 e0       	ldi	r20, 0x06	; 6
    2866:	9c 01       	movw	r18, r24
    2868:	21 50       	subi	r18, 0x01	; 1
    286a:	31 09       	sbc	r19, r1
    286c:	71 f0       	breq	.+28     	; 0x288a <Get_AlwaysONSystemControlInterface+0x170>
    286e:	21 30       	cpi	r18, 0x01	; 1
    2870:	31 05       	cpc	r19, r1
    2872:	81 f4       	brne	.+32     	; 0x2894 <Get_AlwaysONSystemControlInterface+0x17a>
    2874:	4e bd       	out	0x2e, r20	; 46
    2876:	0d b4       	in	r0, 0x2d	; 45
    2878:	07 fe       	sbrs	r0, 7
    287a:	fd cf       	rjmp	.-6      	; 0x2876 <Get_AlwaysONSystemControlInterface+0x15c>
    287c:	2e b5       	in	r18, 0x2e	; 46
    287e:	01 96       	adiw	r24, 0x01	; 1
    2880:	31 97       	sbiw	r30, 0x01	; 1
    2882:	9c 01       	movw	r18, r24
    2884:	21 50       	subi	r18, 0x01	; 1
    2886:	31 09       	sbc	r19, r1
    2888:	91 f7       	brne	.-28     	; 0x286e <Get_AlwaysONSystemControlInterface+0x154>
    288a:	5e bd       	out	0x2e, r21	; 46
    288c:	0d b4       	in	r0, 0x2d	; 45
    288e:	07 fe       	sbrs	r0, 7
    2890:	fd cf       	rjmp	.-6      	; 0x288c <Get_AlwaysONSystemControlInterface+0x172>
    2892:	f4 cf       	rjmp	.-24     	; 0x287c <Get_AlwaysONSystemControlInterface+0x162>
    2894:	1e bc       	out	0x2e, r1	; 46
    2896:	0d b4       	in	r0, 0x2d	; 45
    2898:	07 fe       	sbrs	r0, 7
    289a:	fd cf       	rjmp	.-6      	; 0x2896 <Get_AlwaysONSystemControlInterface+0x17c>
    289c:	2e b5       	in	r18, 0x2e	; 46
    289e:	20 83       	st	Z, r18
    28a0:	86 30       	cpi	r24, 0x06	; 6
    28a2:	91 05       	cpc	r25, r1
    28a4:	61 f7       	brne	.-40     	; 0x287e <Get_AlwaysONSystemControlInterface+0x164>
    28a6:	2c 9a       	sbi	0x05, 4	; 5
    28a8:	2c 98       	cbi	0x05, 4	; 5
    28aa:	f7 01       	movw	r30, r14
    28ac:	33 96       	adiw	r30, 0x03	; 3
    28ae:	81 e0       	ldi	r24, 0x01	; 1
    28b0:	90 e0       	ldi	r25, 0x00	; 0
    28b2:	5c e6       	ldi	r21, 0x6C	; 108
    28b4:	4a e0       	ldi	r20, 0x0A	; 10
    28b6:	9c 01       	movw	r18, r24
    28b8:	21 50       	subi	r18, 0x01	; 1
    28ba:	31 09       	sbc	r19, r1
    28bc:	71 f0       	breq	.+28     	; 0x28da <Get_AlwaysONSystemControlInterface+0x1c0>
    28be:	21 30       	cpi	r18, 0x01	; 1
    28c0:	31 05       	cpc	r19, r1
    28c2:	81 f4       	brne	.+32     	; 0x28e4 <Get_AlwaysONSystemControlInterface+0x1ca>
    28c4:	4e bd       	out	0x2e, r20	; 46
    28c6:	0d b4       	in	r0, 0x2d	; 45
    28c8:	07 fe       	sbrs	r0, 7
    28ca:	fd cf       	rjmp	.-6      	; 0x28c6 <Get_AlwaysONSystemControlInterface+0x1ac>
    28cc:	2e b5       	in	r18, 0x2e	; 46
    28ce:	01 96       	adiw	r24, 0x01	; 1
    28d0:	31 97       	sbiw	r30, 0x01	; 1
    28d2:	9c 01       	movw	r18, r24
    28d4:	21 50       	subi	r18, 0x01	; 1
    28d6:	31 09       	sbc	r19, r1
    28d8:	91 f7       	brne	.-28     	; 0x28be <Get_AlwaysONSystemControlInterface+0x1a4>
    28da:	5e bd       	out	0x2e, r21	; 46
    28dc:	0d b4       	in	r0, 0x2d	; 45
    28de:	07 fe       	sbrs	r0, 7
    28e0:	fd cf       	rjmp	.-6      	; 0x28dc <Get_AlwaysONSystemControlInterface+0x1c2>
    28e2:	f4 cf       	rjmp	.-24     	; 0x28cc <Get_AlwaysONSystemControlInterface+0x1b2>
    28e4:	1e bc       	out	0x2e, r1	; 46
    28e6:	0d b4       	in	r0, 0x2d	; 45
    28e8:	07 fe       	sbrs	r0, 7
    28ea:	fd cf       	rjmp	.-6      	; 0x28e6 <Get_AlwaysONSystemControlInterface+0x1cc>
    28ec:	2e b5       	in	r18, 0x2e	; 46
    28ee:	20 83       	st	Z, r18
    28f0:	84 30       	cpi	r24, 0x04	; 4
    28f2:	91 05       	cpc	r25, r1
    28f4:	61 f7       	brne	.-40     	; 0x28ce <Get_AlwaysONSystemControlInterface+0x1b4>
    28f6:	2c 9a       	sbi	0x05, 4	; 5
    28f8:	df 91       	pop	r29
    28fa:	cf 91       	pop	r28
    28fc:	1f 91       	pop	r17
    28fe:	0f 91       	pop	r16
    2900:	ff 90       	pop	r15
    2902:	ef 90       	pop	r14
    2904:	08 95       	ret

00002906 <Get_OTPWriteData>:
    2906:	2c 98       	cbi	0x05, 4	; 5
    2908:	fc 01       	movw	r30, r24
    290a:	35 96       	adiw	r30, 0x05	; 5
    290c:	21 e0       	ldi	r18, 0x01	; 1
    290e:	30 e0       	ldi	r19, 0x00	; 0
    2910:	9d e6       	ldi	r25, 0x6D	; 109
    2912:	a9 01       	movw	r20, r18
    2914:	41 50       	subi	r20, 0x01	; 1
    2916:	51 09       	sbc	r21, r1
    2918:	79 f0       	breq	.+30     	; 0x2938 <Get_OTPWriteData+0x32>
    291a:	41 30       	cpi	r20, 0x01	; 1
    291c:	51 05       	cpc	r21, r1
    291e:	89 f4       	brne	.+34     	; 0x2942 <Get_OTPWriteData+0x3c>
    2920:	1e bc       	out	0x2e, r1	; 46
    2922:	0d b4       	in	r0, 0x2d	; 45
    2924:	07 fe       	sbrs	r0, 7
    2926:	fd cf       	rjmp	.-6      	; 0x2922 <Get_OTPWriteData+0x1c>
    2928:	8e b5       	in	r24, 0x2e	; 46
    292a:	2f 5f       	subi	r18, 0xFF	; 255
    292c:	3f 4f       	sbci	r19, 0xFF	; 255
    292e:	31 97       	sbiw	r30, 0x01	; 1
    2930:	a9 01       	movw	r20, r18
    2932:	41 50       	subi	r20, 0x01	; 1
    2934:	51 09       	sbc	r21, r1
    2936:	89 f7       	brne	.-30     	; 0x291a <Get_OTPWriteData+0x14>
    2938:	9e bd       	out	0x2e, r25	; 46
    293a:	0d b4       	in	r0, 0x2d	; 45
    293c:	07 fe       	sbrs	r0, 7
    293e:	fd cf       	rjmp	.-6      	; 0x293a <Get_OTPWriteData+0x34>
    2940:	f3 cf       	rjmp	.-26     	; 0x2928 <Get_OTPWriteData+0x22>
    2942:	1e bc       	out	0x2e, r1	; 46
    2944:	0d b4       	in	r0, 0x2d	; 45
    2946:	07 fe       	sbrs	r0, 7
    2948:	fd cf       	rjmp	.-6      	; 0x2944 <Get_OTPWriteData+0x3e>
    294a:	8e b5       	in	r24, 0x2e	; 46
    294c:	80 83       	st	Z, r24
    294e:	26 30       	cpi	r18, 0x06	; 6
    2950:	31 05       	cpc	r19, r1
    2952:	59 f7       	brne	.-42     	; 0x292a <Get_OTPWriteData+0x24>
    2954:	2c 9a       	sbi	0x05, 4	; 5
    2956:	08 95       	ret

00002958 <Get_OTPAddress>:
    2958:	2c 98       	cbi	0x05, 4	; 5
    295a:	fc 01       	movw	r30, r24
    295c:	33 96       	adiw	r30, 0x03	; 3
    295e:	21 e0       	ldi	r18, 0x01	; 1
    2960:	30 e0       	ldi	r19, 0x00	; 0
    2962:	6d e6       	ldi	r22, 0x6D	; 109
    2964:	94 e0       	ldi	r25, 0x04	; 4
    2966:	a9 01       	movw	r20, r18
    2968:	41 50       	subi	r20, 0x01	; 1
    296a:	51 09       	sbc	r21, r1
    296c:	79 f0       	breq	.+30     	; 0x298c <Get_OTPAddress+0x34>
    296e:	41 30       	cpi	r20, 0x01	; 1
    2970:	51 05       	cpc	r21, r1
    2972:	89 f4       	brne	.+34     	; 0x2996 <Get_OTPAddress+0x3e>
    2974:	9e bd       	out	0x2e, r25	; 46
    2976:	0d b4       	in	r0, 0x2d	; 45
    2978:	07 fe       	sbrs	r0, 7
    297a:	fd cf       	rjmp	.-6      	; 0x2976 <Get_OTPAddress+0x1e>
    297c:	8e b5       	in	r24, 0x2e	; 46
    297e:	2f 5f       	subi	r18, 0xFF	; 255
    2980:	3f 4f       	sbci	r19, 0xFF	; 255
    2982:	31 97       	sbiw	r30, 0x01	; 1
    2984:	a9 01       	movw	r20, r18
    2986:	41 50       	subi	r20, 0x01	; 1
    2988:	51 09       	sbc	r21, r1
    298a:	89 f7       	brne	.-30     	; 0x296e <Get_OTPAddress+0x16>
    298c:	6e bd       	out	0x2e, r22	; 46
    298e:	0d b4       	in	r0, 0x2d	; 45
    2990:	07 fe       	sbrs	r0, 7
    2992:	fd cf       	rjmp	.-6      	; 0x298e <Get_OTPAddress+0x36>
    2994:	f3 cf       	rjmp	.-26     	; 0x297c <Get_OTPAddress+0x24>
    2996:	1e bc       	out	0x2e, r1	; 46
    2998:	0d b4       	in	r0, 0x2d	; 45
    299a:	07 fe       	sbrs	r0, 7
    299c:	fd cf       	rjmp	.-6      	; 0x2998 <Get_OTPAddress+0x40>
    299e:	8e b5       	in	r24, 0x2e	; 46
    29a0:	80 83       	st	Z, r24
    29a2:	24 30       	cpi	r18, 0x04	; 4
    29a4:	31 05       	cpc	r19, r1
    29a6:	59 f7       	brne	.-42     	; 0x297e <Get_OTPAddress+0x26>
    29a8:	2c 9a       	sbi	0x05, 4	; 5
    29aa:	08 95       	ret

000029ac <Get_OTPControl>:
    29ac:	2c 98       	cbi	0x05, 4	; 5
    29ae:	fc 01       	movw	r30, r24
    29b0:	33 96       	adiw	r30, 0x03	; 3
    29b2:	21 e0       	ldi	r18, 0x01	; 1
    29b4:	30 e0       	ldi	r19, 0x00	; 0
    29b6:	6d e6       	ldi	r22, 0x6D	; 109
    29b8:	96 e0       	ldi	r25, 0x06	; 6
    29ba:	a9 01       	movw	r20, r18
    29bc:	41 50       	subi	r20, 0x01	; 1
    29be:	51 09       	sbc	r21, r1
    29c0:	79 f0       	breq	.+30     	; 0x29e0 <Get_OTPControl+0x34>
    29c2:	41 30       	cpi	r20, 0x01	; 1
    29c4:	51 05       	cpc	r21, r1
    29c6:	89 f4       	brne	.+34     	; 0x29ea <Get_OTPControl+0x3e>
    29c8:	9e bd       	out	0x2e, r25	; 46
    29ca:	0d b4       	in	r0, 0x2d	; 45
    29cc:	07 fe       	sbrs	r0, 7
    29ce:	fd cf       	rjmp	.-6      	; 0x29ca <Get_OTPControl+0x1e>
    29d0:	8e b5       	in	r24, 0x2e	; 46
    29d2:	2f 5f       	subi	r18, 0xFF	; 255
    29d4:	3f 4f       	sbci	r19, 0xFF	; 255
    29d6:	31 97       	sbiw	r30, 0x01	; 1
    29d8:	a9 01       	movw	r20, r18
    29da:	41 50       	subi	r20, 0x01	; 1
    29dc:	51 09       	sbc	r21, r1
    29de:	89 f7       	brne	.-30     	; 0x29c2 <Get_OTPControl+0x16>
    29e0:	6e bd       	out	0x2e, r22	; 46
    29e2:	0d b4       	in	r0, 0x2d	; 45
    29e4:	07 fe       	sbrs	r0, 7
    29e6:	fd cf       	rjmp	.-6      	; 0x29e2 <Get_OTPControl+0x36>
    29e8:	f3 cf       	rjmp	.-26     	; 0x29d0 <Get_OTPControl+0x24>
    29ea:	1e bc       	out	0x2e, r1	; 46
    29ec:	0d b4       	in	r0, 0x2d	; 45
    29ee:	07 fe       	sbrs	r0, 7
    29f0:	fd cf       	rjmp	.-6      	; 0x29ec <Get_OTPControl+0x40>
    29f2:	8e b5       	in	r24, 0x2e	; 46
    29f4:	80 83       	st	Z, r24
    29f6:	24 30       	cpi	r18, 0x04	; 4
    29f8:	31 05       	cpc	r19, r1
    29fa:	59 f7       	brne	.-42     	; 0x29d2 <Get_OTPControl+0x26>
    29fc:	2c 9a       	sbi	0x05, 4	; 5
    29fe:	08 95       	ret

00002a00 <Get_OTPStatus>:
    2a00:	2c 98       	cbi	0x05, 4	; 5
    2a02:	fc 01       	movw	r30, r24
    2a04:	33 96       	adiw	r30, 0x03	; 3
    2a06:	21 e0       	ldi	r18, 0x01	; 1
    2a08:	30 e0       	ldi	r19, 0x00	; 0
    2a0a:	6d e6       	ldi	r22, 0x6D	; 109
    2a0c:	98 e0       	ldi	r25, 0x08	; 8
    2a0e:	a9 01       	movw	r20, r18
    2a10:	41 50       	subi	r20, 0x01	; 1
    2a12:	51 09       	sbc	r21, r1
    2a14:	79 f0       	breq	.+30     	; 0x2a34 <Get_OTPStatus+0x34>
    2a16:	41 30       	cpi	r20, 0x01	; 1
    2a18:	51 05       	cpc	r21, r1
    2a1a:	89 f4       	brne	.+34     	; 0x2a3e <Get_OTPStatus+0x3e>
    2a1c:	9e bd       	out	0x2e, r25	; 46
    2a1e:	0d b4       	in	r0, 0x2d	; 45
    2a20:	07 fe       	sbrs	r0, 7
    2a22:	fd cf       	rjmp	.-6      	; 0x2a1e <Get_OTPStatus+0x1e>
    2a24:	8e b5       	in	r24, 0x2e	; 46
    2a26:	2f 5f       	subi	r18, 0xFF	; 255
    2a28:	3f 4f       	sbci	r19, 0xFF	; 255
    2a2a:	31 97       	sbiw	r30, 0x01	; 1
    2a2c:	a9 01       	movw	r20, r18
    2a2e:	41 50       	subi	r20, 0x01	; 1
    2a30:	51 09       	sbc	r21, r1
    2a32:	89 f7       	brne	.-30     	; 0x2a16 <Get_OTPStatus+0x16>
    2a34:	6e bd       	out	0x2e, r22	; 46
    2a36:	0d b4       	in	r0, 0x2d	; 45
    2a38:	07 fe       	sbrs	r0, 7
    2a3a:	fd cf       	rjmp	.-6      	; 0x2a36 <Get_OTPStatus+0x36>
    2a3c:	f3 cf       	rjmp	.-26     	; 0x2a24 <Get_OTPStatus+0x24>
    2a3e:	1e bc       	out	0x2e, r1	; 46
    2a40:	0d b4       	in	r0, 0x2d	; 45
    2a42:	07 fe       	sbrs	r0, 7
    2a44:	fd cf       	rjmp	.-6      	; 0x2a40 <Get_OTPStatus+0x40>
    2a46:	8e b5       	in	r24, 0x2e	; 46
    2a48:	80 83       	st	Z, r24
    2a4a:	24 30       	cpi	r18, 0x04	; 4
    2a4c:	31 05       	cpc	r19, r1
    2a4e:	59 f7       	brne	.-42     	; 0x2a26 <Get_OTPStatus+0x26>
    2a50:	2c 9a       	sbi	0x05, 4	; 5
    2a52:	08 95       	ret

00002a54 <Get_OTPReadData>:
    2a54:	2c 98       	cbi	0x05, 4	; 5
    2a56:	fc 01       	movw	r30, r24
    2a58:	35 96       	adiw	r30, 0x05	; 5
    2a5a:	21 e0       	ldi	r18, 0x01	; 1
    2a5c:	30 e0       	ldi	r19, 0x00	; 0
    2a5e:	6d e6       	ldi	r22, 0x6D	; 109
    2a60:	9a e0       	ldi	r25, 0x0A	; 10
    2a62:	a9 01       	movw	r20, r18
    2a64:	41 50       	subi	r20, 0x01	; 1
    2a66:	51 09       	sbc	r21, r1
    2a68:	79 f0       	breq	.+30     	; 0x2a88 <Get_OTPReadData+0x34>
    2a6a:	41 30       	cpi	r20, 0x01	; 1
    2a6c:	51 05       	cpc	r21, r1
    2a6e:	89 f4       	brne	.+34     	; 0x2a92 <Get_OTPReadData+0x3e>
    2a70:	9e bd       	out	0x2e, r25	; 46
    2a72:	0d b4       	in	r0, 0x2d	; 45
    2a74:	07 fe       	sbrs	r0, 7
    2a76:	fd cf       	rjmp	.-6      	; 0x2a72 <Get_OTPReadData+0x1e>
    2a78:	8e b5       	in	r24, 0x2e	; 46
    2a7a:	2f 5f       	subi	r18, 0xFF	; 255
    2a7c:	3f 4f       	sbci	r19, 0xFF	; 255
    2a7e:	31 97       	sbiw	r30, 0x01	; 1
    2a80:	a9 01       	movw	r20, r18
    2a82:	41 50       	subi	r20, 0x01	; 1
    2a84:	51 09       	sbc	r21, r1
    2a86:	89 f7       	brne	.-30     	; 0x2a6a <Get_OTPReadData+0x16>
    2a88:	6e bd       	out	0x2e, r22	; 46
    2a8a:	0d b4       	in	r0, 0x2d	; 45
    2a8c:	07 fe       	sbrs	r0, 7
    2a8e:	fd cf       	rjmp	.-6      	; 0x2a8a <Get_OTPReadData+0x36>
    2a90:	f3 cf       	rjmp	.-26     	; 0x2a78 <Get_OTPReadData+0x24>
    2a92:	1e bc       	out	0x2e, r1	; 46
    2a94:	0d b4       	in	r0, 0x2d	; 45
    2a96:	07 fe       	sbrs	r0, 7
    2a98:	fd cf       	rjmp	.-6      	; 0x2a94 <Get_OTPReadData+0x40>
    2a9a:	8e b5       	in	r24, 0x2e	; 46
    2a9c:	80 83       	st	Z, r24
    2a9e:	26 30       	cpi	r18, 0x06	; 6
    2aa0:	31 05       	cpc	r19, r1
    2aa2:	59 f7       	brne	.-42     	; 0x2a7a <Get_OTPReadData+0x26>
    2aa4:	2c 9a       	sbi	0x05, 4	; 5
    2aa6:	08 95       	ret

00002aa8 <Get_OTPSpecialRegisterReadData>:
    2aa8:	2c 98       	cbi	0x05, 4	; 5
    2aaa:	fc 01       	movw	r30, r24
    2aac:	35 96       	adiw	r30, 0x05	; 5
    2aae:	21 e0       	ldi	r18, 0x01	; 1
    2ab0:	30 e0       	ldi	r19, 0x00	; 0
    2ab2:	6d e6       	ldi	r22, 0x6D	; 109
    2ab4:	9e e0       	ldi	r25, 0x0E	; 14
    2ab6:	a9 01       	movw	r20, r18
    2ab8:	41 50       	subi	r20, 0x01	; 1
    2aba:	51 09       	sbc	r21, r1
    2abc:	79 f0       	breq	.+30     	; 0x2adc <Get_OTPSpecialRegisterReadData+0x34>
    2abe:	41 30       	cpi	r20, 0x01	; 1
    2ac0:	51 05       	cpc	r21, r1
    2ac2:	89 f4       	brne	.+34     	; 0x2ae6 <Get_OTPSpecialRegisterReadData+0x3e>
    2ac4:	9e bd       	out	0x2e, r25	; 46
    2ac6:	0d b4       	in	r0, 0x2d	; 45
    2ac8:	07 fe       	sbrs	r0, 7
    2aca:	fd cf       	rjmp	.-6      	; 0x2ac6 <Get_OTPSpecialRegisterReadData+0x1e>
    2acc:	8e b5       	in	r24, 0x2e	; 46
    2ace:	2f 5f       	subi	r18, 0xFF	; 255
    2ad0:	3f 4f       	sbci	r19, 0xFF	; 255
    2ad2:	31 97       	sbiw	r30, 0x01	; 1
    2ad4:	a9 01       	movw	r20, r18
    2ad6:	41 50       	subi	r20, 0x01	; 1
    2ad8:	51 09       	sbc	r21, r1
    2ada:	89 f7       	brne	.-30     	; 0x2abe <Get_OTPSpecialRegisterReadData+0x16>
    2adc:	6e bd       	out	0x2e, r22	; 46
    2ade:	0d b4       	in	r0, 0x2d	; 45
    2ae0:	07 fe       	sbrs	r0, 7
    2ae2:	fd cf       	rjmp	.-6      	; 0x2ade <Get_OTPSpecialRegisterReadData+0x36>
    2ae4:	f3 cf       	rjmp	.-26     	; 0x2acc <Get_OTPSpecialRegisterReadData+0x24>
    2ae6:	1e bc       	out	0x2e, r1	; 46
    2ae8:	0d b4       	in	r0, 0x2d	; 45
    2aea:	07 fe       	sbrs	r0, 7
    2aec:	fd cf       	rjmp	.-6      	; 0x2ae8 <Get_OTPSpecialRegisterReadData+0x40>
    2aee:	8e b5       	in	r24, 0x2e	; 46
    2af0:	80 83       	st	Z, r24
    2af2:	26 30       	cpi	r18, 0x06	; 6
    2af4:	31 05       	cpc	r19, r1
    2af6:	59 f7       	brne	.-42     	; 0x2ace <Get_OTPSpecialRegisterReadData+0x26>
    2af8:	2c 9a       	sbi	0x05, 4	; 5
    2afa:	08 95       	ret

00002afc <Get_OTPSpecialFunction>:
    2afc:	2c 98       	cbi	0x05, 4	; 5
    2afe:	02 96       	adiw	r24, 0x02	; 2
    2b00:	21 e0       	ldi	r18, 0x01	; 1
    2b02:	30 e0       	ldi	r19, 0x00	; 0
    2b04:	7d e6       	ldi	r23, 0x6D	; 109
    2b06:	62 e1       	ldi	r22, 0x12	; 18
    2b08:	a9 01       	movw	r20, r18
    2b0a:	41 50       	subi	r20, 0x01	; 1
    2b0c:	51 09       	sbc	r21, r1
    2b0e:	79 f0       	breq	.+30     	; 0x2b2e <Get_OTPSpecialFunction+0x32>
    2b10:	41 30       	cpi	r20, 0x01	; 1
    2b12:	51 05       	cpc	r21, r1
    2b14:	89 f4       	brne	.+34     	; 0x2b38 <Get_OTPSpecialFunction+0x3c>
    2b16:	6e bd       	out	0x2e, r22	; 46
    2b18:	0d b4       	in	r0, 0x2d	; 45
    2b1a:	07 fe       	sbrs	r0, 7
    2b1c:	fd cf       	rjmp	.-6      	; 0x2b18 <Get_OTPSpecialFunction+0x1c>
    2b1e:	4e b5       	in	r20, 0x2e	; 46
    2b20:	2f 5f       	subi	r18, 0xFF	; 255
    2b22:	3f 4f       	sbci	r19, 0xFF	; 255
    2b24:	01 97       	sbiw	r24, 0x01	; 1
    2b26:	a9 01       	movw	r20, r18
    2b28:	41 50       	subi	r20, 0x01	; 1
    2b2a:	51 09       	sbc	r21, r1
    2b2c:	89 f7       	brne	.-30     	; 0x2b10 <Get_OTPSpecialFunction+0x14>
    2b2e:	7e bd       	out	0x2e, r23	; 46
    2b30:	0d b4       	in	r0, 0x2d	; 45
    2b32:	07 fe       	sbrs	r0, 7
    2b34:	fd cf       	rjmp	.-6      	; 0x2b30 <Get_OTPSpecialFunction+0x34>
    2b36:	f3 cf       	rjmp	.-26     	; 0x2b1e <Get_OTPSpecialFunction+0x22>
    2b38:	1e bc       	out	0x2e, r1	; 46
    2b3a:	0d b4       	in	r0, 0x2d	; 45
    2b3c:	07 fe       	sbrs	r0, 7
    2b3e:	fd cf       	rjmp	.-6      	; 0x2b3a <Get_OTPSpecialFunction+0x3e>
    2b40:	4e b5       	in	r20, 0x2e	; 46
    2b42:	fc 01       	movw	r30, r24
    2b44:	40 83       	st	Z, r20
    2b46:	23 30       	cpi	r18, 0x03	; 3
    2b48:	31 05       	cpc	r19, r1
    2b4a:	51 f7       	brne	.-44     	; 0x2b20 <Get_OTPSpecialFunction+0x24>
    2b4c:	2c 9a       	sbi	0x05, 4	; 5
    2b4e:	08 95       	ret

00002b50 <Get_LeadingEdgeDetectionInterface>:
    2b50:	bf 92       	push	r11
    2b52:	cf 92       	push	r12
    2b54:	df 92       	push	r13
    2b56:	ef 92       	push	r14
    2b58:	ff 92       	push	r15
    2b5a:	0f 93       	push	r16
    2b5c:	1f 93       	push	r17
    2b5e:	cf 93       	push	r28
    2b60:	df 93       	push	r29
    2b62:	2c 98       	cbi	0x05, 4	; 5
    2b64:	ec 01       	movw	r28, r24
    2b66:	24 96       	adiw	r28, 0x04	; 4
    2b68:	a1 e0       	ldi	r26, 0x01	; 1
    2b6a:	b0 e0       	ldi	r27, 0x00	; 0
    2b6c:	90 e8       	ldi	r25, 0x80	; 128
    2b6e:	b9 2e       	mov	r11, r25
    2b70:	9e e6       	ldi	r25, 0x6E	; 110
    2b72:	fd 01       	movw	r30, r26
    2b74:	31 97       	sbiw	r30, 0x01	; 1
    2b76:	e1 30       	cpi	r30, 0x01	; 1
    2b78:	f1 05       	cpc	r31, r1
    2b7a:	a9 f0       	breq	.+42     	; 0x2ba6 <Get_LeadingEdgeDetectionInterface+0x56>
    2b7c:	e2 30       	cpi	r30, 0x02	; 2
    2b7e:	f1 05       	cpc	r31, r1
    2b80:	f1 f0       	breq	.+60     	; 0x2bbe <Get_LeadingEdgeDetectionInterface+0x6e>
    2b82:	ef 2b       	or	r30, r31
    2b84:	b1 f0       	breq	.+44     	; 0x2bb2 <Get_LeadingEdgeDetectionInterface+0x62>
    2b86:	1e bc       	out	0x2e, r1	; 46
    2b88:	0d b4       	in	r0, 0x2d	; 45
    2b8a:	07 fe       	sbrs	r0, 7
    2b8c:	fd cf       	rjmp	.-6      	; 0x2b88 <Get_LeadingEdgeDetectionInterface+0x38>
    2b8e:	8e b5       	in	r24, 0x2e	; 46
    2b90:	88 83       	st	Y, r24
    2b92:	a5 30       	cpi	r26, 0x05	; 5
    2b94:	b1 05       	cpc	r27, r1
    2b96:	c9 f0       	breq	.+50     	; 0x2bca <Get_LeadingEdgeDetectionInterface+0x7a>
    2b98:	11 96       	adiw	r26, 0x01	; 1
    2b9a:	21 97       	sbiw	r28, 0x01	; 1
    2b9c:	fd 01       	movw	r30, r26
    2b9e:	31 97       	sbiw	r30, 0x01	; 1
    2ba0:	e1 30       	cpi	r30, 0x01	; 1
    2ba2:	f1 05       	cpc	r31, r1
    2ba4:	59 f7       	brne	.-42     	; 0x2b7c <Get_LeadingEdgeDetectionInterface+0x2c>
    2ba6:	be bc       	out	0x2e, r11	; 46
    2ba8:	0d b4       	in	r0, 0x2d	; 45
    2baa:	07 fe       	sbrs	r0, 7
    2bac:	fd cf       	rjmp	.-6      	; 0x2ba8 <Get_LeadingEdgeDetectionInterface+0x58>
    2bae:	8e b5       	in	r24, 0x2e	; 46
    2bb0:	f3 cf       	rjmp	.-26     	; 0x2b98 <Get_LeadingEdgeDetectionInterface+0x48>
    2bb2:	9e bd       	out	0x2e, r25	; 46
    2bb4:	0d b4       	in	r0, 0x2d	; 45
    2bb6:	07 fe       	sbrs	r0, 7
    2bb8:	fd cf       	rjmp	.-6      	; 0x2bb4 <Get_LeadingEdgeDetectionInterface+0x64>
    2bba:	8e b5       	in	r24, 0x2e	; 46
    2bbc:	ed cf       	rjmp	.-38     	; 0x2b98 <Get_LeadingEdgeDetectionInterface+0x48>
    2bbe:	1e bc       	out	0x2e, r1	; 46
    2bc0:	0d b4       	in	r0, 0x2d	; 45
    2bc2:	07 fe       	sbrs	r0, 7
    2bc4:	fd cf       	rjmp	.-6      	; 0x2bc0 <Get_LeadingEdgeDetectionInterface+0x70>
    2bc6:	8e b5       	in	r24, 0x2e	; 46
    2bc8:	e7 cf       	rjmp	.-50     	; 0x2b98 <Get_LeadingEdgeDetectionInterface+0x48>
    2bca:	2c 9a       	sbi	0x05, 4	; 5
    2bcc:	2c 98       	cbi	0x05, 4	; 5
    2bce:	6d 5f       	subi	r22, 0xFD	; 253
    2bd0:	7f 4f       	sbci	r23, 0xFF	; 255
    2bd2:	e1 e0       	ldi	r30, 0x01	; 1
    2bd4:	f0 e0       	ldi	r31, 0x00	; 0
    2bd6:	86 e8       	ldi	r24, 0x86	; 134
    2bd8:	b8 2e       	mov	r11, r24
    2bda:	b0 e1       	ldi	r27, 0x10	; 16
    2bdc:	ae e6       	ldi	r26, 0x6E	; 110
    2bde:	cf 01       	movw	r24, r30
    2be0:	01 97       	sbiw	r24, 0x01	; 1
    2be2:	81 30       	cpi	r24, 0x01	; 1
    2be4:	91 05       	cpc	r25, r1
    2be6:	c1 f0       	breq	.+48     	; 0x2c18 <Get_LeadingEdgeDetectionInterface+0xc8>
    2be8:	82 30       	cpi	r24, 0x02	; 2
    2bea:	91 05       	cpc	r25, r1
    2bec:	09 f4       	brne	.+2      	; 0x2bf0 <Get_LeadingEdgeDetectionInterface+0xa0>
    2bee:	39 c1       	rjmp	.+626    	; 0x2e62 <Get_LeadingEdgeDetectionInterface+0x312>
    2bf0:	89 2b       	or	r24, r25
    2bf2:	c1 f0       	breq	.+48     	; 0x2c24 <Get_LeadingEdgeDetectionInterface+0xd4>
    2bf4:	1e bc       	out	0x2e, r1	; 46
    2bf6:	0d b4       	in	r0, 0x2d	; 45
    2bf8:	07 fe       	sbrs	r0, 7
    2bfa:	fd cf       	rjmp	.-6      	; 0x2bf6 <Get_LeadingEdgeDetectionInterface+0xa6>
    2bfc:	8e b5       	in	r24, 0x2e	; 46
    2bfe:	eb 01       	movw	r28, r22
    2c00:	88 83       	st	Y, r24
    2c02:	e4 30       	cpi	r30, 0x04	; 4
    2c04:	f1 05       	cpc	r31, r1
    2c06:	a1 f0       	breq	.+40     	; 0x2c30 <Get_LeadingEdgeDetectionInterface+0xe0>
    2c08:	31 96       	adiw	r30, 0x01	; 1
    2c0a:	61 50       	subi	r22, 0x01	; 1
    2c0c:	71 09       	sbc	r23, r1
    2c0e:	cf 01       	movw	r24, r30
    2c10:	01 97       	sbiw	r24, 0x01	; 1
    2c12:	81 30       	cpi	r24, 0x01	; 1
    2c14:	91 05       	cpc	r25, r1
    2c16:	41 f7       	brne	.-48     	; 0x2be8 <Get_LeadingEdgeDetectionInterface+0x98>
    2c18:	be bc       	out	0x2e, r11	; 46
    2c1a:	0d b4       	in	r0, 0x2d	; 45
    2c1c:	07 fe       	sbrs	r0, 7
    2c1e:	fd cf       	rjmp	.-6      	; 0x2c1a <Get_LeadingEdgeDetectionInterface+0xca>
    2c20:	8e b5       	in	r24, 0x2e	; 46
    2c22:	f2 cf       	rjmp	.-28     	; 0x2c08 <Get_LeadingEdgeDetectionInterface+0xb8>
    2c24:	ae bd       	out	0x2e, r26	; 46
    2c26:	0d b4       	in	r0, 0x2d	; 45
    2c28:	07 fe       	sbrs	r0, 7
    2c2a:	fd cf       	rjmp	.-6      	; 0x2c26 <Get_LeadingEdgeDetectionInterface+0xd6>
    2c2c:	8e b5       	in	r24, 0x2e	; 46
    2c2e:	ec cf       	rjmp	.-40     	; 0x2c08 <Get_LeadingEdgeDetectionInterface+0xb8>
    2c30:	2c 9a       	sbi	0x05, 4	; 5
    2c32:	2c 98       	cbi	0x05, 4	; 5
    2c34:	ea 01       	movw	r28, r20
    2c36:	24 96       	adiw	r28, 0x04	; 4
    2c38:	61 e0       	ldi	r22, 0x01	; 1
    2c3a:	70 e0       	ldi	r23, 0x00	; 0
    2c3c:	a0 e8       	ldi	r26, 0x80	; 128
    2c3e:	f0 e2       	ldi	r31, 0x20	; 32
    2c40:	ee e6       	ldi	r30, 0x6E	; 110
    2c42:	cb 01       	movw	r24, r22
    2c44:	01 97       	sbiw	r24, 0x01	; 1
    2c46:	81 30       	cpi	r24, 0x01	; 1
    2c48:	91 05       	cpc	r25, r1
    2c4a:	b1 f0       	breq	.+44     	; 0x2c78 <Get_LeadingEdgeDetectionInterface+0x128>
    2c4c:	82 30       	cpi	r24, 0x02	; 2
    2c4e:	91 05       	cpc	r25, r1
    2c50:	f9 f0       	breq	.+62     	; 0x2c90 <Get_LeadingEdgeDetectionInterface+0x140>
    2c52:	89 2b       	or	r24, r25
    2c54:	b9 f0       	breq	.+46     	; 0x2c84 <Get_LeadingEdgeDetectionInterface+0x134>
    2c56:	1e bc       	out	0x2e, r1	; 46
    2c58:	0d b4       	in	r0, 0x2d	; 45
    2c5a:	07 fe       	sbrs	r0, 7
    2c5c:	fd cf       	rjmp	.-6      	; 0x2c58 <Get_LeadingEdgeDetectionInterface+0x108>
    2c5e:	8e b5       	in	r24, 0x2e	; 46
    2c60:	88 83       	st	Y, r24
    2c62:	65 30       	cpi	r22, 0x05	; 5
    2c64:	71 05       	cpc	r23, r1
    2c66:	d1 f0       	breq	.+52     	; 0x2c9c <Get_LeadingEdgeDetectionInterface+0x14c>
    2c68:	6f 5f       	subi	r22, 0xFF	; 255
    2c6a:	7f 4f       	sbci	r23, 0xFF	; 255
    2c6c:	21 97       	sbiw	r28, 0x01	; 1
    2c6e:	cb 01       	movw	r24, r22
    2c70:	01 97       	sbiw	r24, 0x01	; 1
    2c72:	81 30       	cpi	r24, 0x01	; 1
    2c74:	91 05       	cpc	r25, r1
    2c76:	51 f7       	brne	.-44     	; 0x2c4c <Get_LeadingEdgeDetectionInterface+0xfc>
    2c78:	ae bd       	out	0x2e, r26	; 46
    2c7a:	0d b4       	in	r0, 0x2d	; 45
    2c7c:	07 fe       	sbrs	r0, 7
    2c7e:	fd cf       	rjmp	.-6      	; 0x2c7a <Get_LeadingEdgeDetectionInterface+0x12a>
    2c80:	8e b5       	in	r24, 0x2e	; 46
    2c82:	f2 cf       	rjmp	.-28     	; 0x2c68 <Get_LeadingEdgeDetectionInterface+0x118>
    2c84:	ee bd       	out	0x2e, r30	; 46
    2c86:	0d b4       	in	r0, 0x2d	; 45
    2c88:	07 fe       	sbrs	r0, 7
    2c8a:	fd cf       	rjmp	.-6      	; 0x2c86 <Get_LeadingEdgeDetectionInterface+0x136>
    2c8c:	8e b5       	in	r24, 0x2e	; 46
    2c8e:	ec cf       	rjmp	.-40     	; 0x2c68 <Get_LeadingEdgeDetectionInterface+0x118>
    2c90:	fe bd       	out	0x2e, r31	; 46
    2c92:	0d b4       	in	r0, 0x2d	; 45
    2c94:	07 fe       	sbrs	r0, 7
    2c96:	fd cf       	rjmp	.-6      	; 0x2c92 <Get_LeadingEdgeDetectionInterface+0x142>
    2c98:	8e b5       	in	r24, 0x2e	; 46
    2c9a:	e6 cf       	rjmp	.-52     	; 0x2c68 <Get_LeadingEdgeDetectionInterface+0x118>
    2c9c:	2c 9a       	sbi	0x05, 4	; 5
    2c9e:	2c 98       	cbi	0x05, 4	; 5
    2ca0:	d9 01       	movw	r26, r18
    2ca2:	14 96       	adiw	r26, 0x04	; 4
    2ca4:	41 e0       	ldi	r20, 0x01	; 1
    2ca6:	50 e0       	ldi	r21, 0x00	; 0
    2ca8:	e2 e8       	ldi	r30, 0x82	; 130
    2caa:	70 e2       	ldi	r23, 0x20	; 32
    2cac:	6e e6       	ldi	r22, 0x6E	; 110
    2cae:	ca 01       	movw	r24, r20
    2cb0:	01 97       	sbiw	r24, 0x01	; 1
    2cb2:	81 30       	cpi	r24, 0x01	; 1
    2cb4:	91 05       	cpc	r25, r1
    2cb6:	b1 f0       	breq	.+44     	; 0x2ce4 <Get_LeadingEdgeDetectionInterface+0x194>
    2cb8:	82 30       	cpi	r24, 0x02	; 2
    2cba:	91 05       	cpc	r25, r1
    2cbc:	f9 f0       	breq	.+62     	; 0x2cfc <Get_LeadingEdgeDetectionInterface+0x1ac>
    2cbe:	89 2b       	or	r24, r25
    2cc0:	b9 f0       	breq	.+46     	; 0x2cf0 <Get_LeadingEdgeDetectionInterface+0x1a0>
    2cc2:	1e bc       	out	0x2e, r1	; 46
    2cc4:	0d b4       	in	r0, 0x2d	; 45
    2cc6:	07 fe       	sbrs	r0, 7
    2cc8:	fd cf       	rjmp	.-6      	; 0x2cc4 <Get_LeadingEdgeDetectionInterface+0x174>
    2cca:	8e b5       	in	r24, 0x2e	; 46
    2ccc:	8c 93       	st	X, r24
    2cce:	45 30       	cpi	r20, 0x05	; 5
    2cd0:	51 05       	cpc	r21, r1
    2cd2:	d1 f0       	breq	.+52     	; 0x2d08 <Get_LeadingEdgeDetectionInterface+0x1b8>
    2cd4:	4f 5f       	subi	r20, 0xFF	; 255
    2cd6:	5f 4f       	sbci	r21, 0xFF	; 255
    2cd8:	11 97       	sbiw	r26, 0x01	; 1
    2cda:	ca 01       	movw	r24, r20
    2cdc:	01 97       	sbiw	r24, 0x01	; 1
    2cde:	81 30       	cpi	r24, 0x01	; 1
    2ce0:	91 05       	cpc	r25, r1
    2ce2:	51 f7       	brne	.-44     	; 0x2cb8 <Get_LeadingEdgeDetectionInterface+0x168>
    2ce4:	ee bd       	out	0x2e, r30	; 46
    2ce6:	0d b4       	in	r0, 0x2d	; 45
    2ce8:	07 fe       	sbrs	r0, 7
    2cea:	fd cf       	rjmp	.-6      	; 0x2ce6 <Get_LeadingEdgeDetectionInterface+0x196>
    2cec:	8e b5       	in	r24, 0x2e	; 46
    2cee:	f2 cf       	rjmp	.-28     	; 0x2cd4 <Get_LeadingEdgeDetectionInterface+0x184>
    2cf0:	6e bd       	out	0x2e, r22	; 46
    2cf2:	0d b4       	in	r0, 0x2d	; 45
    2cf4:	07 fe       	sbrs	r0, 7
    2cf6:	fd cf       	rjmp	.-6      	; 0x2cf2 <Get_LeadingEdgeDetectionInterface+0x1a2>
    2cf8:	8e b5       	in	r24, 0x2e	; 46
    2cfa:	ec cf       	rjmp	.-40     	; 0x2cd4 <Get_LeadingEdgeDetectionInterface+0x184>
    2cfc:	7e bd       	out	0x2e, r23	; 46
    2cfe:	0d b4       	in	r0, 0x2d	; 45
    2d00:	07 fe       	sbrs	r0, 7
    2d02:	fd cf       	rjmp	.-6      	; 0x2cfe <Get_LeadingEdgeDetectionInterface+0x1ae>
    2d04:	8e b5       	in	r24, 0x2e	; 46
    2d06:	e6 cf       	rjmp	.-52     	; 0x2cd4 <Get_LeadingEdgeDetectionInterface+0x184>
    2d08:	2c 9a       	sbi	0x05, 4	; 5
    2d0a:	2c 98       	cbi	0x05, 4	; 5
    2d0c:	f8 01       	movw	r30, r16
    2d0e:	34 96       	adiw	r30, 0x04	; 4
    2d10:	21 e0       	ldi	r18, 0x01	; 1
    2d12:	30 e0       	ldi	r19, 0x00	; 0
    2d14:	64 e8       	ldi	r22, 0x84	; 132
    2d16:	50 e3       	ldi	r21, 0x30	; 48
    2d18:	4e e6       	ldi	r20, 0x6E	; 110
    2d1a:	c9 01       	movw	r24, r18
    2d1c:	01 97       	sbiw	r24, 0x01	; 1
    2d1e:	81 30       	cpi	r24, 0x01	; 1
    2d20:	91 05       	cpc	r25, r1
    2d22:	b1 f0       	breq	.+44     	; 0x2d50 <Get_LeadingEdgeDetectionInterface+0x200>
    2d24:	82 30       	cpi	r24, 0x02	; 2
    2d26:	91 05       	cpc	r25, r1
    2d28:	f9 f0       	breq	.+62     	; 0x2d68 <Get_LeadingEdgeDetectionInterface+0x218>
    2d2a:	89 2b       	or	r24, r25
    2d2c:	b9 f0       	breq	.+46     	; 0x2d5c <Get_LeadingEdgeDetectionInterface+0x20c>
    2d2e:	1e bc       	out	0x2e, r1	; 46
    2d30:	0d b4       	in	r0, 0x2d	; 45
    2d32:	07 fe       	sbrs	r0, 7
    2d34:	fd cf       	rjmp	.-6      	; 0x2d30 <Get_LeadingEdgeDetectionInterface+0x1e0>
    2d36:	8e b5       	in	r24, 0x2e	; 46
    2d38:	80 83       	st	Z, r24
    2d3a:	25 30       	cpi	r18, 0x05	; 5
    2d3c:	31 05       	cpc	r19, r1
    2d3e:	d1 f0       	breq	.+52     	; 0x2d74 <Get_LeadingEdgeDetectionInterface+0x224>
    2d40:	2f 5f       	subi	r18, 0xFF	; 255
    2d42:	3f 4f       	sbci	r19, 0xFF	; 255
    2d44:	31 97       	sbiw	r30, 0x01	; 1
    2d46:	c9 01       	movw	r24, r18
    2d48:	01 97       	sbiw	r24, 0x01	; 1
    2d4a:	81 30       	cpi	r24, 0x01	; 1
    2d4c:	91 05       	cpc	r25, r1
    2d4e:	51 f7       	brne	.-44     	; 0x2d24 <Get_LeadingEdgeDetectionInterface+0x1d4>
    2d50:	6e bd       	out	0x2e, r22	; 46
    2d52:	0d b4       	in	r0, 0x2d	; 45
    2d54:	07 fe       	sbrs	r0, 7
    2d56:	fd cf       	rjmp	.-6      	; 0x2d52 <Get_LeadingEdgeDetectionInterface+0x202>
    2d58:	8e b5       	in	r24, 0x2e	; 46
    2d5a:	f2 cf       	rjmp	.-28     	; 0x2d40 <Get_LeadingEdgeDetectionInterface+0x1f0>
    2d5c:	4e bd       	out	0x2e, r20	; 46
    2d5e:	0d b4       	in	r0, 0x2d	; 45
    2d60:	07 fe       	sbrs	r0, 7
    2d62:	fd cf       	rjmp	.-6      	; 0x2d5e <Get_LeadingEdgeDetectionInterface+0x20e>
    2d64:	8e b5       	in	r24, 0x2e	; 46
    2d66:	ec cf       	rjmp	.-40     	; 0x2d40 <Get_LeadingEdgeDetectionInterface+0x1f0>
    2d68:	5e bd       	out	0x2e, r21	; 46
    2d6a:	0d b4       	in	r0, 0x2d	; 45
    2d6c:	07 fe       	sbrs	r0, 7
    2d6e:	fd cf       	rjmp	.-6      	; 0x2d6a <Get_LeadingEdgeDetectionInterface+0x21a>
    2d70:	8e b5       	in	r24, 0x2e	; 46
    2d72:	e6 cf       	rjmp	.-52     	; 0x2d40 <Get_LeadingEdgeDetectionInterface+0x1f0>
    2d74:	2c 9a       	sbi	0x05, 4	; 5
    2d76:	2c 98       	cbi	0x05, 4	; 5
    2d78:	f7 01       	movw	r30, r14
    2d7a:	34 96       	adiw	r30, 0x04	; 4
    2d7c:	21 e0       	ldi	r18, 0x01	; 1
    2d7e:	30 e0       	ldi	r19, 0x00	; 0
    2d80:	66 e8       	ldi	r22, 0x86	; 134
    2d82:	50 e3       	ldi	r21, 0x30	; 48
    2d84:	4e e6       	ldi	r20, 0x6E	; 110
    2d86:	c9 01       	movw	r24, r18
    2d88:	01 97       	sbiw	r24, 0x01	; 1
    2d8a:	81 30       	cpi	r24, 0x01	; 1
    2d8c:	91 05       	cpc	r25, r1
    2d8e:	b1 f0       	breq	.+44     	; 0x2dbc <Get_LeadingEdgeDetectionInterface+0x26c>
    2d90:	82 30       	cpi	r24, 0x02	; 2
    2d92:	91 05       	cpc	r25, r1
    2d94:	f9 f0       	breq	.+62     	; 0x2dd4 <Get_LeadingEdgeDetectionInterface+0x284>
    2d96:	89 2b       	or	r24, r25
    2d98:	b9 f0       	breq	.+46     	; 0x2dc8 <Get_LeadingEdgeDetectionInterface+0x278>
    2d9a:	1e bc       	out	0x2e, r1	; 46
    2d9c:	0d b4       	in	r0, 0x2d	; 45
    2d9e:	07 fe       	sbrs	r0, 7
    2da0:	fd cf       	rjmp	.-6      	; 0x2d9c <Get_LeadingEdgeDetectionInterface+0x24c>
    2da2:	8e b5       	in	r24, 0x2e	; 46
    2da4:	80 83       	st	Z, r24
    2da6:	25 30       	cpi	r18, 0x05	; 5
    2da8:	31 05       	cpc	r19, r1
    2daa:	d1 f0       	breq	.+52     	; 0x2de0 <Get_LeadingEdgeDetectionInterface+0x290>
    2dac:	2f 5f       	subi	r18, 0xFF	; 255
    2dae:	3f 4f       	sbci	r19, 0xFF	; 255
    2db0:	31 97       	sbiw	r30, 0x01	; 1
    2db2:	c9 01       	movw	r24, r18
    2db4:	01 97       	sbiw	r24, 0x01	; 1
    2db6:	81 30       	cpi	r24, 0x01	; 1
    2db8:	91 05       	cpc	r25, r1
    2dba:	51 f7       	brne	.-44     	; 0x2d90 <Get_LeadingEdgeDetectionInterface+0x240>
    2dbc:	6e bd       	out	0x2e, r22	; 46
    2dbe:	0d b4       	in	r0, 0x2d	; 45
    2dc0:	07 fe       	sbrs	r0, 7
    2dc2:	fd cf       	rjmp	.-6      	; 0x2dbe <Get_LeadingEdgeDetectionInterface+0x26e>
    2dc4:	8e b5       	in	r24, 0x2e	; 46
    2dc6:	f2 cf       	rjmp	.-28     	; 0x2dac <Get_LeadingEdgeDetectionInterface+0x25c>
    2dc8:	4e bd       	out	0x2e, r20	; 46
    2dca:	0d b4       	in	r0, 0x2d	; 45
    2dcc:	07 fe       	sbrs	r0, 7
    2dce:	fd cf       	rjmp	.-6      	; 0x2dca <Get_LeadingEdgeDetectionInterface+0x27a>
    2dd0:	8e b5       	in	r24, 0x2e	; 46
    2dd2:	ec cf       	rjmp	.-40     	; 0x2dac <Get_LeadingEdgeDetectionInterface+0x25c>
    2dd4:	5e bd       	out	0x2e, r21	; 46
    2dd6:	0d b4       	in	r0, 0x2d	; 45
    2dd8:	07 fe       	sbrs	r0, 7
    2dda:	fd cf       	rjmp	.-6      	; 0x2dd6 <Get_LeadingEdgeDetectionInterface+0x286>
    2ddc:	8e b5       	in	r24, 0x2e	; 46
    2dde:	e6 cf       	rjmp	.-52     	; 0x2dac <Get_LeadingEdgeDetectionInterface+0x25c>
    2de0:	2c 9a       	sbi	0x05, 4	; 5
    2de2:	2c 98       	cbi	0x05, 4	; 5
    2de4:	f6 01       	movw	r30, r12
    2de6:	34 96       	adiw	r30, 0x04	; 4
    2de8:	21 e0       	ldi	r18, 0x01	; 1
    2dea:	30 e0       	ldi	r19, 0x00	; 0
    2dec:	64 e8       	ldi	r22, 0x84	; 132
    2dee:	50 e5       	ldi	r21, 0x50	; 80
    2df0:	4e e6       	ldi	r20, 0x6E	; 110
    2df2:	c9 01       	movw	r24, r18
    2df4:	01 97       	sbiw	r24, 0x01	; 1
    2df6:	81 30       	cpi	r24, 0x01	; 1
    2df8:	91 05       	cpc	r25, r1
    2dfa:	b1 f0       	breq	.+44     	; 0x2e28 <Get_LeadingEdgeDetectionInterface+0x2d8>
    2dfc:	82 30       	cpi	r24, 0x02	; 2
    2dfe:	91 05       	cpc	r25, r1
    2e00:	f9 f0       	breq	.+62     	; 0x2e40 <Get_LeadingEdgeDetectionInterface+0x2f0>
    2e02:	89 2b       	or	r24, r25
    2e04:	b9 f0       	breq	.+46     	; 0x2e34 <Get_LeadingEdgeDetectionInterface+0x2e4>
    2e06:	1e bc       	out	0x2e, r1	; 46
    2e08:	0d b4       	in	r0, 0x2d	; 45
    2e0a:	07 fe       	sbrs	r0, 7
    2e0c:	fd cf       	rjmp	.-6      	; 0x2e08 <Get_LeadingEdgeDetectionInterface+0x2b8>
    2e0e:	8e b5       	in	r24, 0x2e	; 46
    2e10:	80 83       	st	Z, r24
    2e12:	25 30       	cpi	r18, 0x05	; 5
    2e14:	31 05       	cpc	r19, r1
    2e16:	d1 f0       	breq	.+52     	; 0x2e4c <Get_LeadingEdgeDetectionInterface+0x2fc>
    2e18:	2f 5f       	subi	r18, 0xFF	; 255
    2e1a:	3f 4f       	sbci	r19, 0xFF	; 255
    2e1c:	31 97       	sbiw	r30, 0x01	; 1
    2e1e:	c9 01       	movw	r24, r18
    2e20:	01 97       	sbiw	r24, 0x01	; 1
    2e22:	81 30       	cpi	r24, 0x01	; 1
    2e24:	91 05       	cpc	r25, r1
    2e26:	51 f7       	brne	.-44     	; 0x2dfc <Get_LeadingEdgeDetectionInterface+0x2ac>
    2e28:	6e bd       	out	0x2e, r22	; 46
    2e2a:	0d b4       	in	r0, 0x2d	; 45
    2e2c:	07 fe       	sbrs	r0, 7
    2e2e:	fd cf       	rjmp	.-6      	; 0x2e2a <Get_LeadingEdgeDetectionInterface+0x2da>
    2e30:	8e b5       	in	r24, 0x2e	; 46
    2e32:	f2 cf       	rjmp	.-28     	; 0x2e18 <Get_LeadingEdgeDetectionInterface+0x2c8>
    2e34:	4e bd       	out	0x2e, r20	; 46
    2e36:	0d b4       	in	r0, 0x2d	; 45
    2e38:	07 fe       	sbrs	r0, 7
    2e3a:	fd cf       	rjmp	.-6      	; 0x2e36 <Get_LeadingEdgeDetectionInterface+0x2e6>
    2e3c:	8e b5       	in	r24, 0x2e	; 46
    2e3e:	ec cf       	rjmp	.-40     	; 0x2e18 <Get_LeadingEdgeDetectionInterface+0x2c8>
    2e40:	5e bd       	out	0x2e, r21	; 46
    2e42:	0d b4       	in	r0, 0x2d	; 45
    2e44:	07 fe       	sbrs	r0, 7
    2e46:	fd cf       	rjmp	.-6      	; 0x2e42 <Get_LeadingEdgeDetectionInterface+0x2f2>
    2e48:	8e b5       	in	r24, 0x2e	; 46
    2e4a:	e6 cf       	rjmp	.-52     	; 0x2e18 <Get_LeadingEdgeDetectionInterface+0x2c8>
    2e4c:	2c 9a       	sbi	0x05, 4	; 5
    2e4e:	df 91       	pop	r29
    2e50:	cf 91       	pop	r28
    2e52:	1f 91       	pop	r17
    2e54:	0f 91       	pop	r16
    2e56:	ff 90       	pop	r15
    2e58:	ef 90       	pop	r14
    2e5a:	df 90       	pop	r13
    2e5c:	cf 90       	pop	r12
    2e5e:	bf 90       	pop	r11
    2e60:	08 95       	ret
    2e62:	be bd       	out	0x2e, r27	; 46
    2e64:	0d b4       	in	r0, 0x2d	; 45
    2e66:	07 fe       	sbrs	r0, 7
    2e68:	fd cf       	rjmp	.-6      	; 0x2e64 <Get_LeadingEdgeDetectionInterface+0x314>
    2e6a:	8e b5       	in	r24, 0x2e	; 46
    2e6c:	cd ce       	rjmp	.-614    	; 0x2c08 <Get_LeadingEdgeDetectionInterface+0xb8>

00002e6e <Get_PowerManagementAndSystemControl>:
    2e6e:	0f 93       	push	r16
    2e70:	1f 93       	push	r17
    2e72:	cf 93       	push	r28
    2e74:	df 93       	push	r29
    2e76:	2c 98       	cbi	0x05, 4	; 5
    2e78:	ec 01       	movw	r28, r24
    2e7a:	25 96       	adiw	r28, 0x05	; 5
    2e7c:	e1 e0       	ldi	r30, 0x01	; 1
    2e7e:	f0 e0       	ldi	r31, 0x00	; 0
    2e80:	96 e7       	ldi	r25, 0x76	; 118
    2e82:	df 01       	movw	r26, r30
    2e84:	11 97       	sbiw	r26, 0x01	; 1
    2e86:	61 f0       	breq	.+24     	; 0x2ea0 <Get_PowerManagementAndSystemControl+0x32>
    2e88:	11 97       	sbiw	r26, 0x01	; 1
    2e8a:	79 f4       	brne	.+30     	; 0x2eaa <Get_PowerManagementAndSystemControl+0x3c>
    2e8c:	1e bc       	out	0x2e, r1	; 46
    2e8e:	0d b4       	in	r0, 0x2d	; 45
    2e90:	07 fe       	sbrs	r0, 7
    2e92:	fd cf       	rjmp	.-6      	; 0x2e8e <Get_PowerManagementAndSystemControl+0x20>
    2e94:	8e b5       	in	r24, 0x2e	; 46
    2e96:	31 96       	adiw	r30, 0x01	; 1
    2e98:	21 97       	sbiw	r28, 0x01	; 1
    2e9a:	df 01       	movw	r26, r30
    2e9c:	11 97       	sbiw	r26, 0x01	; 1
    2e9e:	a1 f7       	brne	.-24     	; 0x2e88 <Get_PowerManagementAndSystemControl+0x1a>
    2ea0:	9e bd       	out	0x2e, r25	; 46
    2ea2:	0d b4       	in	r0, 0x2d	; 45
    2ea4:	07 fe       	sbrs	r0, 7
    2ea6:	fd cf       	rjmp	.-6      	; 0x2ea2 <Get_PowerManagementAndSystemControl+0x34>
    2ea8:	f5 cf       	rjmp	.-22     	; 0x2e94 <Get_PowerManagementAndSystemControl+0x26>
    2eaa:	1e bc       	out	0x2e, r1	; 46
    2eac:	0d b4       	in	r0, 0x2d	; 45
    2eae:	07 fe       	sbrs	r0, 7
    2eb0:	fd cf       	rjmp	.-6      	; 0x2eac <Get_PowerManagementAndSystemControl+0x3e>
    2eb2:	8e b5       	in	r24, 0x2e	; 46
    2eb4:	88 83       	st	Y, r24
    2eb6:	e6 30       	cpi	r30, 0x06	; 6
    2eb8:	f1 05       	cpc	r31, r1
    2eba:	69 f7       	brne	.-38     	; 0x2e96 <Get_PowerManagementAndSystemControl+0x28>
    2ebc:	2c 9a       	sbi	0x05, 4	; 5
    2ebe:	2c 98       	cbi	0x05, 4	; 5
    2ec0:	db 01       	movw	r26, r22
    2ec2:	15 96       	adiw	r26, 0x05	; 5
    2ec4:	81 e0       	ldi	r24, 0x01	; 1
    2ec6:	90 e0       	ldi	r25, 0x00	; 0
    2ec8:	c6 e7       	ldi	r28, 0x76	; 118
    2eca:	74 e0       	ldi	r23, 0x04	; 4
    2ecc:	fc 01       	movw	r30, r24
    2ece:	31 97       	sbiw	r30, 0x01	; 1
    2ed0:	61 f0       	breq	.+24     	; 0x2eea <Get_PowerManagementAndSystemControl+0x7c>
    2ed2:	31 97       	sbiw	r30, 0x01	; 1
    2ed4:	79 f4       	brne	.+30     	; 0x2ef4 <Get_PowerManagementAndSystemControl+0x86>
    2ed6:	7e bd       	out	0x2e, r23	; 46
    2ed8:	0d b4       	in	r0, 0x2d	; 45
    2eda:	07 fe       	sbrs	r0, 7
    2edc:	fd cf       	rjmp	.-6      	; 0x2ed8 <Get_PowerManagementAndSystemControl+0x6a>
    2ede:	6e b5       	in	r22, 0x2e	; 46
    2ee0:	01 96       	adiw	r24, 0x01	; 1
    2ee2:	11 97       	sbiw	r26, 0x01	; 1
    2ee4:	fc 01       	movw	r30, r24
    2ee6:	31 97       	sbiw	r30, 0x01	; 1
    2ee8:	a1 f7       	brne	.-24     	; 0x2ed2 <Get_PowerManagementAndSystemControl+0x64>
    2eea:	ce bd       	out	0x2e, r28	; 46
    2eec:	0d b4       	in	r0, 0x2d	; 45
    2eee:	07 fe       	sbrs	r0, 7
    2ef0:	fd cf       	rjmp	.-6      	; 0x2eec <Get_PowerManagementAndSystemControl+0x7e>
    2ef2:	f5 cf       	rjmp	.-22     	; 0x2ede <Get_PowerManagementAndSystemControl+0x70>
    2ef4:	1e bc       	out	0x2e, r1	; 46
    2ef6:	0d b4       	in	r0, 0x2d	; 45
    2ef8:	07 fe       	sbrs	r0, 7
    2efa:	fd cf       	rjmp	.-6      	; 0x2ef6 <Get_PowerManagementAndSystemControl+0x88>
    2efc:	6e b5       	in	r22, 0x2e	; 46
    2efe:	6c 93       	st	X, r22
    2f00:	86 30       	cpi	r24, 0x06	; 6
    2f02:	91 05       	cpc	r25, r1
    2f04:	69 f7       	brne	.-38     	; 0x2ee0 <Get_PowerManagementAndSystemControl+0x72>
    2f06:	2c 9a       	sbi	0x05, 4	; 5
    2f08:	2c 98       	cbi	0x05, 4	; 5
    2f0a:	da 01       	movw	r26, r20
    2f0c:	12 96       	adiw	r26, 0x02	; 2
    2f0e:	81 e0       	ldi	r24, 0x01	; 1
    2f10:	90 e0       	ldi	r25, 0x00	; 0
    2f12:	f6 e7       	ldi	r31, 0x76	; 118
    2f14:	ec e0       	ldi	r30, 0x0C	; 12
    2f16:	bc 01       	movw	r22, r24
    2f18:	61 50       	subi	r22, 0x01	; 1
    2f1a:	71 09       	sbc	r23, r1
    2f1c:	71 f0       	breq	.+28     	; 0x2f3a <Get_PowerManagementAndSystemControl+0xcc>
    2f1e:	61 30       	cpi	r22, 0x01	; 1
    2f20:	71 05       	cpc	r23, r1
    2f22:	81 f4       	brne	.+32     	; 0x2f44 <Get_PowerManagementAndSystemControl+0xd6>
    2f24:	ee bd       	out	0x2e, r30	; 46
    2f26:	0d b4       	in	r0, 0x2d	; 45
    2f28:	07 fe       	sbrs	r0, 7
    2f2a:	fd cf       	rjmp	.-6      	; 0x2f26 <Get_PowerManagementAndSystemControl+0xb8>
    2f2c:	6e b5       	in	r22, 0x2e	; 46
    2f2e:	01 96       	adiw	r24, 0x01	; 1
    2f30:	11 97       	sbiw	r26, 0x01	; 1
    2f32:	bc 01       	movw	r22, r24
    2f34:	61 50       	subi	r22, 0x01	; 1
    2f36:	71 09       	sbc	r23, r1
    2f38:	91 f7       	brne	.-28     	; 0x2f1e <Get_PowerManagementAndSystemControl+0xb0>
    2f3a:	fe bd       	out	0x2e, r31	; 46
    2f3c:	0d b4       	in	r0, 0x2d	; 45
    2f3e:	07 fe       	sbrs	r0, 7
    2f40:	fd cf       	rjmp	.-6      	; 0x2f3c <Get_PowerManagementAndSystemControl+0xce>
    2f42:	f4 cf       	rjmp	.-24     	; 0x2f2c <Get_PowerManagementAndSystemControl+0xbe>
    2f44:	1e bc       	out	0x2e, r1	; 46
    2f46:	0d b4       	in	r0, 0x2d	; 45
    2f48:	07 fe       	sbrs	r0, 7
    2f4a:	fd cf       	rjmp	.-6      	; 0x2f46 <Get_PowerManagementAndSystemControl+0xd8>
    2f4c:	6e b5       	in	r22, 0x2e	; 46
    2f4e:	6c 93       	st	X, r22
    2f50:	83 30       	cpi	r24, 0x03	; 3
    2f52:	91 05       	cpc	r25, r1
    2f54:	61 f7       	brne	.-40     	; 0x2f2e <Get_PowerManagementAndSystemControl+0xc0>
    2f56:	2c 9a       	sbi	0x05, 4	; 5
    2f58:	2c 98       	cbi	0x05, 4	; 5
    2f5a:	f9 01       	movw	r30, r18
    2f5c:	33 96       	adiw	r30, 0x03	; 3
    2f5e:	81 e0       	ldi	r24, 0x01	; 1
    2f60:	90 e0       	ldi	r25, 0x00	; 0
    2f62:	66 e7       	ldi	r22, 0x76	; 118
    2f64:	36 e2       	ldi	r19, 0x26	; 38
    2f66:	ac 01       	movw	r20, r24
    2f68:	41 50       	subi	r20, 0x01	; 1
    2f6a:	51 09       	sbc	r21, r1
    2f6c:	71 f0       	breq	.+28     	; 0x2f8a <Get_PowerManagementAndSystemControl+0x11c>
    2f6e:	41 30       	cpi	r20, 0x01	; 1
    2f70:	51 05       	cpc	r21, r1
    2f72:	81 f4       	brne	.+32     	; 0x2f94 <Get_PowerManagementAndSystemControl+0x126>
    2f74:	3e bd       	out	0x2e, r19	; 46
    2f76:	0d b4       	in	r0, 0x2d	; 45
    2f78:	07 fe       	sbrs	r0, 7
    2f7a:	fd cf       	rjmp	.-6      	; 0x2f76 <Get_PowerManagementAndSystemControl+0x108>
    2f7c:	2e b5       	in	r18, 0x2e	; 46
    2f7e:	01 96       	adiw	r24, 0x01	; 1
    2f80:	31 97       	sbiw	r30, 0x01	; 1
    2f82:	ac 01       	movw	r20, r24
    2f84:	41 50       	subi	r20, 0x01	; 1
    2f86:	51 09       	sbc	r21, r1
    2f88:	91 f7       	brne	.-28     	; 0x2f6e <Get_PowerManagementAndSystemControl+0x100>
    2f8a:	6e bd       	out	0x2e, r22	; 46
    2f8c:	0d b4       	in	r0, 0x2d	; 45
    2f8e:	07 fe       	sbrs	r0, 7
    2f90:	fd cf       	rjmp	.-6      	; 0x2f8c <Get_PowerManagementAndSystemControl+0x11e>
    2f92:	f4 cf       	rjmp	.-24     	; 0x2f7c <Get_PowerManagementAndSystemControl+0x10e>
    2f94:	1e bc       	out	0x2e, r1	; 46
    2f96:	0d b4       	in	r0, 0x2d	; 45
    2f98:	07 fe       	sbrs	r0, 7
    2f9a:	fd cf       	rjmp	.-6      	; 0x2f96 <Get_PowerManagementAndSystemControl+0x128>
    2f9c:	2e b5       	in	r18, 0x2e	; 46
    2f9e:	20 83       	st	Z, r18
    2fa0:	84 30       	cpi	r24, 0x04	; 4
    2fa2:	91 05       	cpc	r25, r1
    2fa4:	61 f7       	brne	.-40     	; 0x2f7e <Get_PowerManagementAndSystemControl+0x110>
    2fa6:	2c 9a       	sbi	0x05, 4	; 5
    2fa8:	2c 98       	cbi	0x05, 4	; 5
    2faa:	f8 01       	movw	r30, r16
    2fac:	35 96       	adiw	r30, 0x05	; 5
    2fae:	81 e0       	ldi	r24, 0x01	; 1
    2fb0:	90 e0       	ldi	r25, 0x00	; 0
    2fb2:	56 e7       	ldi	r21, 0x76	; 118
    2fb4:	48 e2       	ldi	r20, 0x28	; 40
    2fb6:	9c 01       	movw	r18, r24
    2fb8:	21 50       	subi	r18, 0x01	; 1
    2fba:	31 09       	sbc	r19, r1
    2fbc:	71 f0       	breq	.+28     	; 0x2fda <Get_PowerManagementAndSystemControl+0x16c>
    2fbe:	21 30       	cpi	r18, 0x01	; 1
    2fc0:	31 05       	cpc	r19, r1
    2fc2:	81 f4       	brne	.+32     	; 0x2fe4 <Get_PowerManagementAndSystemControl+0x176>
    2fc4:	4e bd       	out	0x2e, r20	; 46
    2fc6:	0d b4       	in	r0, 0x2d	; 45
    2fc8:	07 fe       	sbrs	r0, 7
    2fca:	fd cf       	rjmp	.-6      	; 0x2fc6 <Get_PowerManagementAndSystemControl+0x158>
    2fcc:	2e b5       	in	r18, 0x2e	; 46
    2fce:	01 96       	adiw	r24, 0x01	; 1
    2fd0:	31 97       	sbiw	r30, 0x01	; 1
    2fd2:	9c 01       	movw	r18, r24
    2fd4:	21 50       	subi	r18, 0x01	; 1
    2fd6:	31 09       	sbc	r19, r1
    2fd8:	91 f7       	brne	.-28     	; 0x2fbe <Get_PowerManagementAndSystemControl+0x150>
    2fda:	5e bd       	out	0x2e, r21	; 46
    2fdc:	0d b4       	in	r0, 0x2d	; 45
    2fde:	07 fe       	sbrs	r0, 7
    2fe0:	fd cf       	rjmp	.-6      	; 0x2fdc <Get_PowerManagementAndSystemControl+0x16e>
    2fe2:	f4 cf       	rjmp	.-24     	; 0x2fcc <Get_PowerManagementAndSystemControl+0x15e>
    2fe4:	1e bc       	out	0x2e, r1	; 46
    2fe6:	0d b4       	in	r0, 0x2d	; 45
    2fe8:	07 fe       	sbrs	r0, 7
    2fea:	fd cf       	rjmp	.-6      	; 0x2fe6 <Get_PowerManagementAndSystemControl+0x178>
    2fec:	2e b5       	in	r18, 0x2e	; 46
    2fee:	20 83       	st	Z, r18
    2ff0:	86 30       	cpi	r24, 0x06	; 6
    2ff2:	91 05       	cpc	r25, r1
    2ff4:	61 f7       	brne	.-40     	; 0x2fce <Get_PowerManagementAndSystemControl+0x160>
    2ff6:	2c 9a       	sbi	0x05, 4	; 5
    2ff8:	df 91       	pop	r29
    2ffa:	cf 91       	pop	r28
    2ffc:	1f 91       	pop	r17
    2ffe:	0f 91       	pop	r16
    3000:	08 95       	ret

00003002 <Get_RXFrameBuffer>:
    3002:	2c 98       	cbi	0x05, 4	; 5
    3004:	03 96       	adiw	r24, 0x03	; 3
    3006:	41 e0       	ldi	r20, 0x01	; 1
    3008:	50 e0       	ldi	r21, 0x00	; 0
    300a:	70 e8       	ldi	r23, 0x80	; 128
    300c:	61 e5       	ldi	r22, 0x51	; 81
    300e:	9a 01       	movw	r18, r20
    3010:	21 50       	subi	r18, 0x01	; 1
    3012:	31 09       	sbc	r19, r1
    3014:	21 30       	cpi	r18, 0x01	; 1
    3016:	31 05       	cpc	r19, r1
    3018:	c1 f0       	breq	.+48     	; 0x304a <Get_RXFrameBuffer+0x48>
    301a:	22 30       	cpi	r18, 0x02	; 2
    301c:	31 05       	cpc	r19, r1
    301e:	19 f1       	breq	.+70     	; 0x3066 <Get_RXFrameBuffer+0x64>
    3020:	23 2b       	or	r18, r19
    3022:	c9 f0       	breq	.+50     	; 0x3056 <Get_RXFrameBuffer+0x54>
    3024:	1e bc       	out	0x2e, r1	; 46
    3026:	0d b4       	in	r0, 0x2d	; 45
    3028:	07 fe       	sbrs	r0, 7
    302a:	fd cf       	rjmp	.-6      	; 0x3026 <Get_RXFrameBuffer+0x24>
    302c:	2e b5       	in	r18, 0x2e	; 46
    302e:	fc 01       	movw	r30, r24
    3030:	20 83       	st	Z, r18
    3032:	44 30       	cpi	r20, 0x04	; 4
    3034:	51 05       	cpc	r21, r1
    3036:	a9 f0       	breq	.+42     	; 0x3062 <Get_RXFrameBuffer+0x60>
    3038:	4f 5f       	subi	r20, 0xFF	; 255
    303a:	5f 4f       	sbci	r21, 0xFF	; 255
    303c:	01 97       	sbiw	r24, 0x01	; 1
    303e:	9a 01       	movw	r18, r20
    3040:	21 50       	subi	r18, 0x01	; 1
    3042:	31 09       	sbc	r19, r1
    3044:	21 30       	cpi	r18, 0x01	; 1
    3046:	31 05       	cpc	r19, r1
    3048:	41 f7       	brne	.-48     	; 0x301a <Get_RXFrameBuffer+0x18>
    304a:	7e bd       	out	0x2e, r23	; 46
    304c:	0d b4       	in	r0, 0x2d	; 45
    304e:	07 fe       	sbrs	r0, 7
    3050:	fd cf       	rjmp	.-6      	; 0x304c <Get_RXFrameBuffer+0x4a>
    3052:	2e b5       	in	r18, 0x2e	; 46
    3054:	f1 cf       	rjmp	.-30     	; 0x3038 <Get_RXFrameBuffer+0x36>
    3056:	6e bd       	out	0x2e, r22	; 46
    3058:	0d b4       	in	r0, 0x2d	; 45
    305a:	07 fe       	sbrs	r0, 7
    305c:	fd cf       	rjmp	.-6      	; 0x3058 <Get_RXFrameBuffer+0x56>
    305e:	2e b5       	in	r18, 0x2e	; 46
    3060:	eb cf       	rjmp	.-42     	; 0x3038 <Get_RXFrameBuffer+0x36>
    3062:	2c 9a       	sbi	0x05, 4	; 5
    3064:	08 95       	ret
    3066:	1e bc       	out	0x2e, r1	; 46
    3068:	0d b4       	in	r0, 0x2d	; 45
    306a:	07 fe       	sbrs	r0, 7
    306c:	fd cf       	rjmp	.-6      	; 0x3068 <Get_RXFrameBuffer+0x66>
    306e:	2e b5       	in	r18, 0x2e	; 46
    3070:	e3 cf       	rjmp	.-58     	; 0x3038 <Get_RXFrameBuffer+0x36>

00003072 <Set_ID>:
    3072:	2c 98       	cbi	0x05, 4	; 5
    3074:	fc 01       	movw	r30, r24
    3076:	34 96       	adiw	r30, 0x04	; 4
    3078:	21 e0       	ldi	r18, 0x01	; 1
    307a:	30 e0       	ldi	r19, 0x00	; 0
    307c:	90 e8       	ldi	r25, 0x80	; 128
    307e:	21 30       	cpi	r18, 0x01	; 1
    3080:	31 05       	cpc	r19, r1
    3082:	59 f4       	brne	.+22     	; 0x309a <Set_ID+0x28>
    3084:	9e bd       	out	0x2e, r25	; 46
    3086:	0d b4       	in	r0, 0x2d	; 45
    3088:	07 fe       	sbrs	r0, 7
    308a:	fd cf       	rjmp	.-6      	; 0x3086 <Set_ID+0x14>
    308c:	8e b5       	in	r24, 0x2e	; 46
    308e:	2f 5f       	subi	r18, 0xFF	; 255
    3090:	3f 4f       	sbci	r19, 0xFF	; 255
    3092:	31 97       	sbiw	r30, 0x01	; 1
    3094:	21 30       	cpi	r18, 0x01	; 1
    3096:	31 05       	cpc	r19, r1
    3098:	a9 f3       	breq	.-22     	; 0x3084 <Set_ID+0x12>
    309a:	80 81       	ld	r24, Z
    309c:	8e bd       	out	0x2e, r24	; 46
    309e:	0d b4       	in	r0, 0x2d	; 45
    30a0:	07 fe       	sbrs	r0, 7
    30a2:	fd cf       	rjmp	.-6      	; 0x309e <Set_ID+0x2c>
    30a4:	8e b5       	in	r24, 0x2e	; 46
    30a6:	25 30       	cpi	r18, 0x05	; 5
    30a8:	31 05       	cpc	r19, r1
    30aa:	89 f7       	brne	.-30     	; 0x308e <Set_ID+0x1c>
    30ac:	2c 9a       	sbi	0x05, 4	; 5
    30ae:	08 95       	ret

000030b0 <Set_SystemConfiguration>:
    30b0:	2c 98       	cbi	0x05, 4	; 5
    30b2:	fc 01       	movw	r30, r24
    30b4:	34 96       	adiw	r30, 0x04	; 4
    30b6:	21 e0       	ldi	r18, 0x01	; 1
    30b8:	30 e0       	ldi	r19, 0x00	; 0
    30ba:	94 e8       	ldi	r25, 0x84	; 132
    30bc:	21 30       	cpi	r18, 0x01	; 1
    30be:	31 05       	cpc	r19, r1
    30c0:	59 f4       	brne	.+22     	; 0x30d8 <Set_SystemConfiguration+0x28>
    30c2:	9e bd       	out	0x2e, r25	; 46
    30c4:	0d b4       	in	r0, 0x2d	; 45
    30c6:	07 fe       	sbrs	r0, 7
    30c8:	fd cf       	rjmp	.-6      	; 0x30c4 <Set_SystemConfiguration+0x14>
    30ca:	8e b5       	in	r24, 0x2e	; 46
    30cc:	2f 5f       	subi	r18, 0xFF	; 255
    30ce:	3f 4f       	sbci	r19, 0xFF	; 255
    30d0:	31 97       	sbiw	r30, 0x01	; 1
    30d2:	21 30       	cpi	r18, 0x01	; 1
    30d4:	31 05       	cpc	r19, r1
    30d6:	a9 f3       	breq	.-22     	; 0x30c2 <Set_SystemConfiguration+0x12>
    30d8:	80 81       	ld	r24, Z
    30da:	8e bd       	out	0x2e, r24	; 46
    30dc:	0d b4       	in	r0, 0x2d	; 45
    30de:	07 fe       	sbrs	r0, 7
    30e0:	fd cf       	rjmp	.-6      	; 0x30dc <Set_SystemConfiguration+0x2c>
    30e2:	8e b5       	in	r24, 0x2e	; 46
    30e4:	25 30       	cpi	r18, 0x05	; 5
    30e6:	31 05       	cpc	r19, r1
    30e8:	89 f7       	brne	.-30     	; 0x30cc <Set_SystemConfiguration+0x1c>
    30ea:	2c 9a       	sbi	0x05, 4	; 5
    30ec:	08 95       	ret

000030ee <Set_SystemTimeCounter>:
    30ee:	2c 98       	cbi	0x05, 4	; 5
    30f0:	fc 01       	movw	r30, r24
    30f2:	34 96       	adiw	r30, 0x04	; 4
    30f4:	21 e0       	ldi	r18, 0x01	; 1
    30f6:	30 e0       	ldi	r19, 0x00	; 0
    30f8:	97 e8       	ldi	r25, 0x87	; 135
    30fa:	21 30       	cpi	r18, 0x01	; 1
    30fc:	31 05       	cpc	r19, r1
    30fe:	59 f4       	brne	.+22     	; 0x3116 <Set_SystemTimeCounter+0x28>
    3100:	9e bd       	out	0x2e, r25	; 46
    3102:	0d b4       	in	r0, 0x2d	; 45
    3104:	07 fe       	sbrs	r0, 7
    3106:	fd cf       	rjmp	.-6      	; 0x3102 <Set_SystemTimeCounter+0x14>
    3108:	8e b5       	in	r24, 0x2e	; 46
    310a:	2f 5f       	subi	r18, 0xFF	; 255
    310c:	3f 4f       	sbci	r19, 0xFF	; 255
    310e:	31 97       	sbiw	r30, 0x01	; 1
    3110:	21 30       	cpi	r18, 0x01	; 1
    3112:	31 05       	cpc	r19, r1
    3114:	a9 f3       	breq	.-22     	; 0x3100 <Set_SystemTimeCounter+0x12>
    3116:	80 81       	ld	r24, Z
    3118:	8e bd       	out	0x2e, r24	; 46
    311a:	0d b4       	in	r0, 0x2d	; 45
    311c:	07 fe       	sbrs	r0, 7
    311e:	fd cf       	rjmp	.-6      	; 0x311a <Set_SystemTimeCounter+0x2c>
    3120:	8e b5       	in	r24, 0x2e	; 46
    3122:	25 30       	cpi	r18, 0x05	; 5
    3124:	31 05       	cpc	r19, r1
    3126:	89 f7       	brne	.-30     	; 0x310a <Set_SystemTimeCounter+0x1c>
    3128:	2c 9a       	sbi	0x05, 4	; 5
    312a:	2c 98       	cbi	0x05, 4	; 5
    312c:	fb 01       	movw	r30, r22
    312e:	32 96       	adiw	r30, 0x02	; 2
    3130:	81 e0       	ldi	r24, 0x01	; 1
    3132:	90 e0       	ldi	r25, 0x00	; 0
    3134:	57 ec       	ldi	r21, 0xC7	; 199
    3136:	44 e0       	ldi	r20, 0x04	; 4
    3138:	9c 01       	movw	r18, r24
    313a:	21 50       	subi	r18, 0x01	; 1
    313c:	31 09       	sbc	r19, r1
    313e:	71 f0       	breq	.+28     	; 0x315c <Set_SystemTimeCounter+0x6e>
    3140:	21 30       	cpi	r18, 0x01	; 1
    3142:	31 05       	cpc	r19, r1
    3144:	81 f4       	brne	.+32     	; 0x3166 <Set_SystemTimeCounter+0x78>
    3146:	4e bd       	out	0x2e, r20	; 46
    3148:	0d b4       	in	r0, 0x2d	; 45
    314a:	07 fe       	sbrs	r0, 7
    314c:	fd cf       	rjmp	.-6      	; 0x3148 <Set_SystemTimeCounter+0x5a>
    314e:	2e b5       	in	r18, 0x2e	; 46
    3150:	01 96       	adiw	r24, 0x01	; 1
    3152:	31 97       	sbiw	r30, 0x01	; 1
    3154:	9c 01       	movw	r18, r24
    3156:	21 50       	subi	r18, 0x01	; 1
    3158:	31 09       	sbc	r19, r1
    315a:	91 f7       	brne	.-28     	; 0x3140 <Set_SystemTimeCounter+0x52>
    315c:	5e bd       	out	0x2e, r21	; 46
    315e:	0d b4       	in	r0, 0x2d	; 45
    3160:	07 fe       	sbrs	r0, 7
    3162:	fd cf       	rjmp	.-6      	; 0x315e <Set_SystemTimeCounter+0x70>
    3164:	f4 cf       	rjmp	.-24     	; 0x314e <Set_SystemTimeCounter+0x60>
    3166:	20 81       	ld	r18, Z
    3168:	2e bd       	out	0x2e, r18	; 46
    316a:	0d b4       	in	r0, 0x2d	; 45
    316c:	07 fe       	sbrs	r0, 7
    316e:	fd cf       	rjmp	.-6      	; 0x316a <Set_SystemTimeCounter+0x7c>
    3170:	2e b5       	in	r18, 0x2e	; 46
    3172:	83 30       	cpi	r24, 0x03	; 3
    3174:	91 05       	cpc	r25, r1
    3176:	61 f7       	brne	.-40     	; 0x3150 <Set_SystemTimeCounter+0x62>
    3178:	2c 9a       	sbi	0x05, 4	; 5
    317a:	08 95       	ret

0000317c <Set_TransmitFrameControl>:
    317c:	2c 98       	cbi	0x05, 4	; 5
    317e:	fc 01       	movw	r30, r24
    3180:	34 96       	adiw	r30, 0x04	; 4
    3182:	21 e0       	ldi	r18, 0x01	; 1
    3184:	30 e0       	ldi	r19, 0x00	; 0
    3186:	98 e8       	ldi	r25, 0x88	; 136
    3188:	21 30       	cpi	r18, 0x01	; 1
    318a:	31 05       	cpc	r19, r1
    318c:	59 f4       	brne	.+22     	; 0x31a4 <Set_TransmitFrameControl+0x28>
    318e:	9e bd       	out	0x2e, r25	; 46
    3190:	0d b4       	in	r0, 0x2d	; 45
    3192:	07 fe       	sbrs	r0, 7
    3194:	fd cf       	rjmp	.-6      	; 0x3190 <Set_TransmitFrameControl+0x14>
    3196:	8e b5       	in	r24, 0x2e	; 46
    3198:	2f 5f       	subi	r18, 0xFF	; 255
    319a:	3f 4f       	sbci	r19, 0xFF	; 255
    319c:	31 97       	sbiw	r30, 0x01	; 1
    319e:	21 30       	cpi	r18, 0x01	; 1
    31a0:	31 05       	cpc	r19, r1
    31a2:	a9 f3       	breq	.-22     	; 0x318e <Set_TransmitFrameControl+0x12>
    31a4:	80 81       	ld	r24, Z
    31a6:	8e bd       	out	0x2e, r24	; 46
    31a8:	0d b4       	in	r0, 0x2d	; 45
    31aa:	07 fe       	sbrs	r0, 7
    31ac:	fd cf       	rjmp	.-6      	; 0x31a8 <Set_TransmitFrameControl+0x2c>
    31ae:	8e b5       	in	r24, 0x2e	; 46
    31b0:	25 30       	cpi	r18, 0x05	; 5
    31b2:	31 05       	cpc	r19, r1
    31b4:	89 f7       	brne	.-30     	; 0x3198 <Set_TransmitFrameControl+0x1c>
    31b6:	2c 9a       	sbi	0x05, 4	; 5
    31b8:	2c 98       	cbi	0x05, 4	; 5
    31ba:	fb 01       	movw	r30, r22
    31bc:	32 96       	adiw	r30, 0x02	; 2
    31be:	81 e0       	ldi	r24, 0x01	; 1
    31c0:	90 e0       	ldi	r25, 0x00	; 0
    31c2:	58 ec       	ldi	r21, 0xC8	; 200
    31c4:	44 e0       	ldi	r20, 0x04	; 4
    31c6:	9c 01       	movw	r18, r24
    31c8:	21 50       	subi	r18, 0x01	; 1
    31ca:	31 09       	sbc	r19, r1
    31cc:	71 f0       	breq	.+28     	; 0x31ea <Set_TransmitFrameControl+0x6e>
    31ce:	21 30       	cpi	r18, 0x01	; 1
    31d0:	31 05       	cpc	r19, r1
    31d2:	81 f4       	brne	.+32     	; 0x31f4 <Set_TransmitFrameControl+0x78>
    31d4:	4e bd       	out	0x2e, r20	; 46
    31d6:	0d b4       	in	r0, 0x2d	; 45
    31d8:	07 fe       	sbrs	r0, 7
    31da:	fd cf       	rjmp	.-6      	; 0x31d6 <Set_TransmitFrameControl+0x5a>
    31dc:	2e b5       	in	r18, 0x2e	; 46
    31de:	01 96       	adiw	r24, 0x01	; 1
    31e0:	31 97       	sbiw	r30, 0x01	; 1
    31e2:	9c 01       	movw	r18, r24
    31e4:	21 50       	subi	r18, 0x01	; 1
    31e6:	31 09       	sbc	r19, r1
    31e8:	91 f7       	brne	.-28     	; 0x31ce <Set_TransmitFrameControl+0x52>
    31ea:	5e bd       	out	0x2e, r21	; 46
    31ec:	0d b4       	in	r0, 0x2d	; 45
    31ee:	07 fe       	sbrs	r0, 7
    31f0:	fd cf       	rjmp	.-6      	; 0x31ec <Set_TransmitFrameControl+0x70>
    31f2:	f4 cf       	rjmp	.-24     	; 0x31dc <Set_TransmitFrameControl+0x60>
    31f4:	20 81       	ld	r18, Z
    31f6:	2e bd       	out	0x2e, r18	; 46
    31f8:	0d b4       	in	r0, 0x2d	; 45
    31fa:	07 fe       	sbrs	r0, 7
    31fc:	fd cf       	rjmp	.-6      	; 0x31f8 <Set_TransmitFrameControl+0x7c>
    31fe:	2e b5       	in	r18, 0x2e	; 46
    3200:	83 30       	cpi	r24, 0x03	; 3
    3202:	91 05       	cpc	r25, r1
    3204:	61 f7       	brne	.-40     	; 0x31de <Set_TransmitFrameControl+0x62>
    3206:	2c 9a       	sbi	0x05, 4	; 5
    3208:	08 95       	ret

0000320a <Stop_Transmiter>:
    320a:	cf 93       	push	r28
    320c:	df 93       	push	r29
    320e:	00 d0       	rcall	.+0      	; 0x3210 <Stop_Transmiter+0x6>
    3210:	00 d0       	rcall	.+0      	; 0x3212 <Stop_Transmiter+0x8>
    3212:	cd b7       	in	r28, 0x3d	; 61
    3214:	de b7       	in	r29, 0x3e	; 62
    3216:	19 82       	std	Y+1, r1	; 0x01
    3218:	1a 82       	std	Y+2, r1	; 0x02
    321a:	1b 82       	std	Y+3, r1	; 0x03
    321c:	80 e4       	ldi	r24, 0x40	; 64
    321e:	8c 83       	std	Y+4, r24	; 0x04
    3220:	2c 98       	cbi	0x05, 4	; 5
    3222:	fe 01       	movw	r30, r28
    3224:	35 96       	adiw	r30, 0x05	; 5
    3226:	81 e0       	ldi	r24, 0x01	; 1
    3228:	90 e0       	ldi	r25, 0x00	; 0
    322a:	3d e8       	ldi	r19, 0x8D	; 141
    322c:	81 30       	cpi	r24, 0x01	; 1
    322e:	91 05       	cpc	r25, r1
    3230:	51 f4       	brne	.+20     	; 0x3246 <Stop_Transmiter+0x3c>
    3232:	3e bd       	out	0x2e, r19	; 46
    3234:	0d b4       	in	r0, 0x2d	; 45
    3236:	07 fe       	sbrs	r0, 7
    3238:	fd cf       	rjmp	.-6      	; 0x3234 <Stop_Transmiter+0x2a>
    323a:	2e b5       	in	r18, 0x2e	; 46
    323c:	01 96       	adiw	r24, 0x01	; 1
    323e:	31 97       	sbiw	r30, 0x01	; 1
    3240:	81 30       	cpi	r24, 0x01	; 1
    3242:	91 05       	cpc	r25, r1
    3244:	b1 f3       	breq	.-20     	; 0x3232 <Stop_Transmiter+0x28>
    3246:	20 81       	ld	r18, Z
    3248:	2e bd       	out	0x2e, r18	; 46
    324a:	0d b4       	in	r0, 0x2d	; 45
    324c:	07 fe       	sbrs	r0, 7
    324e:	fd cf       	rjmp	.-6      	; 0x324a <Stop_Transmiter+0x40>
    3250:	2e b5       	in	r18, 0x2e	; 46
    3252:	85 30       	cpi	r24, 0x05	; 5
    3254:	91 05       	cpc	r25, r1
    3256:	91 f7       	brne	.-28     	; 0x323c <Stop_Transmiter+0x32>
    3258:	2c 9a       	sbi	0x05, 4	; 5
    325a:	0f 90       	pop	r0
    325c:	0f 90       	pop	r0
    325e:	0f 90       	pop	r0
    3260:	0f 90       	pop	r0
    3262:	df 91       	pop	r29
    3264:	cf 91       	pop	r28
    3266:	08 95       	ret

00003268 <Start_Transmit>:
    3268:	cf 93       	push	r28
    326a:	df 93       	push	r29
    326c:	00 d0       	rcall	.+0      	; 0x326e <Start_Transmit+0x6>
    326e:	00 d0       	rcall	.+0      	; 0x3270 <Start_Transmit+0x8>
    3270:	cd b7       	in	r28, 0x3d	; 61
    3272:	de b7       	in	r29, 0x3e	; 62
    3274:	19 82       	std	Y+1, r1	; 0x01
    3276:	1a 82       	std	Y+2, r1	; 0x02
    3278:	1b 82       	std	Y+3, r1	; 0x03
    327a:	82 e0       	ldi	r24, 0x02	; 2
    327c:	8c 83       	std	Y+4, r24	; 0x04
    327e:	2c 98       	cbi	0x05, 4	; 5
    3280:	fe 01       	movw	r30, r28
    3282:	35 96       	adiw	r30, 0x05	; 5
    3284:	81 e0       	ldi	r24, 0x01	; 1
    3286:	90 e0       	ldi	r25, 0x00	; 0
    3288:	3d e8       	ldi	r19, 0x8D	; 141
    328a:	81 30       	cpi	r24, 0x01	; 1
    328c:	91 05       	cpc	r25, r1
    328e:	51 f4       	brne	.+20     	; 0x32a4 <Start_Transmit+0x3c>
    3290:	3e bd       	out	0x2e, r19	; 46
    3292:	0d b4       	in	r0, 0x2d	; 45
    3294:	07 fe       	sbrs	r0, 7
    3296:	fd cf       	rjmp	.-6      	; 0x3292 <Start_Transmit+0x2a>
    3298:	2e b5       	in	r18, 0x2e	; 46
    329a:	01 96       	adiw	r24, 0x01	; 1
    329c:	31 97       	sbiw	r30, 0x01	; 1
    329e:	81 30       	cpi	r24, 0x01	; 1
    32a0:	91 05       	cpc	r25, r1
    32a2:	b1 f3       	breq	.-20     	; 0x3290 <Start_Transmit+0x28>
    32a4:	20 81       	ld	r18, Z
    32a6:	2e bd       	out	0x2e, r18	; 46
    32a8:	0d b4       	in	r0, 0x2d	; 45
    32aa:	07 fe       	sbrs	r0, 7
    32ac:	fd cf       	rjmp	.-6      	; 0x32a8 <Start_Transmit+0x40>
    32ae:	2e b5       	in	r18, 0x2e	; 46
    32b0:	85 30       	cpi	r24, 0x05	; 5
    32b2:	91 05       	cpc	r25, r1
    32b4:	91 f7       	brne	.-28     	; 0x329a <Start_Transmit+0x32>
    32b6:	2c 9a       	sbi	0x05, 4	; 5
    32b8:	0f 90       	pop	r0
    32ba:	0f 90       	pop	r0
    32bc:	0f 90       	pop	r0
    32be:	0f 90       	pop	r0
    32c0:	df 91       	pop	r29
    32c2:	cf 91       	pop	r28
    32c4:	08 95       	ret

000032c6 <Start_Receiving>:
    32c6:	cf 93       	push	r28
    32c8:	df 93       	push	r29
    32ca:	00 d0       	rcall	.+0      	; 0x32cc <Start_Receiving+0x6>
    32cc:	00 d0       	rcall	.+0      	; 0x32ce <Start_Receiving+0x8>
    32ce:	cd b7       	in	r28, 0x3d	; 61
    32d0:	de b7       	in	r29, 0x3e	; 62
    32d2:	19 82       	std	Y+1, r1	; 0x01
    32d4:	1a 82       	std	Y+2, r1	; 0x02
    32d6:	81 e0       	ldi	r24, 0x01	; 1
    32d8:	8b 83       	std	Y+3, r24	; 0x03
    32da:	1c 82       	std	Y+4, r1	; 0x04
    32dc:	2c 98       	cbi	0x05, 4	; 5
    32de:	fe 01       	movw	r30, r28
    32e0:	35 96       	adiw	r30, 0x05	; 5
    32e2:	81 e0       	ldi	r24, 0x01	; 1
    32e4:	90 e0       	ldi	r25, 0x00	; 0
    32e6:	3d e8       	ldi	r19, 0x8D	; 141
    32e8:	81 30       	cpi	r24, 0x01	; 1
    32ea:	91 05       	cpc	r25, r1
    32ec:	51 f4       	brne	.+20     	; 0x3302 <Start_Receiving+0x3c>
    32ee:	3e bd       	out	0x2e, r19	; 46
    32f0:	0d b4       	in	r0, 0x2d	; 45
    32f2:	07 fe       	sbrs	r0, 7
    32f4:	fd cf       	rjmp	.-6      	; 0x32f0 <Start_Receiving+0x2a>
    32f6:	2e b5       	in	r18, 0x2e	; 46
    32f8:	01 96       	adiw	r24, 0x01	; 1
    32fa:	31 97       	sbiw	r30, 0x01	; 1
    32fc:	81 30       	cpi	r24, 0x01	; 1
    32fe:	91 05       	cpc	r25, r1
    3300:	b1 f3       	breq	.-20     	; 0x32ee <Start_Receiving+0x28>
    3302:	20 81       	ld	r18, Z
    3304:	2e bd       	out	0x2e, r18	; 46
    3306:	0d b4       	in	r0, 0x2d	; 45
    3308:	07 fe       	sbrs	r0, 7
    330a:	fd cf       	rjmp	.-6      	; 0x3306 <Start_Receiving+0x40>
    330c:	2e b5       	in	r18, 0x2e	; 46
    330e:	85 30       	cpi	r24, 0x05	; 5
    3310:	91 05       	cpc	r25, r1
    3312:	91 f7       	brne	.-28     	; 0x32f8 <Start_Receiving+0x32>
    3314:	2c 9a       	sbi	0x05, 4	; 5
    3316:	0f 90       	pop	r0
    3318:	0f 90       	pop	r0
    331a:	0f 90       	pop	r0
    331c:	0f 90       	pop	r0
    331e:	df 91       	pop	r29
    3320:	cf 91       	pop	r28
    3322:	08 95       	ret

00003324 <Set_SystemControlRegister>:
    3324:	2c 98       	cbi	0x05, 4	; 5
    3326:	fc 01       	movw	r30, r24
    3328:	34 96       	adiw	r30, 0x04	; 4
    332a:	21 e0       	ldi	r18, 0x01	; 1
    332c:	30 e0       	ldi	r19, 0x00	; 0
    332e:	9d e8       	ldi	r25, 0x8D	; 141
    3330:	21 30       	cpi	r18, 0x01	; 1
    3332:	31 05       	cpc	r19, r1
    3334:	59 f4       	brne	.+22     	; 0x334c <Set_SystemControlRegister+0x28>
    3336:	9e bd       	out	0x2e, r25	; 46
    3338:	0d b4       	in	r0, 0x2d	; 45
    333a:	07 fe       	sbrs	r0, 7
    333c:	fd cf       	rjmp	.-6      	; 0x3338 <Set_SystemControlRegister+0x14>
    333e:	8e b5       	in	r24, 0x2e	; 46
    3340:	2f 5f       	subi	r18, 0xFF	; 255
    3342:	3f 4f       	sbci	r19, 0xFF	; 255
    3344:	31 97       	sbiw	r30, 0x01	; 1
    3346:	21 30       	cpi	r18, 0x01	; 1
    3348:	31 05       	cpc	r19, r1
    334a:	a9 f3       	breq	.-22     	; 0x3336 <Set_SystemControlRegister+0x12>
    334c:	80 81       	ld	r24, Z
    334e:	8e bd       	out	0x2e, r24	; 46
    3350:	0d b4       	in	r0, 0x2d	; 45
    3352:	07 fe       	sbrs	r0, 7
    3354:	fd cf       	rjmp	.-6      	; 0x3350 <Set_SystemControlRegister+0x2c>
    3356:	8e b5       	in	r24, 0x2e	; 46
    3358:	25 30       	cpi	r18, 0x05	; 5
    335a:	31 05       	cpc	r19, r1
    335c:	89 f7       	brne	.-30     	; 0x3340 <Set_SystemControlRegister+0x1c>
    335e:	2c 9a       	sbi	0x05, 4	; 5
    3360:	08 95       	ret

00003362 <Set_SystemEventMaskRegister>:
    3362:	2c 98       	cbi	0x05, 4	; 5
    3364:	fc 01       	movw	r30, r24
    3366:	34 96       	adiw	r30, 0x04	; 4
    3368:	21 e0       	ldi	r18, 0x01	; 1
    336a:	30 e0       	ldi	r19, 0x00	; 0
    336c:	9e e8       	ldi	r25, 0x8E	; 142
    336e:	21 30       	cpi	r18, 0x01	; 1
    3370:	31 05       	cpc	r19, r1
    3372:	59 f4       	brne	.+22     	; 0x338a <Set_SystemEventMaskRegister+0x28>
    3374:	9e bd       	out	0x2e, r25	; 46
    3376:	0d b4       	in	r0, 0x2d	; 45
    3378:	07 fe       	sbrs	r0, 7
    337a:	fd cf       	rjmp	.-6      	; 0x3376 <Set_SystemEventMaskRegister+0x14>
    337c:	8e b5       	in	r24, 0x2e	; 46
    337e:	2f 5f       	subi	r18, 0xFF	; 255
    3380:	3f 4f       	sbci	r19, 0xFF	; 255
    3382:	31 97       	sbiw	r30, 0x01	; 1
    3384:	21 30       	cpi	r18, 0x01	; 1
    3386:	31 05       	cpc	r19, r1
    3388:	a9 f3       	breq	.-22     	; 0x3374 <Set_SystemEventMaskRegister+0x12>
    338a:	80 81       	ld	r24, Z
    338c:	8e bd       	out	0x2e, r24	; 46
    338e:	0d b4       	in	r0, 0x2d	; 45
    3390:	07 fe       	sbrs	r0, 7
    3392:	fd cf       	rjmp	.-6      	; 0x338e <Set_SystemEventMaskRegister+0x2c>
    3394:	8e b5       	in	r24, 0x2e	; 46
    3396:	25 30       	cpi	r18, 0x05	; 5
    3398:	31 05       	cpc	r19, r1
    339a:	89 f7       	brne	.-30     	; 0x337e <Set_SystemEventMaskRegister+0x1c>
    339c:	2c 9a       	sbi	0x05, 4	; 5
    339e:	08 95       	ret

000033a0 <Set_SystemEventStatusRegister>:
    33a0:	2c 98       	cbi	0x05, 4	; 5
    33a2:	fc 01       	movw	r30, r24
    33a4:	34 96       	adiw	r30, 0x04	; 4
    33a6:	21 e0       	ldi	r18, 0x01	; 1
    33a8:	30 e0       	ldi	r19, 0x00	; 0
    33aa:	9f e8       	ldi	r25, 0x8F	; 143
    33ac:	21 30       	cpi	r18, 0x01	; 1
    33ae:	31 05       	cpc	r19, r1
    33b0:	59 f4       	brne	.+22     	; 0x33c8 <Set_SystemEventStatusRegister+0x28>
    33b2:	9e bd       	out	0x2e, r25	; 46
    33b4:	0d b4       	in	r0, 0x2d	; 45
    33b6:	07 fe       	sbrs	r0, 7
    33b8:	fd cf       	rjmp	.-6      	; 0x33b4 <Set_SystemEventStatusRegister+0x14>
    33ba:	8e b5       	in	r24, 0x2e	; 46
    33bc:	2f 5f       	subi	r18, 0xFF	; 255
    33be:	3f 4f       	sbci	r19, 0xFF	; 255
    33c0:	31 97       	sbiw	r30, 0x01	; 1
    33c2:	21 30       	cpi	r18, 0x01	; 1
    33c4:	31 05       	cpc	r19, r1
    33c6:	a9 f3       	breq	.-22     	; 0x33b2 <Set_SystemEventStatusRegister+0x12>
    33c8:	80 81       	ld	r24, Z
    33ca:	8e bd       	out	0x2e, r24	; 46
    33cc:	0d b4       	in	r0, 0x2d	; 45
    33ce:	07 fe       	sbrs	r0, 7
    33d0:	fd cf       	rjmp	.-6      	; 0x33cc <Set_SystemEventStatusRegister+0x2c>
    33d2:	8e b5       	in	r24, 0x2e	; 46
    33d4:	25 30       	cpi	r18, 0x05	; 5
    33d6:	31 05       	cpc	r19, r1
    33d8:	89 f7       	brne	.-30     	; 0x33bc <Set_SystemEventStatusRegister+0x1c>
    33da:	2c 9a       	sbi	0x05, 4	; 5
    33dc:	2c 98       	cbi	0x05, 4	; 5
    33de:	fb 01       	movw	r30, r22
    33e0:	32 96       	adiw	r30, 0x02	; 2
    33e2:	81 e0       	ldi	r24, 0x01	; 1
    33e4:	90 e0       	ldi	r25, 0x00	; 0
    33e6:	5f ec       	ldi	r21, 0xCF	; 207
    33e8:	44 e0       	ldi	r20, 0x04	; 4
    33ea:	9c 01       	movw	r18, r24
    33ec:	21 50       	subi	r18, 0x01	; 1
    33ee:	31 09       	sbc	r19, r1
    33f0:	71 f0       	breq	.+28     	; 0x340e <Set_SystemEventStatusRegister+0x6e>
    33f2:	21 30       	cpi	r18, 0x01	; 1
    33f4:	31 05       	cpc	r19, r1
    33f6:	81 f4       	brne	.+32     	; 0x3418 <Set_SystemEventStatusRegister+0x78>
    33f8:	4e bd       	out	0x2e, r20	; 46
    33fa:	0d b4       	in	r0, 0x2d	; 45
    33fc:	07 fe       	sbrs	r0, 7
    33fe:	fd cf       	rjmp	.-6      	; 0x33fa <Set_SystemEventStatusRegister+0x5a>
    3400:	2e b5       	in	r18, 0x2e	; 46
    3402:	01 96       	adiw	r24, 0x01	; 1
    3404:	31 97       	sbiw	r30, 0x01	; 1
    3406:	9c 01       	movw	r18, r24
    3408:	21 50       	subi	r18, 0x01	; 1
    340a:	31 09       	sbc	r19, r1
    340c:	91 f7       	brne	.-28     	; 0x33f2 <Set_SystemEventStatusRegister+0x52>
    340e:	5e bd       	out	0x2e, r21	; 46
    3410:	0d b4       	in	r0, 0x2d	; 45
    3412:	07 fe       	sbrs	r0, 7
    3414:	fd cf       	rjmp	.-6      	; 0x3410 <Set_SystemEventStatusRegister+0x70>
    3416:	f4 cf       	rjmp	.-24     	; 0x3400 <Set_SystemEventStatusRegister+0x60>
    3418:	20 81       	ld	r18, Z
    341a:	2e bd       	out	0x2e, r18	; 46
    341c:	0d b4       	in	r0, 0x2d	; 45
    341e:	07 fe       	sbrs	r0, 7
    3420:	fd cf       	rjmp	.-6      	; 0x341c <Set_SystemEventStatusRegister+0x7c>
    3422:	2e b5       	in	r18, 0x2e	; 46
    3424:	83 30       	cpi	r24, 0x03	; 3
    3426:	91 05       	cpc	r25, r1
    3428:	61 f7       	brne	.-40     	; 0x3402 <Set_SystemEventStatusRegister+0x62>
    342a:	2c 9a       	sbi	0x05, 4	; 5
    342c:	08 95       	ret

0000342e <Set_RXFrameInformationRegister>:
    342e:	2c 98       	cbi	0x05, 4	; 5
    3430:	fc 01       	movw	r30, r24
    3432:	34 96       	adiw	r30, 0x04	; 4
    3434:	21 e0       	ldi	r18, 0x01	; 1
    3436:	30 e0       	ldi	r19, 0x00	; 0
    3438:	90 e9       	ldi	r25, 0x90	; 144
    343a:	21 30       	cpi	r18, 0x01	; 1
    343c:	31 05       	cpc	r19, r1
    343e:	59 f4       	brne	.+22     	; 0x3456 <Set_RXFrameInformationRegister+0x28>
    3440:	9e bd       	out	0x2e, r25	; 46
    3442:	0d b4       	in	r0, 0x2d	; 45
    3444:	07 fe       	sbrs	r0, 7
    3446:	fd cf       	rjmp	.-6      	; 0x3442 <Set_RXFrameInformationRegister+0x14>
    3448:	8e b5       	in	r24, 0x2e	; 46
    344a:	2f 5f       	subi	r18, 0xFF	; 255
    344c:	3f 4f       	sbci	r19, 0xFF	; 255
    344e:	31 97       	sbiw	r30, 0x01	; 1
    3450:	21 30       	cpi	r18, 0x01	; 1
    3452:	31 05       	cpc	r19, r1
    3454:	a9 f3       	breq	.-22     	; 0x3440 <Set_RXFrameInformationRegister+0x12>
    3456:	80 81       	ld	r24, Z
    3458:	8e bd       	out	0x2e, r24	; 46
    345a:	0d b4       	in	r0, 0x2d	; 45
    345c:	07 fe       	sbrs	r0, 7
    345e:	fd cf       	rjmp	.-6      	; 0x345a <Set_RXFrameInformationRegister+0x2c>
    3460:	8e b5       	in	r24, 0x2e	; 46
    3462:	25 30       	cpi	r18, 0x05	; 5
    3464:	31 05       	cpc	r19, r1
    3466:	89 f7       	brne	.-30     	; 0x344a <Set_RXFrameInformationRegister+0x1c>
    3468:	2c 9a       	sbi	0x05, 4	; 5
    346a:	08 95       	ret

0000346c <Set_RXFrameQualityInformation>:
    346c:	2c 98       	cbi	0x05, 4	; 5
    346e:	fc 01       	movw	r30, r24
    3470:	34 96       	adiw	r30, 0x04	; 4
    3472:	21 e0       	ldi	r18, 0x01	; 1
    3474:	30 e0       	ldi	r19, 0x00	; 0
    3476:	92 e9       	ldi	r25, 0x92	; 146
    3478:	21 30       	cpi	r18, 0x01	; 1
    347a:	31 05       	cpc	r19, r1
    347c:	59 f4       	brne	.+22     	; 0x3494 <Set_RXFrameQualityInformation+0x28>
    347e:	9e bd       	out	0x2e, r25	; 46
    3480:	0d b4       	in	r0, 0x2d	; 45
    3482:	07 fe       	sbrs	r0, 7
    3484:	fd cf       	rjmp	.-6      	; 0x3480 <Set_RXFrameQualityInformation+0x14>
    3486:	8e b5       	in	r24, 0x2e	; 46
    3488:	2f 5f       	subi	r18, 0xFF	; 255
    348a:	3f 4f       	sbci	r19, 0xFF	; 255
    348c:	31 97       	sbiw	r30, 0x01	; 1
    348e:	21 30       	cpi	r18, 0x01	; 1
    3490:	31 05       	cpc	r19, r1
    3492:	a9 f3       	breq	.-22     	; 0x347e <Set_RXFrameQualityInformation+0x12>
    3494:	80 81       	ld	r24, Z
    3496:	8e bd       	out	0x2e, r24	; 46
    3498:	0d b4       	in	r0, 0x2d	; 45
    349a:	07 fe       	sbrs	r0, 7
    349c:	fd cf       	rjmp	.-6      	; 0x3498 <Set_RXFrameQualityInformation+0x2c>
    349e:	8e b5       	in	r24, 0x2e	; 46
    34a0:	25 30       	cpi	r18, 0x05	; 5
    34a2:	31 05       	cpc	r19, r1
    34a4:	89 f7       	brne	.-30     	; 0x3488 <Set_RXFrameQualityInformation+0x1c>
    34a6:	2c 9a       	sbi	0x05, 4	; 5
    34a8:	2c 98       	cbi	0x05, 4	; 5
    34aa:	fb 01       	movw	r30, r22
    34ac:	35 96       	adiw	r30, 0x05	; 5
    34ae:	81 e0       	ldi	r24, 0x01	; 1
    34b0:	90 e0       	ldi	r25, 0x00	; 0
    34b2:	52 ed       	ldi	r21, 0xD2	; 210
    34b4:	44 e0       	ldi	r20, 0x04	; 4
    34b6:	9c 01       	movw	r18, r24
    34b8:	21 50       	subi	r18, 0x01	; 1
    34ba:	31 09       	sbc	r19, r1
    34bc:	71 f0       	breq	.+28     	; 0x34da <Set_RXFrameQualityInformation+0x6e>
    34be:	21 30       	cpi	r18, 0x01	; 1
    34c0:	31 05       	cpc	r19, r1
    34c2:	81 f4       	brne	.+32     	; 0x34e4 <Set_RXFrameQualityInformation+0x78>
    34c4:	4e bd       	out	0x2e, r20	; 46
    34c6:	0d b4       	in	r0, 0x2d	; 45
    34c8:	07 fe       	sbrs	r0, 7
    34ca:	fd cf       	rjmp	.-6      	; 0x34c6 <Set_RXFrameQualityInformation+0x5a>
    34cc:	2e b5       	in	r18, 0x2e	; 46
    34ce:	01 96       	adiw	r24, 0x01	; 1
    34d0:	31 97       	sbiw	r30, 0x01	; 1
    34d2:	9c 01       	movw	r18, r24
    34d4:	21 50       	subi	r18, 0x01	; 1
    34d6:	31 09       	sbc	r19, r1
    34d8:	91 f7       	brne	.-28     	; 0x34be <Set_RXFrameQualityInformation+0x52>
    34da:	5e bd       	out	0x2e, r21	; 46
    34dc:	0d b4       	in	r0, 0x2d	; 45
    34de:	07 fe       	sbrs	r0, 7
    34e0:	fd cf       	rjmp	.-6      	; 0x34dc <Set_RXFrameQualityInformation+0x70>
    34e2:	f4 cf       	rjmp	.-24     	; 0x34cc <Set_RXFrameQualityInformation+0x60>
    34e4:	20 81       	ld	r18, Z
    34e6:	2e bd       	out	0x2e, r18	; 46
    34e8:	0d b4       	in	r0, 0x2d	; 45
    34ea:	07 fe       	sbrs	r0, 7
    34ec:	fd cf       	rjmp	.-6      	; 0x34e8 <Set_RXFrameQualityInformation+0x7c>
    34ee:	2e b5       	in	r18, 0x2e	; 46
    34f0:	86 30       	cpi	r24, 0x06	; 6
    34f2:	91 05       	cpc	r25, r1
    34f4:	61 f7       	brne	.-40     	; 0x34ce <Set_RXFrameQualityInformation+0x62>
    34f6:	2c 9a       	sbi	0x05, 4	; 5
    34f8:	08 95       	ret

000034fa <Set_ReceiverTimeTrackingInterval>:
    34fa:	2c 98       	cbi	0x05, 4	; 5
    34fc:	fc 01       	movw	r30, r24
    34fe:	34 96       	adiw	r30, 0x04	; 4
    3500:	21 e0       	ldi	r18, 0x01	; 1
    3502:	30 e0       	ldi	r19, 0x00	; 0
    3504:	93 e9       	ldi	r25, 0x93	; 147
    3506:	21 30       	cpi	r18, 0x01	; 1
    3508:	31 05       	cpc	r19, r1
    350a:	59 f4       	brne	.+22     	; 0x3522 <Set_ReceiverTimeTrackingInterval+0x28>
    350c:	9e bd       	out	0x2e, r25	; 46
    350e:	0d b4       	in	r0, 0x2d	; 45
    3510:	07 fe       	sbrs	r0, 7
    3512:	fd cf       	rjmp	.-6      	; 0x350e <Set_ReceiverTimeTrackingInterval+0x14>
    3514:	8e b5       	in	r24, 0x2e	; 46
    3516:	2f 5f       	subi	r18, 0xFF	; 255
    3518:	3f 4f       	sbci	r19, 0xFF	; 255
    351a:	31 97       	sbiw	r30, 0x01	; 1
    351c:	21 30       	cpi	r18, 0x01	; 1
    351e:	31 05       	cpc	r19, r1
    3520:	a9 f3       	breq	.-22     	; 0x350c <Set_ReceiverTimeTrackingInterval+0x12>
    3522:	80 81       	ld	r24, Z
    3524:	8e bd       	out	0x2e, r24	; 46
    3526:	0d b4       	in	r0, 0x2d	; 45
    3528:	07 fe       	sbrs	r0, 7
    352a:	fd cf       	rjmp	.-6      	; 0x3526 <Set_ReceiverTimeTrackingInterval+0x2c>
    352c:	8e b5       	in	r24, 0x2e	; 46
    352e:	25 30       	cpi	r18, 0x05	; 5
    3530:	31 05       	cpc	r19, r1
    3532:	89 f7       	brne	.-30     	; 0x3516 <Set_ReceiverTimeTrackingInterval+0x1c>
    3534:	2c 9a       	sbi	0x05, 4	; 5
    3536:	08 95       	ret

00003538 <Set_ReceiverTimeTrackingOffset>:
    3538:	2c 98       	cbi	0x05, 4	; 5
    353a:	fc 01       	movw	r30, r24
    353c:	34 96       	adiw	r30, 0x04	; 4
    353e:	21 e0       	ldi	r18, 0x01	; 1
    3540:	30 e0       	ldi	r19, 0x00	; 0
    3542:	94 e9       	ldi	r25, 0x94	; 148
    3544:	21 30       	cpi	r18, 0x01	; 1
    3546:	31 05       	cpc	r19, r1
    3548:	59 f4       	brne	.+22     	; 0x3560 <Set_ReceiverTimeTrackingOffset+0x28>
    354a:	9e bd       	out	0x2e, r25	; 46
    354c:	0d b4       	in	r0, 0x2d	; 45
    354e:	07 fe       	sbrs	r0, 7
    3550:	fd cf       	rjmp	.-6      	; 0x354c <Set_ReceiverTimeTrackingOffset+0x14>
    3552:	8e b5       	in	r24, 0x2e	; 46
    3554:	2f 5f       	subi	r18, 0xFF	; 255
    3556:	3f 4f       	sbci	r19, 0xFF	; 255
    3558:	31 97       	sbiw	r30, 0x01	; 1
    355a:	21 30       	cpi	r18, 0x01	; 1
    355c:	31 05       	cpc	r19, r1
    355e:	a9 f3       	breq	.-22     	; 0x354a <Set_ReceiverTimeTrackingOffset+0x12>
    3560:	80 81       	ld	r24, Z
    3562:	8e bd       	out	0x2e, r24	; 46
    3564:	0d b4       	in	r0, 0x2d	; 45
    3566:	07 fe       	sbrs	r0, 7
    3568:	fd cf       	rjmp	.-6      	; 0x3564 <Set_ReceiverTimeTrackingOffset+0x2c>
    356a:	8e b5       	in	r24, 0x2e	; 46
    356c:	25 30       	cpi	r18, 0x05	; 5
    356e:	31 05       	cpc	r19, r1
    3570:	89 f7       	brne	.-30     	; 0x3554 <Set_ReceiverTimeTrackingOffset+0x1c>
    3572:	2c 9a       	sbi	0x05, 4	; 5
    3574:	2c 98       	cbi	0x05, 4	; 5
    3576:	fb 01       	movw	r30, r22
    3578:	32 96       	adiw	r30, 0x02	; 2
    357a:	81 e0       	ldi	r24, 0x01	; 1
    357c:	90 e0       	ldi	r25, 0x00	; 0
    357e:	54 ed       	ldi	r21, 0xD4	; 212
    3580:	44 e0       	ldi	r20, 0x04	; 4
    3582:	9c 01       	movw	r18, r24
    3584:	21 50       	subi	r18, 0x01	; 1
    3586:	31 09       	sbc	r19, r1
    3588:	71 f0       	breq	.+28     	; 0x35a6 <Set_ReceiverTimeTrackingOffset+0x6e>
    358a:	21 30       	cpi	r18, 0x01	; 1
    358c:	31 05       	cpc	r19, r1
    358e:	81 f4       	brne	.+32     	; 0x35b0 <Set_ReceiverTimeTrackingOffset+0x78>
    3590:	4e bd       	out	0x2e, r20	; 46
    3592:	0d b4       	in	r0, 0x2d	; 45
    3594:	07 fe       	sbrs	r0, 7
    3596:	fd cf       	rjmp	.-6      	; 0x3592 <Set_ReceiverTimeTrackingOffset+0x5a>
    3598:	2e b5       	in	r18, 0x2e	; 46
    359a:	01 96       	adiw	r24, 0x01	; 1
    359c:	31 97       	sbiw	r30, 0x01	; 1
    359e:	9c 01       	movw	r18, r24
    35a0:	21 50       	subi	r18, 0x01	; 1
    35a2:	31 09       	sbc	r19, r1
    35a4:	91 f7       	brne	.-28     	; 0x358a <Set_ReceiverTimeTrackingOffset+0x52>
    35a6:	5e bd       	out	0x2e, r21	; 46
    35a8:	0d b4       	in	r0, 0x2d	; 45
    35aa:	07 fe       	sbrs	r0, 7
    35ac:	fd cf       	rjmp	.-6      	; 0x35a8 <Set_ReceiverTimeTrackingOffset+0x70>
    35ae:	f4 cf       	rjmp	.-24     	; 0x3598 <Set_ReceiverTimeTrackingOffset+0x60>
    35b0:	20 81       	ld	r18, Z
    35b2:	2e bd       	out	0x2e, r18	; 46
    35b4:	0d b4       	in	r0, 0x2d	; 45
    35b6:	07 fe       	sbrs	r0, 7
    35b8:	fd cf       	rjmp	.-6      	; 0x35b4 <Set_ReceiverTimeTrackingOffset+0x7c>
    35ba:	2e b5       	in	r18, 0x2e	; 46
    35bc:	83 30       	cpi	r24, 0x03	; 3
    35be:	91 05       	cpc	r25, r1
    35c0:	61 f7       	brne	.-40     	; 0x359a <Set_ReceiverTimeTrackingOffset+0x62>
    35c2:	2c 9a       	sbi	0x05, 4	; 5
    35c4:	08 95       	ret

000035c6 <Set_ReceiveTimeStamp>:
    35c6:	cf 93       	push	r28
    35c8:	2c 98       	cbi	0x05, 4	; 5
    35ca:	dc 01       	movw	r26, r24
    35cc:	14 96       	adiw	r26, 0x04	; 4
    35ce:	e1 e0       	ldi	r30, 0x01	; 1
    35d0:	f0 e0       	ldi	r31, 0x00	; 0
    35d2:	95 e9       	ldi	r25, 0x95	; 149
    35d4:	e1 30       	cpi	r30, 0x01	; 1
    35d6:	f1 05       	cpc	r31, r1
    35d8:	51 f4       	brne	.+20     	; 0x35ee <Set_ReceiveTimeStamp+0x28>
    35da:	9e bd       	out	0x2e, r25	; 46
    35dc:	0d b4       	in	r0, 0x2d	; 45
    35de:	07 fe       	sbrs	r0, 7
    35e0:	fd cf       	rjmp	.-6      	; 0x35dc <Set_ReceiveTimeStamp+0x16>
    35e2:	8e b5       	in	r24, 0x2e	; 46
    35e4:	31 96       	adiw	r30, 0x01	; 1
    35e6:	11 97       	sbiw	r26, 0x01	; 1
    35e8:	e1 30       	cpi	r30, 0x01	; 1
    35ea:	f1 05       	cpc	r31, r1
    35ec:	b1 f3       	breq	.-20     	; 0x35da <Set_ReceiveTimeStamp+0x14>
    35ee:	8c 91       	ld	r24, X
    35f0:	8e bd       	out	0x2e, r24	; 46
    35f2:	0d b4       	in	r0, 0x2d	; 45
    35f4:	07 fe       	sbrs	r0, 7
    35f6:	fd cf       	rjmp	.-6      	; 0x35f2 <Set_ReceiveTimeStamp+0x2c>
    35f8:	8e b5       	in	r24, 0x2e	; 46
    35fa:	e5 30       	cpi	r30, 0x05	; 5
    35fc:	f1 05       	cpc	r31, r1
    35fe:	91 f7       	brne	.-28     	; 0x35e4 <Set_ReceiveTimeStamp+0x1e>
    3600:	2c 9a       	sbi	0x05, 4	; 5
    3602:	2c 98       	cbi	0x05, 4	; 5
    3604:	db 01       	movw	r26, r22
    3606:	15 96       	adiw	r26, 0x05	; 5
    3608:	81 e0       	ldi	r24, 0x01	; 1
    360a:	90 e0       	ldi	r25, 0x00	; 0
    360c:	c5 ed       	ldi	r28, 0xD5	; 213
    360e:	74 e0       	ldi	r23, 0x04	; 4
    3610:	fc 01       	movw	r30, r24
    3612:	31 97       	sbiw	r30, 0x01	; 1
    3614:	61 f0       	breq	.+24     	; 0x362e <Set_ReceiveTimeStamp+0x68>
    3616:	31 97       	sbiw	r30, 0x01	; 1
    3618:	79 f4       	brne	.+30     	; 0x3638 <Set_ReceiveTimeStamp+0x72>
    361a:	7e bd       	out	0x2e, r23	; 46
    361c:	0d b4       	in	r0, 0x2d	; 45
    361e:	07 fe       	sbrs	r0, 7
    3620:	fd cf       	rjmp	.-6      	; 0x361c <Set_ReceiveTimeStamp+0x56>
    3622:	6e b5       	in	r22, 0x2e	; 46
    3624:	01 96       	adiw	r24, 0x01	; 1
    3626:	11 97       	sbiw	r26, 0x01	; 1
    3628:	fc 01       	movw	r30, r24
    362a:	31 97       	sbiw	r30, 0x01	; 1
    362c:	a1 f7       	brne	.-24     	; 0x3616 <Set_ReceiveTimeStamp+0x50>
    362e:	ce bd       	out	0x2e, r28	; 46
    3630:	0d b4       	in	r0, 0x2d	; 45
    3632:	07 fe       	sbrs	r0, 7
    3634:	fd cf       	rjmp	.-6      	; 0x3630 <Set_ReceiveTimeStamp+0x6a>
    3636:	f5 cf       	rjmp	.-22     	; 0x3622 <Set_ReceiveTimeStamp+0x5c>
    3638:	6c 91       	ld	r22, X
    363a:	6e bd       	out	0x2e, r22	; 46
    363c:	0d b4       	in	r0, 0x2d	; 45
    363e:	07 fe       	sbrs	r0, 7
    3640:	fd cf       	rjmp	.-6      	; 0x363c <Set_ReceiveTimeStamp+0x76>
    3642:	6e b5       	in	r22, 0x2e	; 46
    3644:	86 30       	cpi	r24, 0x06	; 6
    3646:	91 05       	cpc	r25, r1
    3648:	69 f7       	brne	.-38     	; 0x3624 <Set_ReceiveTimeStamp+0x5e>
    364a:	2c 9a       	sbi	0x05, 4	; 5
    364c:	2c 98       	cbi	0x05, 4	; 5
    364e:	fa 01       	movw	r30, r20
    3650:	35 96       	adiw	r30, 0x05	; 5
    3652:	81 e0       	ldi	r24, 0x01	; 1
    3654:	90 e0       	ldi	r25, 0x00	; 0
    3656:	a5 ed       	ldi	r26, 0xD5	; 213
    3658:	58 e0       	ldi	r21, 0x08	; 8
    365a:	bc 01       	movw	r22, r24
    365c:	61 50       	subi	r22, 0x01	; 1
    365e:	71 09       	sbc	r23, r1
    3660:	71 f0       	breq	.+28     	; 0x367e <Set_ReceiveTimeStamp+0xb8>
    3662:	61 30       	cpi	r22, 0x01	; 1
    3664:	71 05       	cpc	r23, r1
    3666:	81 f4       	brne	.+32     	; 0x3688 <Set_ReceiveTimeStamp+0xc2>
    3668:	5e bd       	out	0x2e, r21	; 46
    366a:	0d b4       	in	r0, 0x2d	; 45
    366c:	07 fe       	sbrs	r0, 7
    366e:	fd cf       	rjmp	.-6      	; 0x366a <Set_ReceiveTimeStamp+0xa4>
    3670:	4e b5       	in	r20, 0x2e	; 46
    3672:	01 96       	adiw	r24, 0x01	; 1
    3674:	31 97       	sbiw	r30, 0x01	; 1
    3676:	bc 01       	movw	r22, r24
    3678:	61 50       	subi	r22, 0x01	; 1
    367a:	71 09       	sbc	r23, r1
    367c:	91 f7       	brne	.-28     	; 0x3662 <Set_ReceiveTimeStamp+0x9c>
    367e:	ae bd       	out	0x2e, r26	; 46
    3680:	0d b4       	in	r0, 0x2d	; 45
    3682:	07 fe       	sbrs	r0, 7
    3684:	fd cf       	rjmp	.-6      	; 0x3680 <Set_ReceiveTimeStamp+0xba>
    3686:	f4 cf       	rjmp	.-24     	; 0x3670 <Set_ReceiveTimeStamp+0xaa>
    3688:	40 81       	ld	r20, Z
    368a:	4e bd       	out	0x2e, r20	; 46
    368c:	0d b4       	in	r0, 0x2d	; 45
    368e:	07 fe       	sbrs	r0, 7
    3690:	fd cf       	rjmp	.-6      	; 0x368c <Set_ReceiveTimeStamp+0xc6>
    3692:	4e b5       	in	r20, 0x2e	; 46
    3694:	86 30       	cpi	r24, 0x06	; 6
    3696:	91 05       	cpc	r25, r1
    3698:	61 f7       	brne	.-40     	; 0x3672 <Set_ReceiveTimeStamp+0xac>
    369a:	2c 9a       	sbi	0x05, 4	; 5
    369c:	2c 98       	cbi	0x05, 4	; 5
    369e:	f9 01       	movw	r30, r18
    36a0:	33 96       	adiw	r30, 0x03	; 3
    36a2:	81 e0       	ldi	r24, 0x01	; 1
    36a4:	90 e0       	ldi	r25, 0x00	; 0
    36a6:	65 ed       	ldi	r22, 0xD5	; 213
    36a8:	3c e0       	ldi	r19, 0x0C	; 12
    36aa:	ac 01       	movw	r20, r24
    36ac:	41 50       	subi	r20, 0x01	; 1
    36ae:	51 09       	sbc	r21, r1
    36b0:	71 f0       	breq	.+28     	; 0x36ce <Set_ReceiveTimeStamp+0x108>
    36b2:	41 30       	cpi	r20, 0x01	; 1
    36b4:	51 05       	cpc	r21, r1
    36b6:	81 f4       	brne	.+32     	; 0x36d8 <Set_ReceiveTimeStamp+0x112>
    36b8:	3e bd       	out	0x2e, r19	; 46
    36ba:	0d b4       	in	r0, 0x2d	; 45
    36bc:	07 fe       	sbrs	r0, 7
    36be:	fd cf       	rjmp	.-6      	; 0x36ba <Set_ReceiveTimeStamp+0xf4>
    36c0:	2e b5       	in	r18, 0x2e	; 46
    36c2:	01 96       	adiw	r24, 0x01	; 1
    36c4:	31 97       	sbiw	r30, 0x01	; 1
    36c6:	ac 01       	movw	r20, r24
    36c8:	41 50       	subi	r20, 0x01	; 1
    36ca:	51 09       	sbc	r21, r1
    36cc:	91 f7       	brne	.-28     	; 0x36b2 <Set_ReceiveTimeStamp+0xec>
    36ce:	6e bd       	out	0x2e, r22	; 46
    36d0:	0d b4       	in	r0, 0x2d	; 45
    36d2:	07 fe       	sbrs	r0, 7
    36d4:	fd cf       	rjmp	.-6      	; 0x36d0 <Set_ReceiveTimeStamp+0x10a>
    36d6:	f4 cf       	rjmp	.-24     	; 0x36c0 <Set_ReceiveTimeStamp+0xfa>
    36d8:	20 81       	ld	r18, Z
    36da:	2e bd       	out	0x2e, r18	; 46
    36dc:	0d b4       	in	r0, 0x2d	; 45
    36de:	07 fe       	sbrs	r0, 7
    36e0:	fd cf       	rjmp	.-6      	; 0x36dc <Set_ReceiveTimeStamp+0x116>
    36e2:	2e b5       	in	r18, 0x2e	; 46
    36e4:	84 30       	cpi	r24, 0x04	; 4
    36e6:	91 05       	cpc	r25, r1
    36e8:	61 f7       	brne	.-40     	; 0x36c2 <Set_ReceiveTimeStamp+0xfc>
    36ea:	2c 9a       	sbi	0x05, 4	; 5
    36ec:	cf 91       	pop	r28
    36ee:	08 95       	ret

000036f0 <Set_TransmitTimeStamp>:
    36f0:	2c 98       	cbi	0x05, 4	; 5
    36f2:	fc 01       	movw	r30, r24
    36f4:	34 96       	adiw	r30, 0x04	; 4
    36f6:	21 e0       	ldi	r18, 0x01	; 1
    36f8:	30 e0       	ldi	r19, 0x00	; 0
    36fa:	97 e9       	ldi	r25, 0x97	; 151
    36fc:	21 30       	cpi	r18, 0x01	; 1
    36fe:	31 05       	cpc	r19, r1
    3700:	59 f4       	brne	.+22     	; 0x3718 <Set_TransmitTimeStamp+0x28>
    3702:	9e bd       	out	0x2e, r25	; 46
    3704:	0d b4       	in	r0, 0x2d	; 45
    3706:	07 fe       	sbrs	r0, 7
    3708:	fd cf       	rjmp	.-6      	; 0x3704 <Set_TransmitTimeStamp+0x14>
    370a:	8e b5       	in	r24, 0x2e	; 46
    370c:	2f 5f       	subi	r18, 0xFF	; 255
    370e:	3f 4f       	sbci	r19, 0xFF	; 255
    3710:	31 97       	sbiw	r30, 0x01	; 1
    3712:	21 30       	cpi	r18, 0x01	; 1
    3714:	31 05       	cpc	r19, r1
    3716:	a9 f3       	breq	.-22     	; 0x3702 <Set_TransmitTimeStamp+0x12>
    3718:	80 81       	ld	r24, Z
    371a:	8e bd       	out	0x2e, r24	; 46
    371c:	0d b4       	in	r0, 0x2d	; 45
    371e:	07 fe       	sbrs	r0, 7
    3720:	fd cf       	rjmp	.-6      	; 0x371c <Set_TransmitTimeStamp+0x2c>
    3722:	8e b5       	in	r24, 0x2e	; 46
    3724:	25 30       	cpi	r18, 0x05	; 5
    3726:	31 05       	cpc	r19, r1
    3728:	89 f7       	brne	.-30     	; 0x370c <Set_TransmitTimeStamp+0x1c>
    372a:	2c 9a       	sbi	0x05, 4	; 5
    372c:	2c 98       	cbi	0x05, 4	; 5
    372e:	fb 01       	movw	r30, r22
    3730:	35 96       	adiw	r30, 0x05	; 5
    3732:	81 e0       	ldi	r24, 0x01	; 1
    3734:	90 e0       	ldi	r25, 0x00	; 0
    3736:	77 ed       	ldi	r23, 0xD7	; 215
    3738:	64 e0       	ldi	r22, 0x04	; 4
    373a:	9c 01       	movw	r18, r24
    373c:	21 50       	subi	r18, 0x01	; 1
    373e:	31 09       	sbc	r19, r1
    3740:	71 f0       	breq	.+28     	; 0x375e <Set_TransmitTimeStamp+0x6e>
    3742:	21 30       	cpi	r18, 0x01	; 1
    3744:	31 05       	cpc	r19, r1
    3746:	81 f4       	brne	.+32     	; 0x3768 <Set_TransmitTimeStamp+0x78>
    3748:	6e bd       	out	0x2e, r22	; 46
    374a:	0d b4       	in	r0, 0x2d	; 45
    374c:	07 fe       	sbrs	r0, 7
    374e:	fd cf       	rjmp	.-6      	; 0x374a <Set_TransmitTimeStamp+0x5a>
    3750:	2e b5       	in	r18, 0x2e	; 46
    3752:	01 96       	adiw	r24, 0x01	; 1
    3754:	31 97       	sbiw	r30, 0x01	; 1
    3756:	9c 01       	movw	r18, r24
    3758:	21 50       	subi	r18, 0x01	; 1
    375a:	31 09       	sbc	r19, r1
    375c:	91 f7       	brne	.-28     	; 0x3742 <Set_TransmitTimeStamp+0x52>
    375e:	7e bd       	out	0x2e, r23	; 46
    3760:	0d b4       	in	r0, 0x2d	; 45
    3762:	07 fe       	sbrs	r0, 7
    3764:	fd cf       	rjmp	.-6      	; 0x3760 <Set_TransmitTimeStamp+0x70>
    3766:	f4 cf       	rjmp	.-24     	; 0x3750 <Set_TransmitTimeStamp+0x60>
    3768:	20 81       	ld	r18, Z
    376a:	2e bd       	out	0x2e, r18	; 46
    376c:	0d b4       	in	r0, 0x2d	; 45
    376e:	07 fe       	sbrs	r0, 7
    3770:	fd cf       	rjmp	.-6      	; 0x376c <Set_TransmitTimeStamp+0x7c>
    3772:	2e b5       	in	r18, 0x2e	; 46
    3774:	86 30       	cpi	r24, 0x06	; 6
    3776:	91 05       	cpc	r25, r1
    3778:	61 f7       	brne	.-40     	; 0x3752 <Set_TransmitTimeStamp+0x62>
    377a:	2c 9a       	sbi	0x05, 4	; 5
    377c:	2c 98       	cbi	0x05, 4	; 5
    377e:	fa 01       	movw	r30, r20
    3780:	33 96       	adiw	r30, 0x03	; 3
    3782:	81 e0       	ldi	r24, 0x01	; 1
    3784:	90 e0       	ldi	r25, 0x00	; 0
    3786:	57 ed       	ldi	r21, 0xD7	; 215
    3788:	48 e0       	ldi	r20, 0x08	; 8
    378a:	9c 01       	movw	r18, r24
    378c:	21 50       	subi	r18, 0x01	; 1
    378e:	31 09       	sbc	r19, r1
    3790:	71 f0       	breq	.+28     	; 0x37ae <Set_TransmitTimeStamp+0xbe>
    3792:	21 30       	cpi	r18, 0x01	; 1
    3794:	31 05       	cpc	r19, r1
    3796:	81 f4       	brne	.+32     	; 0x37b8 <Set_TransmitTimeStamp+0xc8>
    3798:	4e bd       	out	0x2e, r20	; 46
    379a:	0d b4       	in	r0, 0x2d	; 45
    379c:	07 fe       	sbrs	r0, 7
    379e:	fd cf       	rjmp	.-6      	; 0x379a <Set_TransmitTimeStamp+0xaa>
    37a0:	2e b5       	in	r18, 0x2e	; 46
    37a2:	01 96       	adiw	r24, 0x01	; 1
    37a4:	31 97       	sbiw	r30, 0x01	; 1
    37a6:	9c 01       	movw	r18, r24
    37a8:	21 50       	subi	r18, 0x01	; 1
    37aa:	31 09       	sbc	r19, r1
    37ac:	91 f7       	brne	.-28     	; 0x3792 <Set_TransmitTimeStamp+0xa2>
    37ae:	5e bd       	out	0x2e, r21	; 46
    37b0:	0d b4       	in	r0, 0x2d	; 45
    37b2:	07 fe       	sbrs	r0, 7
    37b4:	fd cf       	rjmp	.-6      	; 0x37b0 <Set_TransmitTimeStamp+0xc0>
    37b6:	f4 cf       	rjmp	.-24     	; 0x37a0 <Set_TransmitTimeStamp+0xb0>
    37b8:	20 81       	ld	r18, Z
    37ba:	2e bd       	out	0x2e, r18	; 46
    37bc:	0d b4       	in	r0, 0x2d	; 45
    37be:	07 fe       	sbrs	r0, 7
    37c0:	fd cf       	rjmp	.-6      	; 0x37bc <Set_TransmitTimeStamp+0xcc>
    37c2:	2e b5       	in	r18, 0x2e	; 46
    37c4:	84 30       	cpi	r24, 0x04	; 4
    37c6:	91 05       	cpc	r25, r1
    37c8:	61 f7       	brne	.-40     	; 0x37a2 <Set_TransmitTimeStamp+0xb2>
    37ca:	2c 9a       	sbi	0x05, 4	; 5
    37cc:	08 95       	ret

000037ce <Set_TransmitterAntennaDelay>:
    37ce:	2c 98       	cbi	0x05, 4	; 5
    37d0:	fc 01       	movw	r30, r24
    37d2:	32 96       	adiw	r30, 0x02	; 2
    37d4:	21 e0       	ldi	r18, 0x01	; 1
    37d6:	30 e0       	ldi	r19, 0x00	; 0
    37d8:	98 e9       	ldi	r25, 0x98	; 152
    37da:	21 30       	cpi	r18, 0x01	; 1
    37dc:	31 05       	cpc	r19, r1
    37de:	59 f4       	brne	.+22     	; 0x37f6 <Set_TransmitterAntennaDelay+0x28>
    37e0:	9e bd       	out	0x2e, r25	; 46
    37e2:	0d b4       	in	r0, 0x2d	; 45
    37e4:	07 fe       	sbrs	r0, 7
    37e6:	fd cf       	rjmp	.-6      	; 0x37e2 <Set_TransmitterAntennaDelay+0x14>
    37e8:	8e b5       	in	r24, 0x2e	; 46
    37ea:	2f 5f       	subi	r18, 0xFF	; 255
    37ec:	3f 4f       	sbci	r19, 0xFF	; 255
    37ee:	31 97       	sbiw	r30, 0x01	; 1
    37f0:	21 30       	cpi	r18, 0x01	; 1
    37f2:	31 05       	cpc	r19, r1
    37f4:	a9 f3       	breq	.-22     	; 0x37e0 <Set_TransmitterAntennaDelay+0x12>
    37f6:	80 81       	ld	r24, Z
    37f8:	8e bd       	out	0x2e, r24	; 46
    37fa:	0d b4       	in	r0, 0x2d	; 45
    37fc:	07 fe       	sbrs	r0, 7
    37fe:	fd cf       	rjmp	.-6      	; 0x37fa <Set_TransmitterAntennaDelay+0x2c>
    3800:	8e b5       	in	r24, 0x2e	; 46
    3802:	23 30       	cpi	r18, 0x03	; 3
    3804:	31 05       	cpc	r19, r1
    3806:	89 f7       	brne	.-30     	; 0x37ea <Set_TransmitterAntennaDelay+0x1c>
    3808:	2c 9a       	sbi	0x05, 4	; 5
    380a:	08 95       	ret

0000380c <Set_AcknowledgementTimeAndResponceTime>:
    380c:	2c 98       	cbi	0x05, 4	; 5
    380e:	fc 01       	movw	r30, r24
    3810:	34 96       	adiw	r30, 0x04	; 4
    3812:	21 e0       	ldi	r18, 0x01	; 1
    3814:	30 e0       	ldi	r19, 0x00	; 0
    3816:	9a e9       	ldi	r25, 0x9A	; 154
    3818:	21 30       	cpi	r18, 0x01	; 1
    381a:	31 05       	cpc	r19, r1
    381c:	59 f4       	brne	.+22     	; 0x3834 <Set_AcknowledgementTimeAndResponceTime+0x28>
    381e:	9e bd       	out	0x2e, r25	; 46
    3820:	0d b4       	in	r0, 0x2d	; 45
    3822:	07 fe       	sbrs	r0, 7
    3824:	fd cf       	rjmp	.-6      	; 0x3820 <Set_AcknowledgementTimeAndResponceTime+0x14>
    3826:	8e b5       	in	r24, 0x2e	; 46
    3828:	2f 5f       	subi	r18, 0xFF	; 255
    382a:	3f 4f       	sbci	r19, 0xFF	; 255
    382c:	31 97       	sbiw	r30, 0x01	; 1
    382e:	21 30       	cpi	r18, 0x01	; 1
    3830:	31 05       	cpc	r19, r1
    3832:	a9 f3       	breq	.-22     	; 0x381e <Set_AcknowledgementTimeAndResponceTime+0x12>
    3834:	80 81       	ld	r24, Z
    3836:	8e bd       	out	0x2e, r24	; 46
    3838:	0d b4       	in	r0, 0x2d	; 45
    383a:	07 fe       	sbrs	r0, 7
    383c:	fd cf       	rjmp	.-6      	; 0x3838 <Set_AcknowledgementTimeAndResponceTime+0x2c>
    383e:	8e b5       	in	r24, 0x2e	; 46
    3840:	25 30       	cpi	r18, 0x05	; 5
    3842:	31 05       	cpc	r19, r1
    3844:	89 f7       	brne	.-30     	; 0x3828 <Set_AcknowledgementTimeAndResponceTime+0x1c>
    3846:	2c 9a       	sbi	0x05, 4	; 5
    3848:	08 95       	ret

0000384a <Set_SNIFFMode>:
    384a:	2c 98       	cbi	0x05, 4	; 5
    384c:	fc 01       	movw	r30, r24
    384e:	34 96       	adiw	r30, 0x04	; 4
    3850:	21 e0       	ldi	r18, 0x01	; 1
    3852:	30 e0       	ldi	r19, 0x00	; 0
    3854:	9d e9       	ldi	r25, 0x9D	; 157
    3856:	21 30       	cpi	r18, 0x01	; 1
    3858:	31 05       	cpc	r19, r1
    385a:	59 f4       	brne	.+22     	; 0x3872 <Set_SNIFFMode+0x28>
    385c:	9e bd       	out	0x2e, r25	; 46
    385e:	0d b4       	in	r0, 0x2d	; 45
    3860:	07 fe       	sbrs	r0, 7
    3862:	fd cf       	rjmp	.-6      	; 0x385e <Set_SNIFFMode+0x14>
    3864:	8e b5       	in	r24, 0x2e	; 46
    3866:	2f 5f       	subi	r18, 0xFF	; 255
    3868:	3f 4f       	sbci	r19, 0xFF	; 255
    386a:	31 97       	sbiw	r30, 0x01	; 1
    386c:	21 30       	cpi	r18, 0x01	; 1
    386e:	31 05       	cpc	r19, r1
    3870:	a9 f3       	breq	.-22     	; 0x385c <Set_SNIFFMode+0x12>
    3872:	80 81       	ld	r24, Z
    3874:	8e bd       	out	0x2e, r24	; 46
    3876:	0d b4       	in	r0, 0x2d	; 45
    3878:	07 fe       	sbrs	r0, 7
    387a:	fd cf       	rjmp	.-6      	; 0x3876 <Set_SNIFFMode+0x2c>
    387c:	8e b5       	in	r24, 0x2e	; 46
    387e:	25 30       	cpi	r18, 0x05	; 5
    3880:	31 05       	cpc	r19, r1
    3882:	89 f7       	brne	.-30     	; 0x3866 <Set_SNIFFMode+0x1c>
    3884:	2c 9a       	sbi	0x05, 4	; 5
    3886:	08 95       	ret

00003888 <Set_TransmitPowerControl>:
    3888:	2c 98       	cbi	0x05, 4	; 5
    388a:	fc 01       	movw	r30, r24
    388c:	34 96       	adiw	r30, 0x04	; 4
    388e:	21 e0       	ldi	r18, 0x01	; 1
    3890:	30 e0       	ldi	r19, 0x00	; 0
    3892:	9e e9       	ldi	r25, 0x9E	; 158
    3894:	21 30       	cpi	r18, 0x01	; 1
    3896:	31 05       	cpc	r19, r1
    3898:	59 f4       	brne	.+22     	; 0x38b0 <Set_TransmitPowerControl+0x28>
    389a:	9e bd       	out	0x2e, r25	; 46
    389c:	0d b4       	in	r0, 0x2d	; 45
    389e:	07 fe       	sbrs	r0, 7
    38a0:	fd cf       	rjmp	.-6      	; 0x389c <Set_TransmitPowerControl+0x14>
    38a2:	8e b5       	in	r24, 0x2e	; 46
    38a4:	2f 5f       	subi	r18, 0xFF	; 255
    38a6:	3f 4f       	sbci	r19, 0xFF	; 255
    38a8:	31 97       	sbiw	r30, 0x01	; 1
    38aa:	21 30       	cpi	r18, 0x01	; 1
    38ac:	31 05       	cpc	r19, r1
    38ae:	a9 f3       	breq	.-22     	; 0x389a <Set_TransmitPowerControl+0x12>
    38b0:	80 81       	ld	r24, Z
    38b2:	8e bd       	out	0x2e, r24	; 46
    38b4:	0d b4       	in	r0, 0x2d	; 45
    38b6:	07 fe       	sbrs	r0, 7
    38b8:	fd cf       	rjmp	.-6      	; 0x38b4 <Set_TransmitPowerControl+0x2c>
    38ba:	8e b5       	in	r24, 0x2e	; 46
    38bc:	25 30       	cpi	r18, 0x05	; 5
    38be:	31 05       	cpc	r19, r1
    38c0:	89 f7       	brne	.-30     	; 0x38a4 <Set_TransmitPowerControl+0x1c>
    38c2:	2c 9a       	sbi	0x05, 4	; 5
    38c4:	08 95       	ret

000038c6 <Set_ChannelControl>:
    38c6:	2c 98       	cbi	0x05, 4	; 5
    38c8:	fc 01       	movw	r30, r24
    38ca:	34 96       	adiw	r30, 0x04	; 4
    38cc:	21 e0       	ldi	r18, 0x01	; 1
    38ce:	30 e0       	ldi	r19, 0x00	; 0
    38d0:	9f e9       	ldi	r25, 0x9F	; 159
    38d2:	21 30       	cpi	r18, 0x01	; 1
    38d4:	31 05       	cpc	r19, r1
    38d6:	59 f4       	brne	.+22     	; 0x38ee <Set_ChannelControl+0x28>
    38d8:	9e bd       	out	0x2e, r25	; 46
    38da:	0d b4       	in	r0, 0x2d	; 45
    38dc:	07 fe       	sbrs	r0, 7
    38de:	fd cf       	rjmp	.-6      	; 0x38da <Set_ChannelControl+0x14>
    38e0:	8e b5       	in	r24, 0x2e	; 46
    38e2:	2f 5f       	subi	r18, 0xFF	; 255
    38e4:	3f 4f       	sbci	r19, 0xFF	; 255
    38e6:	31 97       	sbiw	r30, 0x01	; 1
    38e8:	21 30       	cpi	r18, 0x01	; 1
    38ea:	31 05       	cpc	r19, r1
    38ec:	a9 f3       	breq	.-22     	; 0x38d8 <Set_ChannelControl+0x12>
    38ee:	80 81       	ld	r24, Z
    38f0:	8e bd       	out	0x2e, r24	; 46
    38f2:	0d b4       	in	r0, 0x2d	; 45
    38f4:	07 fe       	sbrs	r0, 7
    38f6:	fd cf       	rjmp	.-6      	; 0x38f2 <Set_ChannelControl+0x2c>
    38f8:	8e b5       	in	r24, 0x2e	; 46
    38fa:	25 30       	cpi	r18, 0x05	; 5
    38fc:	31 05       	cpc	r19, r1
    38fe:	89 f7       	brne	.-30     	; 0x38e2 <Set_ChannelControl+0x1c>
    3900:	2c 9a       	sbi	0x05, 4	; 5
    3902:	08 95       	ret

00003904 <Set_AGCConfigurationAndControl>:
    3904:	ff 92       	push	r15
    3906:	0f 93       	push	r16
    3908:	1f 93       	push	r17
    390a:	cf 93       	push	r28
    390c:	df 93       	push	r29
    390e:	2c 98       	cbi	0x05, 4	; 5
    3910:	ec 01       	movw	r28, r24
    3912:	23 96       	adiw	r28, 0x03	; 3
    3914:	e1 e0       	ldi	r30, 0x01	; 1
    3916:	f0 e0       	ldi	r31, 0x00	; 0
    3918:	83 ee       	ldi	r24, 0xE3	; 227
    391a:	f8 2e       	mov	r15, r24
    391c:	92 e0       	ldi	r25, 0x02	; 2
    391e:	df 01       	movw	r26, r30
    3920:	11 97       	sbiw	r26, 0x01	; 1
    3922:	61 f0       	breq	.+24     	; 0x393c <Set_AGCConfigurationAndControl+0x38>
    3924:	11 97       	sbiw	r26, 0x01	; 1
    3926:	79 f4       	brne	.+30     	; 0x3946 <Set_AGCConfigurationAndControl+0x42>
    3928:	9e bd       	out	0x2e, r25	; 46
    392a:	0d b4       	in	r0, 0x2d	; 45
    392c:	07 fe       	sbrs	r0, 7
    392e:	fd cf       	rjmp	.-6      	; 0x392a <Set_AGCConfigurationAndControl+0x26>
    3930:	8e b5       	in	r24, 0x2e	; 46
    3932:	31 96       	adiw	r30, 0x01	; 1
    3934:	21 97       	sbiw	r28, 0x01	; 1
    3936:	df 01       	movw	r26, r30
    3938:	11 97       	sbiw	r26, 0x01	; 1
    393a:	a1 f7       	brne	.-24     	; 0x3924 <Set_AGCConfigurationAndControl+0x20>
    393c:	fe bc       	out	0x2e, r15	; 46
    393e:	0d b4       	in	r0, 0x2d	; 45
    3940:	07 fe       	sbrs	r0, 7
    3942:	fd cf       	rjmp	.-6      	; 0x393e <Set_AGCConfigurationAndControl+0x3a>
    3944:	f5 cf       	rjmp	.-22     	; 0x3930 <Set_AGCConfigurationAndControl+0x2c>
    3946:	88 81       	ld	r24, Y
    3948:	8e bd       	out	0x2e, r24	; 46
    394a:	0d b4       	in	r0, 0x2d	; 45
    394c:	07 fe       	sbrs	r0, 7
    394e:	fd cf       	rjmp	.-6      	; 0x394a <Set_AGCConfigurationAndControl+0x46>
    3950:	8e b5       	in	r24, 0x2e	; 46
    3952:	e4 30       	cpi	r30, 0x04	; 4
    3954:	f1 05       	cpc	r31, r1
    3956:	69 f7       	brne	.-38     	; 0x3932 <Set_AGCConfigurationAndControl+0x2e>
    3958:	2c 9a       	sbi	0x05, 4	; 5
    395a:	2c 98       	cbi	0x05, 4	; 5
    395c:	db 01       	movw	r26, r22
    395e:	13 96       	adiw	r26, 0x03	; 3
    3960:	81 e0       	ldi	r24, 0x01	; 1
    3962:	90 e0       	ldi	r25, 0x00	; 0
    3964:	c3 ee       	ldi	r28, 0xE3	; 227
    3966:	74 e0       	ldi	r23, 0x04	; 4
    3968:	fc 01       	movw	r30, r24
    396a:	31 97       	sbiw	r30, 0x01	; 1
    396c:	61 f0       	breq	.+24     	; 0x3986 <Set_AGCConfigurationAndControl+0x82>
    396e:	31 97       	sbiw	r30, 0x01	; 1
    3970:	79 f4       	brne	.+30     	; 0x3990 <Set_AGCConfigurationAndControl+0x8c>
    3972:	7e bd       	out	0x2e, r23	; 46
    3974:	0d b4       	in	r0, 0x2d	; 45
    3976:	07 fe       	sbrs	r0, 7
    3978:	fd cf       	rjmp	.-6      	; 0x3974 <Set_AGCConfigurationAndControl+0x70>
    397a:	6e b5       	in	r22, 0x2e	; 46
    397c:	01 96       	adiw	r24, 0x01	; 1
    397e:	11 97       	sbiw	r26, 0x01	; 1
    3980:	fc 01       	movw	r30, r24
    3982:	31 97       	sbiw	r30, 0x01	; 1
    3984:	a1 f7       	brne	.-24     	; 0x396e <Set_AGCConfigurationAndControl+0x6a>
    3986:	ce bd       	out	0x2e, r28	; 46
    3988:	0d b4       	in	r0, 0x2d	; 45
    398a:	07 fe       	sbrs	r0, 7
    398c:	fd cf       	rjmp	.-6      	; 0x3988 <Set_AGCConfigurationAndControl+0x84>
    398e:	f5 cf       	rjmp	.-22     	; 0x397a <Set_AGCConfigurationAndControl+0x76>
    3990:	6c 91       	ld	r22, X
    3992:	6e bd       	out	0x2e, r22	; 46
    3994:	0d b4       	in	r0, 0x2d	; 45
    3996:	07 fe       	sbrs	r0, 7
    3998:	fd cf       	rjmp	.-6      	; 0x3994 <Set_AGCConfigurationAndControl+0x90>
    399a:	6e b5       	in	r22, 0x2e	; 46
    399c:	84 30       	cpi	r24, 0x04	; 4
    399e:	91 05       	cpc	r25, r1
    39a0:	69 f7       	brne	.-38     	; 0x397c <Set_AGCConfigurationAndControl+0x78>
    39a2:	2c 9a       	sbi	0x05, 4	; 5
    39a4:	2c 98       	cbi	0x05, 4	; 5
    39a6:	fa 01       	movw	r30, r20
    39a8:	35 96       	adiw	r30, 0x05	; 5
    39aa:	81 e0       	ldi	r24, 0x01	; 1
    39ac:	90 e0       	ldi	r25, 0x00	; 0
    39ae:	a3 ee       	ldi	r26, 0xE3	; 227
    39b0:	5c e0       	ldi	r21, 0x0C	; 12
    39b2:	bc 01       	movw	r22, r24
    39b4:	61 50       	subi	r22, 0x01	; 1
    39b6:	71 09       	sbc	r23, r1
    39b8:	71 f0       	breq	.+28     	; 0x39d6 <Set_AGCConfigurationAndControl+0xd2>
    39ba:	61 30       	cpi	r22, 0x01	; 1
    39bc:	71 05       	cpc	r23, r1
    39be:	81 f4       	brne	.+32     	; 0x39e0 <Set_AGCConfigurationAndControl+0xdc>
    39c0:	5e bd       	out	0x2e, r21	; 46
    39c2:	0d b4       	in	r0, 0x2d	; 45
    39c4:	07 fe       	sbrs	r0, 7
    39c6:	fd cf       	rjmp	.-6      	; 0x39c2 <Set_AGCConfigurationAndControl+0xbe>
    39c8:	4e b5       	in	r20, 0x2e	; 46
    39ca:	01 96       	adiw	r24, 0x01	; 1
    39cc:	31 97       	sbiw	r30, 0x01	; 1
    39ce:	bc 01       	movw	r22, r24
    39d0:	61 50       	subi	r22, 0x01	; 1
    39d2:	71 09       	sbc	r23, r1
    39d4:	91 f7       	brne	.-28     	; 0x39ba <Set_AGCConfigurationAndControl+0xb6>
    39d6:	ae bd       	out	0x2e, r26	; 46
    39d8:	0d b4       	in	r0, 0x2d	; 45
    39da:	07 fe       	sbrs	r0, 7
    39dc:	fd cf       	rjmp	.-6      	; 0x39d8 <Set_AGCConfigurationAndControl+0xd4>
    39de:	f4 cf       	rjmp	.-24     	; 0x39c8 <Set_AGCConfigurationAndControl+0xc4>
    39e0:	40 81       	ld	r20, Z
    39e2:	4e bd       	out	0x2e, r20	; 46
    39e4:	0d b4       	in	r0, 0x2d	; 45
    39e6:	07 fe       	sbrs	r0, 7
    39e8:	fd cf       	rjmp	.-6      	; 0x39e4 <Set_AGCConfigurationAndControl+0xe0>
    39ea:	4e b5       	in	r20, 0x2e	; 46
    39ec:	86 30       	cpi	r24, 0x06	; 6
    39ee:	91 05       	cpc	r25, r1
    39f0:	61 f7       	brne	.-40     	; 0x39ca <Set_AGCConfigurationAndControl+0xc6>
    39f2:	2c 9a       	sbi	0x05, 4	; 5
    39f4:	2c 98       	cbi	0x05, 4	; 5
    39f6:	f9 01       	movw	r30, r18
    39f8:	33 96       	adiw	r30, 0x03	; 3
    39fa:	81 e0       	ldi	r24, 0x01	; 1
    39fc:	90 e0       	ldi	r25, 0x00	; 0
    39fe:	63 ee       	ldi	r22, 0xE3	; 227
    3a00:	32 e1       	ldi	r19, 0x12	; 18
    3a02:	ac 01       	movw	r20, r24
    3a04:	41 50       	subi	r20, 0x01	; 1
    3a06:	51 09       	sbc	r21, r1
    3a08:	71 f0       	breq	.+28     	; 0x3a26 <Set_AGCConfigurationAndControl+0x122>
    3a0a:	41 30       	cpi	r20, 0x01	; 1
    3a0c:	51 05       	cpc	r21, r1
    3a0e:	81 f4       	brne	.+32     	; 0x3a30 <Set_AGCConfigurationAndControl+0x12c>
    3a10:	3e bd       	out	0x2e, r19	; 46
    3a12:	0d b4       	in	r0, 0x2d	; 45
    3a14:	07 fe       	sbrs	r0, 7
    3a16:	fd cf       	rjmp	.-6      	; 0x3a12 <Set_AGCConfigurationAndControl+0x10e>
    3a18:	2e b5       	in	r18, 0x2e	; 46
    3a1a:	01 96       	adiw	r24, 0x01	; 1
    3a1c:	31 97       	sbiw	r30, 0x01	; 1
    3a1e:	ac 01       	movw	r20, r24
    3a20:	41 50       	subi	r20, 0x01	; 1
    3a22:	51 09       	sbc	r21, r1
    3a24:	91 f7       	brne	.-28     	; 0x3a0a <Set_AGCConfigurationAndControl+0x106>
    3a26:	6e bd       	out	0x2e, r22	; 46
    3a28:	0d b4       	in	r0, 0x2d	; 45
    3a2a:	07 fe       	sbrs	r0, 7
    3a2c:	fd cf       	rjmp	.-6      	; 0x3a28 <Set_AGCConfigurationAndControl+0x124>
    3a2e:	f4 cf       	rjmp	.-24     	; 0x3a18 <Set_AGCConfigurationAndControl+0x114>
    3a30:	20 81       	ld	r18, Z
    3a32:	2e bd       	out	0x2e, r18	; 46
    3a34:	0d b4       	in	r0, 0x2d	; 45
    3a36:	07 fe       	sbrs	r0, 7
    3a38:	fd cf       	rjmp	.-6      	; 0x3a34 <Set_AGCConfigurationAndControl+0x130>
    3a3a:	2e b5       	in	r18, 0x2e	; 46
    3a3c:	84 30       	cpi	r24, 0x04	; 4
    3a3e:	91 05       	cpc	r25, r1
    3a40:	61 f7       	brne	.-40     	; 0x3a1a <Set_AGCConfigurationAndControl+0x116>
    3a42:	2c 9a       	sbi	0x05, 4	; 5
    3a44:	2c 98       	cbi	0x05, 4	; 5
    3a46:	f8 01       	movw	r30, r16
    3a48:	34 96       	adiw	r30, 0x04	; 4
    3a4a:	81 e0       	ldi	r24, 0x01	; 1
    3a4c:	90 e0       	ldi	r25, 0x00	; 0
    3a4e:	53 ee       	ldi	r21, 0xE3	; 227
    3a50:	4e e1       	ldi	r20, 0x1E	; 30
    3a52:	9c 01       	movw	r18, r24
    3a54:	21 50       	subi	r18, 0x01	; 1
    3a56:	31 09       	sbc	r19, r1
    3a58:	71 f0       	breq	.+28     	; 0x3a76 <Set_AGCConfigurationAndControl+0x172>
    3a5a:	21 30       	cpi	r18, 0x01	; 1
    3a5c:	31 05       	cpc	r19, r1
    3a5e:	81 f4       	brne	.+32     	; 0x3a80 <Set_AGCConfigurationAndControl+0x17c>
    3a60:	4e bd       	out	0x2e, r20	; 46
    3a62:	0d b4       	in	r0, 0x2d	; 45
    3a64:	07 fe       	sbrs	r0, 7
    3a66:	fd cf       	rjmp	.-6      	; 0x3a62 <Set_AGCConfigurationAndControl+0x15e>
    3a68:	2e b5       	in	r18, 0x2e	; 46
    3a6a:	01 96       	adiw	r24, 0x01	; 1
    3a6c:	31 97       	sbiw	r30, 0x01	; 1
    3a6e:	9c 01       	movw	r18, r24
    3a70:	21 50       	subi	r18, 0x01	; 1
    3a72:	31 09       	sbc	r19, r1
    3a74:	91 f7       	brne	.-28     	; 0x3a5a <Set_AGCConfigurationAndControl+0x156>
    3a76:	5e bd       	out	0x2e, r21	; 46
    3a78:	0d b4       	in	r0, 0x2d	; 45
    3a7a:	07 fe       	sbrs	r0, 7
    3a7c:	fd cf       	rjmp	.-6      	; 0x3a78 <Set_AGCConfigurationAndControl+0x174>
    3a7e:	f4 cf       	rjmp	.-24     	; 0x3a68 <Set_AGCConfigurationAndControl+0x164>
    3a80:	20 81       	ld	r18, Z
    3a82:	2e bd       	out	0x2e, r18	; 46
    3a84:	0d b4       	in	r0, 0x2d	; 45
    3a86:	07 fe       	sbrs	r0, 7
    3a88:	fd cf       	rjmp	.-6      	; 0x3a84 <Set_AGCConfigurationAndControl+0x180>
    3a8a:	2e b5       	in	r18, 0x2e	; 46
    3a8c:	85 30       	cpi	r24, 0x05	; 5
    3a8e:	91 05       	cpc	r25, r1
    3a90:	61 f7       	brne	.-40     	; 0x3a6a <Set_AGCConfigurationAndControl+0x166>
    3a92:	2c 9a       	sbi	0x05, 4	; 5
    3a94:	df 91       	pop	r29
    3a96:	cf 91       	pop	r28
    3a98:	1f 91       	pop	r17
    3a9a:	0f 91       	pop	r16
    3a9c:	ff 90       	pop	r15
    3a9e:	08 95       	ret

00003aa0 <Set_ExternalSynchronizationControl>:
    3aa0:	2c 98       	cbi	0x05, 4	; 5
    3aa2:	fc 01       	movw	r30, r24
    3aa4:	34 96       	adiw	r30, 0x04	; 4
    3aa6:	21 e0       	ldi	r18, 0x01	; 1
    3aa8:	30 e0       	ldi	r19, 0x00	; 0
    3aaa:	94 ea       	ldi	r25, 0xA4	; 164
    3aac:	21 30       	cpi	r18, 0x01	; 1
    3aae:	31 05       	cpc	r19, r1
    3ab0:	59 f4       	brne	.+22     	; 0x3ac8 <Set_ExternalSynchronizationControl+0x28>
    3ab2:	9e bd       	out	0x2e, r25	; 46
    3ab4:	0d b4       	in	r0, 0x2d	; 45
    3ab6:	07 fe       	sbrs	r0, 7
    3ab8:	fd cf       	rjmp	.-6      	; 0x3ab4 <Set_ExternalSynchronizationControl+0x14>
    3aba:	8e b5       	in	r24, 0x2e	; 46
    3abc:	2f 5f       	subi	r18, 0xFF	; 255
    3abe:	3f 4f       	sbci	r19, 0xFF	; 255
    3ac0:	31 97       	sbiw	r30, 0x01	; 1
    3ac2:	21 30       	cpi	r18, 0x01	; 1
    3ac4:	31 05       	cpc	r19, r1
    3ac6:	a9 f3       	breq	.-22     	; 0x3ab2 <Set_ExternalSynchronizationControl+0x12>
    3ac8:	80 81       	ld	r24, Z
    3aca:	8e bd       	out	0x2e, r24	; 46
    3acc:	0d b4       	in	r0, 0x2d	; 45
    3ace:	07 fe       	sbrs	r0, 7
    3ad0:	fd cf       	rjmp	.-6      	; 0x3acc <Set_ExternalSynchronizationControl+0x2c>
    3ad2:	8e b5       	in	r24, 0x2e	; 46
    3ad4:	25 30       	cpi	r18, 0x05	; 5
    3ad6:	31 05       	cpc	r19, r1
    3ad8:	89 f7       	brne	.-30     	; 0x3abc <Set_ExternalSynchronizationControl+0x1c>
    3ada:	2c 9a       	sbi	0x05, 4	; 5
    3adc:	2c 98       	cbi	0x05, 4	; 5
    3ade:	fb 01       	movw	r30, r22
    3ae0:	35 96       	adiw	r30, 0x05	; 5
    3ae2:	81 e0       	ldi	r24, 0x01	; 1
    3ae4:	90 e0       	ldi	r25, 0x00	; 0
    3ae6:	74 ee       	ldi	r23, 0xE4	; 228
    3ae8:	64 e0       	ldi	r22, 0x04	; 4
    3aea:	9c 01       	movw	r18, r24
    3aec:	21 50       	subi	r18, 0x01	; 1
    3aee:	31 09       	sbc	r19, r1
    3af0:	71 f0       	breq	.+28     	; 0x3b0e <Set_ExternalSynchronizationControl+0x6e>
    3af2:	21 30       	cpi	r18, 0x01	; 1
    3af4:	31 05       	cpc	r19, r1
    3af6:	81 f4       	brne	.+32     	; 0x3b18 <Set_ExternalSynchronizationControl+0x78>
    3af8:	6e bd       	out	0x2e, r22	; 46
    3afa:	0d b4       	in	r0, 0x2d	; 45
    3afc:	07 fe       	sbrs	r0, 7
    3afe:	fd cf       	rjmp	.-6      	; 0x3afa <Set_ExternalSynchronizationControl+0x5a>
    3b00:	2e b5       	in	r18, 0x2e	; 46
    3b02:	01 96       	adiw	r24, 0x01	; 1
    3b04:	31 97       	sbiw	r30, 0x01	; 1
    3b06:	9c 01       	movw	r18, r24
    3b08:	21 50       	subi	r18, 0x01	; 1
    3b0a:	31 09       	sbc	r19, r1
    3b0c:	91 f7       	brne	.-28     	; 0x3af2 <Set_ExternalSynchronizationControl+0x52>
    3b0e:	7e bd       	out	0x2e, r23	; 46
    3b10:	0d b4       	in	r0, 0x2d	; 45
    3b12:	07 fe       	sbrs	r0, 7
    3b14:	fd cf       	rjmp	.-6      	; 0x3b10 <Set_ExternalSynchronizationControl+0x70>
    3b16:	f4 cf       	rjmp	.-24     	; 0x3b00 <Set_ExternalSynchronizationControl+0x60>
    3b18:	20 81       	ld	r18, Z
    3b1a:	2e bd       	out	0x2e, r18	; 46
    3b1c:	0d b4       	in	r0, 0x2d	; 45
    3b1e:	07 fe       	sbrs	r0, 7
    3b20:	fd cf       	rjmp	.-6      	; 0x3b1c <Set_ExternalSynchronizationControl+0x7c>
    3b22:	2e b5       	in	r18, 0x2e	; 46
    3b24:	86 30       	cpi	r24, 0x06	; 6
    3b26:	91 05       	cpc	r25, r1
    3b28:	61 f7       	brne	.-40     	; 0x3b02 <Set_ExternalSynchronizationControl+0x62>
    3b2a:	2c 9a       	sbi	0x05, 4	; 5
    3b2c:	2c 98       	cbi	0x05, 4	; 5
    3b2e:	fa 01       	movw	r30, r20
    3b30:	35 96       	adiw	r30, 0x05	; 5
    3b32:	81 e0       	ldi	r24, 0x01	; 1
    3b34:	90 e0       	ldi	r25, 0x00	; 0
    3b36:	54 ee       	ldi	r21, 0xE4	; 228
    3b38:	48 e0       	ldi	r20, 0x08	; 8
    3b3a:	9c 01       	movw	r18, r24
    3b3c:	21 50       	subi	r18, 0x01	; 1
    3b3e:	31 09       	sbc	r19, r1
    3b40:	71 f0       	breq	.+28     	; 0x3b5e <Set_ExternalSynchronizationControl+0xbe>
    3b42:	21 30       	cpi	r18, 0x01	; 1
    3b44:	31 05       	cpc	r19, r1
    3b46:	81 f4       	brne	.+32     	; 0x3b68 <Set_ExternalSynchronizationControl+0xc8>
    3b48:	4e bd       	out	0x2e, r20	; 46
    3b4a:	0d b4       	in	r0, 0x2d	; 45
    3b4c:	07 fe       	sbrs	r0, 7
    3b4e:	fd cf       	rjmp	.-6      	; 0x3b4a <Set_ExternalSynchronizationControl+0xaa>
    3b50:	2e b5       	in	r18, 0x2e	; 46
    3b52:	01 96       	adiw	r24, 0x01	; 1
    3b54:	31 97       	sbiw	r30, 0x01	; 1
    3b56:	9c 01       	movw	r18, r24
    3b58:	21 50       	subi	r18, 0x01	; 1
    3b5a:	31 09       	sbc	r19, r1
    3b5c:	91 f7       	brne	.-28     	; 0x3b42 <Set_ExternalSynchronizationControl+0xa2>
    3b5e:	5e bd       	out	0x2e, r21	; 46
    3b60:	0d b4       	in	r0, 0x2d	; 45
    3b62:	07 fe       	sbrs	r0, 7
    3b64:	fd cf       	rjmp	.-6      	; 0x3b60 <Set_ExternalSynchronizationControl+0xc0>
    3b66:	f4 cf       	rjmp	.-24     	; 0x3b50 <Set_ExternalSynchronizationControl+0xb0>
    3b68:	20 81       	ld	r18, Z
    3b6a:	2e bd       	out	0x2e, r18	; 46
    3b6c:	0d b4       	in	r0, 0x2d	; 45
    3b6e:	07 fe       	sbrs	r0, 7
    3b70:	fd cf       	rjmp	.-6      	; 0x3b6c <Set_ExternalSynchronizationControl+0xcc>
    3b72:	2e b5       	in	r18, 0x2e	; 46
    3b74:	86 30       	cpi	r24, 0x06	; 6
    3b76:	91 05       	cpc	r25, r1
    3b78:	61 f7       	brne	.-40     	; 0x3b52 <Set_ExternalSynchronizationControl+0xb2>
    3b7a:	2c 9a       	sbi	0x05, 4	; 5
    3b7c:	08 95       	ret

00003b7e <Set_GPIOModeControlRegister>:
    3b7e:	2c 98       	cbi	0x05, 4	; 5
    3b80:	fc 01       	movw	r30, r24
    3b82:	35 96       	adiw	r30, 0x05	; 5
    3b84:	21 e0       	ldi	r18, 0x01	; 1
    3b86:	30 e0       	ldi	r19, 0x00	; 0
    3b88:	96 ee       	ldi	r25, 0xE6	; 230
    3b8a:	a9 01       	movw	r20, r18
    3b8c:	41 50       	subi	r20, 0x01	; 1
    3b8e:	51 09       	sbc	r21, r1
    3b90:	79 f0       	breq	.+30     	; 0x3bb0 <Set_GPIOModeControlRegister+0x32>
    3b92:	41 30       	cpi	r20, 0x01	; 1
    3b94:	51 05       	cpc	r21, r1
    3b96:	89 f4       	brne	.+34     	; 0x3bba <Set_GPIOModeControlRegister+0x3c>
    3b98:	1e bc       	out	0x2e, r1	; 46
    3b9a:	0d b4       	in	r0, 0x2d	; 45
    3b9c:	07 fe       	sbrs	r0, 7
    3b9e:	fd cf       	rjmp	.-6      	; 0x3b9a <Set_GPIOModeControlRegister+0x1c>
    3ba0:	8e b5       	in	r24, 0x2e	; 46
    3ba2:	2f 5f       	subi	r18, 0xFF	; 255
    3ba4:	3f 4f       	sbci	r19, 0xFF	; 255
    3ba6:	31 97       	sbiw	r30, 0x01	; 1
    3ba8:	a9 01       	movw	r20, r18
    3baa:	41 50       	subi	r20, 0x01	; 1
    3bac:	51 09       	sbc	r21, r1
    3bae:	89 f7       	brne	.-30     	; 0x3b92 <Set_GPIOModeControlRegister+0x14>
    3bb0:	9e bd       	out	0x2e, r25	; 46
    3bb2:	0d b4       	in	r0, 0x2d	; 45
    3bb4:	07 fe       	sbrs	r0, 7
    3bb6:	fd cf       	rjmp	.-6      	; 0x3bb2 <Set_GPIOModeControlRegister+0x34>
    3bb8:	f3 cf       	rjmp	.-26     	; 0x3ba0 <Set_GPIOModeControlRegister+0x22>
    3bba:	80 81       	ld	r24, Z
    3bbc:	8e bd       	out	0x2e, r24	; 46
    3bbe:	0d b4       	in	r0, 0x2d	; 45
    3bc0:	07 fe       	sbrs	r0, 7
    3bc2:	fd cf       	rjmp	.-6      	; 0x3bbe <Set_GPIOModeControlRegister+0x40>
    3bc4:	8e b5       	in	r24, 0x2e	; 46
    3bc6:	26 30       	cpi	r18, 0x06	; 6
    3bc8:	31 05       	cpc	r19, r1
    3bca:	59 f7       	brne	.-42     	; 0x3ba2 <Set_GPIOModeControlRegister+0x24>
    3bcc:	2c 9a       	sbi	0x05, 4	; 5
    3bce:	08 95       	ret

00003bd0 <Set_GPIODirectionControlRegister>:
    3bd0:	2c 98       	cbi	0x05, 4	; 5
    3bd2:	fc 01       	movw	r30, r24
    3bd4:	35 96       	adiw	r30, 0x05	; 5
    3bd6:	21 e0       	ldi	r18, 0x01	; 1
    3bd8:	30 e0       	ldi	r19, 0x00	; 0
    3bda:	66 ee       	ldi	r22, 0xE6	; 230
    3bdc:	98 e0       	ldi	r25, 0x08	; 8
    3bde:	a9 01       	movw	r20, r18
    3be0:	41 50       	subi	r20, 0x01	; 1
    3be2:	51 09       	sbc	r21, r1
    3be4:	79 f0       	breq	.+30     	; 0x3c04 <Set_GPIODirectionControlRegister+0x34>
    3be6:	41 30       	cpi	r20, 0x01	; 1
    3be8:	51 05       	cpc	r21, r1
    3bea:	89 f4       	brne	.+34     	; 0x3c0e <Set_GPIODirectionControlRegister+0x3e>
    3bec:	9e bd       	out	0x2e, r25	; 46
    3bee:	0d b4       	in	r0, 0x2d	; 45
    3bf0:	07 fe       	sbrs	r0, 7
    3bf2:	fd cf       	rjmp	.-6      	; 0x3bee <Set_GPIODirectionControlRegister+0x1e>
    3bf4:	8e b5       	in	r24, 0x2e	; 46
    3bf6:	2f 5f       	subi	r18, 0xFF	; 255
    3bf8:	3f 4f       	sbci	r19, 0xFF	; 255
    3bfa:	31 97       	sbiw	r30, 0x01	; 1
    3bfc:	a9 01       	movw	r20, r18
    3bfe:	41 50       	subi	r20, 0x01	; 1
    3c00:	51 09       	sbc	r21, r1
    3c02:	89 f7       	brne	.-30     	; 0x3be6 <Set_GPIODirectionControlRegister+0x16>
    3c04:	6e bd       	out	0x2e, r22	; 46
    3c06:	0d b4       	in	r0, 0x2d	; 45
    3c08:	07 fe       	sbrs	r0, 7
    3c0a:	fd cf       	rjmp	.-6      	; 0x3c06 <Set_GPIODirectionControlRegister+0x36>
    3c0c:	f3 cf       	rjmp	.-26     	; 0x3bf4 <Set_GPIODirectionControlRegister+0x24>
    3c0e:	80 81       	ld	r24, Z
    3c10:	8e bd       	out	0x2e, r24	; 46
    3c12:	0d b4       	in	r0, 0x2d	; 45
    3c14:	07 fe       	sbrs	r0, 7
    3c16:	fd cf       	rjmp	.-6      	; 0x3c12 <Set_GPIODirectionControlRegister+0x42>
    3c18:	8e b5       	in	r24, 0x2e	; 46
    3c1a:	26 30       	cpi	r18, 0x06	; 6
    3c1c:	31 05       	cpc	r19, r1
    3c1e:	59 f7       	brne	.-42     	; 0x3bf6 <Set_GPIODirectionControlRegister+0x26>
    3c20:	2c 9a       	sbi	0x05, 4	; 5
    3c22:	08 95       	ret

00003c24 <Set_GPIODataOutputRegister>:
    3c24:	2c 98       	cbi	0x05, 4	; 5
    3c26:	fc 01       	movw	r30, r24
    3c28:	35 96       	adiw	r30, 0x05	; 5
    3c2a:	21 e0       	ldi	r18, 0x01	; 1
    3c2c:	30 e0       	ldi	r19, 0x00	; 0
    3c2e:	66 ee       	ldi	r22, 0xE6	; 230
    3c30:	9c e0       	ldi	r25, 0x0C	; 12
    3c32:	a9 01       	movw	r20, r18
    3c34:	41 50       	subi	r20, 0x01	; 1
    3c36:	51 09       	sbc	r21, r1
    3c38:	79 f0       	breq	.+30     	; 0x3c58 <Set_GPIODataOutputRegister+0x34>
    3c3a:	41 30       	cpi	r20, 0x01	; 1
    3c3c:	51 05       	cpc	r21, r1
    3c3e:	89 f4       	brne	.+34     	; 0x3c62 <Set_GPIODataOutputRegister+0x3e>
    3c40:	9e bd       	out	0x2e, r25	; 46
    3c42:	0d b4       	in	r0, 0x2d	; 45
    3c44:	07 fe       	sbrs	r0, 7
    3c46:	fd cf       	rjmp	.-6      	; 0x3c42 <Set_GPIODataOutputRegister+0x1e>
    3c48:	8e b5       	in	r24, 0x2e	; 46
    3c4a:	2f 5f       	subi	r18, 0xFF	; 255
    3c4c:	3f 4f       	sbci	r19, 0xFF	; 255
    3c4e:	31 97       	sbiw	r30, 0x01	; 1
    3c50:	a9 01       	movw	r20, r18
    3c52:	41 50       	subi	r20, 0x01	; 1
    3c54:	51 09       	sbc	r21, r1
    3c56:	89 f7       	brne	.-30     	; 0x3c3a <Set_GPIODataOutputRegister+0x16>
    3c58:	6e bd       	out	0x2e, r22	; 46
    3c5a:	0d b4       	in	r0, 0x2d	; 45
    3c5c:	07 fe       	sbrs	r0, 7
    3c5e:	fd cf       	rjmp	.-6      	; 0x3c5a <Set_GPIODataOutputRegister+0x36>
    3c60:	f3 cf       	rjmp	.-26     	; 0x3c48 <Set_GPIODataOutputRegister+0x24>
    3c62:	80 81       	ld	r24, Z
    3c64:	8e bd       	out	0x2e, r24	; 46
    3c66:	0d b4       	in	r0, 0x2d	; 45
    3c68:	07 fe       	sbrs	r0, 7
    3c6a:	fd cf       	rjmp	.-6      	; 0x3c66 <Set_GPIODataOutputRegister+0x42>
    3c6c:	8e b5       	in	r24, 0x2e	; 46
    3c6e:	26 30       	cpi	r18, 0x06	; 6
    3c70:	31 05       	cpc	r19, r1
    3c72:	59 f7       	brne	.-42     	; 0x3c4a <Set_GPIODataOutputRegister+0x26>
    3c74:	2c 9a       	sbi	0x05, 4	; 5
    3c76:	08 95       	ret

00003c78 <Set_GPIOInterruptEnable>:
    3c78:	2c 98       	cbi	0x05, 4	; 5
    3c7a:	fc 01       	movw	r30, r24
    3c7c:	35 96       	adiw	r30, 0x05	; 5
    3c7e:	21 e0       	ldi	r18, 0x01	; 1
    3c80:	30 e0       	ldi	r19, 0x00	; 0
    3c82:	66 ee       	ldi	r22, 0xE6	; 230
    3c84:	90 e1       	ldi	r25, 0x10	; 16
    3c86:	a9 01       	movw	r20, r18
    3c88:	41 50       	subi	r20, 0x01	; 1
    3c8a:	51 09       	sbc	r21, r1
    3c8c:	79 f0       	breq	.+30     	; 0x3cac <Set_GPIOInterruptEnable+0x34>
    3c8e:	41 30       	cpi	r20, 0x01	; 1
    3c90:	51 05       	cpc	r21, r1
    3c92:	89 f4       	brne	.+34     	; 0x3cb6 <Set_GPIOInterruptEnable+0x3e>
    3c94:	9e bd       	out	0x2e, r25	; 46
    3c96:	0d b4       	in	r0, 0x2d	; 45
    3c98:	07 fe       	sbrs	r0, 7
    3c9a:	fd cf       	rjmp	.-6      	; 0x3c96 <Set_GPIOInterruptEnable+0x1e>
    3c9c:	8e b5       	in	r24, 0x2e	; 46
    3c9e:	2f 5f       	subi	r18, 0xFF	; 255
    3ca0:	3f 4f       	sbci	r19, 0xFF	; 255
    3ca2:	31 97       	sbiw	r30, 0x01	; 1
    3ca4:	a9 01       	movw	r20, r18
    3ca6:	41 50       	subi	r20, 0x01	; 1
    3ca8:	51 09       	sbc	r21, r1
    3caa:	89 f7       	brne	.-30     	; 0x3c8e <Set_GPIOInterruptEnable+0x16>
    3cac:	6e bd       	out	0x2e, r22	; 46
    3cae:	0d b4       	in	r0, 0x2d	; 45
    3cb0:	07 fe       	sbrs	r0, 7
    3cb2:	fd cf       	rjmp	.-6      	; 0x3cae <Set_GPIOInterruptEnable+0x36>
    3cb4:	f3 cf       	rjmp	.-26     	; 0x3c9c <Set_GPIOInterruptEnable+0x24>
    3cb6:	80 81       	ld	r24, Z
    3cb8:	8e bd       	out	0x2e, r24	; 46
    3cba:	0d b4       	in	r0, 0x2d	; 45
    3cbc:	07 fe       	sbrs	r0, 7
    3cbe:	fd cf       	rjmp	.-6      	; 0x3cba <Set_GPIOInterruptEnable+0x42>
    3cc0:	8e b5       	in	r24, 0x2e	; 46
    3cc2:	26 30       	cpi	r18, 0x06	; 6
    3cc4:	31 05       	cpc	r19, r1
    3cc6:	59 f7       	brne	.-42     	; 0x3c9e <Set_GPIOInterruptEnable+0x26>
    3cc8:	2c 9a       	sbi	0x05, 4	; 5
    3cca:	08 95       	ret

00003ccc <Set_GPIOInterruptSenseSelection>:
    3ccc:	2c 98       	cbi	0x05, 4	; 5
    3cce:	fc 01       	movw	r30, r24
    3cd0:	35 96       	adiw	r30, 0x05	; 5
    3cd2:	21 e0       	ldi	r18, 0x01	; 1
    3cd4:	30 e0       	ldi	r19, 0x00	; 0
    3cd6:	66 ee       	ldi	r22, 0xE6	; 230
    3cd8:	94 e1       	ldi	r25, 0x14	; 20
    3cda:	a9 01       	movw	r20, r18
    3cdc:	41 50       	subi	r20, 0x01	; 1
    3cde:	51 09       	sbc	r21, r1
    3ce0:	79 f0       	breq	.+30     	; 0x3d00 <Set_GPIOInterruptSenseSelection+0x34>
    3ce2:	41 30       	cpi	r20, 0x01	; 1
    3ce4:	51 05       	cpc	r21, r1
    3ce6:	89 f4       	brne	.+34     	; 0x3d0a <Set_GPIOInterruptSenseSelection+0x3e>
    3ce8:	9e bd       	out	0x2e, r25	; 46
    3cea:	0d b4       	in	r0, 0x2d	; 45
    3cec:	07 fe       	sbrs	r0, 7
    3cee:	fd cf       	rjmp	.-6      	; 0x3cea <Set_GPIOInterruptSenseSelection+0x1e>
    3cf0:	8e b5       	in	r24, 0x2e	; 46
    3cf2:	2f 5f       	subi	r18, 0xFF	; 255
    3cf4:	3f 4f       	sbci	r19, 0xFF	; 255
    3cf6:	31 97       	sbiw	r30, 0x01	; 1
    3cf8:	a9 01       	movw	r20, r18
    3cfa:	41 50       	subi	r20, 0x01	; 1
    3cfc:	51 09       	sbc	r21, r1
    3cfe:	89 f7       	brne	.-30     	; 0x3ce2 <Set_GPIOInterruptSenseSelection+0x16>
    3d00:	6e bd       	out	0x2e, r22	; 46
    3d02:	0d b4       	in	r0, 0x2d	; 45
    3d04:	07 fe       	sbrs	r0, 7
    3d06:	fd cf       	rjmp	.-6      	; 0x3d02 <Set_GPIOInterruptSenseSelection+0x36>
    3d08:	f3 cf       	rjmp	.-26     	; 0x3cf0 <Set_GPIOInterruptSenseSelection+0x24>
    3d0a:	80 81       	ld	r24, Z
    3d0c:	8e bd       	out	0x2e, r24	; 46
    3d0e:	0d b4       	in	r0, 0x2d	; 45
    3d10:	07 fe       	sbrs	r0, 7
    3d12:	fd cf       	rjmp	.-6      	; 0x3d0e <Set_GPIOInterruptSenseSelection+0x42>
    3d14:	8e b5       	in	r24, 0x2e	; 46
    3d16:	26 30       	cpi	r18, 0x06	; 6
    3d18:	31 05       	cpc	r19, r1
    3d1a:	59 f7       	brne	.-42     	; 0x3cf2 <Set_GPIOInterruptSenseSelection+0x26>
    3d1c:	2c 9a       	sbi	0x05, 4	; 5
    3d1e:	08 95       	ret

00003d20 <Set_GPIOInterruptMode>:
    3d20:	2c 98       	cbi	0x05, 4	; 5
    3d22:	fc 01       	movw	r30, r24
    3d24:	35 96       	adiw	r30, 0x05	; 5
    3d26:	21 e0       	ldi	r18, 0x01	; 1
    3d28:	30 e0       	ldi	r19, 0x00	; 0
    3d2a:	66 ee       	ldi	r22, 0xE6	; 230
    3d2c:	98 e1       	ldi	r25, 0x18	; 24
    3d2e:	a9 01       	movw	r20, r18
    3d30:	41 50       	subi	r20, 0x01	; 1
    3d32:	51 09       	sbc	r21, r1
    3d34:	79 f0       	breq	.+30     	; 0x3d54 <Set_GPIOInterruptMode+0x34>
    3d36:	41 30       	cpi	r20, 0x01	; 1
    3d38:	51 05       	cpc	r21, r1
    3d3a:	89 f4       	brne	.+34     	; 0x3d5e <Set_GPIOInterruptMode+0x3e>
    3d3c:	9e bd       	out	0x2e, r25	; 46
    3d3e:	0d b4       	in	r0, 0x2d	; 45
    3d40:	07 fe       	sbrs	r0, 7
    3d42:	fd cf       	rjmp	.-6      	; 0x3d3e <Set_GPIOInterruptMode+0x1e>
    3d44:	8e b5       	in	r24, 0x2e	; 46
    3d46:	2f 5f       	subi	r18, 0xFF	; 255
    3d48:	3f 4f       	sbci	r19, 0xFF	; 255
    3d4a:	31 97       	sbiw	r30, 0x01	; 1
    3d4c:	a9 01       	movw	r20, r18
    3d4e:	41 50       	subi	r20, 0x01	; 1
    3d50:	51 09       	sbc	r21, r1
    3d52:	89 f7       	brne	.-30     	; 0x3d36 <Set_GPIOInterruptMode+0x16>
    3d54:	6e bd       	out	0x2e, r22	; 46
    3d56:	0d b4       	in	r0, 0x2d	; 45
    3d58:	07 fe       	sbrs	r0, 7
    3d5a:	fd cf       	rjmp	.-6      	; 0x3d56 <Set_GPIOInterruptMode+0x36>
    3d5c:	f3 cf       	rjmp	.-26     	; 0x3d44 <Set_GPIOInterruptMode+0x24>
    3d5e:	80 81       	ld	r24, Z
    3d60:	8e bd       	out	0x2e, r24	; 46
    3d62:	0d b4       	in	r0, 0x2d	; 45
    3d64:	07 fe       	sbrs	r0, 7
    3d66:	fd cf       	rjmp	.-6      	; 0x3d62 <Set_GPIOInterruptMode+0x42>
    3d68:	8e b5       	in	r24, 0x2e	; 46
    3d6a:	26 30       	cpi	r18, 0x06	; 6
    3d6c:	31 05       	cpc	r19, r1
    3d6e:	59 f7       	brne	.-42     	; 0x3d46 <Set_GPIOInterruptMode+0x26>
    3d70:	2c 9a       	sbi	0x05, 4	; 5
    3d72:	08 95       	ret

00003d74 <Set_GPIOInterruptBoth_EdgeSelect>:
    3d74:	2c 98       	cbi	0x05, 4	; 5
    3d76:	fc 01       	movw	r30, r24
    3d78:	35 96       	adiw	r30, 0x05	; 5
    3d7a:	21 e0       	ldi	r18, 0x01	; 1
    3d7c:	30 e0       	ldi	r19, 0x00	; 0
    3d7e:	66 ee       	ldi	r22, 0xE6	; 230
    3d80:	9c e1       	ldi	r25, 0x1C	; 28
    3d82:	a9 01       	movw	r20, r18
    3d84:	41 50       	subi	r20, 0x01	; 1
    3d86:	51 09       	sbc	r21, r1
    3d88:	79 f0       	breq	.+30     	; 0x3da8 <Set_GPIOInterruptBoth_EdgeSelect+0x34>
    3d8a:	41 30       	cpi	r20, 0x01	; 1
    3d8c:	51 05       	cpc	r21, r1
    3d8e:	89 f4       	brne	.+34     	; 0x3db2 <Set_GPIOInterruptBoth_EdgeSelect+0x3e>
    3d90:	9e bd       	out	0x2e, r25	; 46
    3d92:	0d b4       	in	r0, 0x2d	; 45
    3d94:	07 fe       	sbrs	r0, 7
    3d96:	fd cf       	rjmp	.-6      	; 0x3d92 <Set_GPIOInterruptBoth_EdgeSelect+0x1e>
    3d98:	8e b5       	in	r24, 0x2e	; 46
    3d9a:	2f 5f       	subi	r18, 0xFF	; 255
    3d9c:	3f 4f       	sbci	r19, 0xFF	; 255
    3d9e:	31 97       	sbiw	r30, 0x01	; 1
    3da0:	a9 01       	movw	r20, r18
    3da2:	41 50       	subi	r20, 0x01	; 1
    3da4:	51 09       	sbc	r21, r1
    3da6:	89 f7       	brne	.-30     	; 0x3d8a <Set_GPIOInterruptBoth_EdgeSelect+0x16>
    3da8:	6e bd       	out	0x2e, r22	; 46
    3daa:	0d b4       	in	r0, 0x2d	; 45
    3dac:	07 fe       	sbrs	r0, 7
    3dae:	fd cf       	rjmp	.-6      	; 0x3daa <Set_GPIOInterruptBoth_EdgeSelect+0x36>
    3db0:	f3 cf       	rjmp	.-26     	; 0x3d98 <Set_GPIOInterruptBoth_EdgeSelect+0x24>
    3db2:	80 81       	ld	r24, Z
    3db4:	8e bd       	out	0x2e, r24	; 46
    3db6:	0d b4       	in	r0, 0x2d	; 45
    3db8:	07 fe       	sbrs	r0, 7
    3dba:	fd cf       	rjmp	.-6      	; 0x3db6 <Set_GPIOInterruptBoth_EdgeSelect+0x42>
    3dbc:	8e b5       	in	r24, 0x2e	; 46
    3dbe:	26 30       	cpi	r18, 0x06	; 6
    3dc0:	31 05       	cpc	r19, r1
    3dc2:	59 f7       	brne	.-42     	; 0x3d9a <Set_GPIOInterruptBoth_EdgeSelect+0x26>
    3dc4:	2c 9a       	sbi	0x05, 4	; 5
    3dc6:	08 95       	ret

00003dc8 <Set_GPIOInterruptLatchClear>:
    3dc8:	2c 98       	cbi	0x05, 4	; 5
    3dca:	fc 01       	movw	r30, r24
    3dcc:	35 96       	adiw	r30, 0x05	; 5
    3dce:	21 e0       	ldi	r18, 0x01	; 1
    3dd0:	30 e0       	ldi	r19, 0x00	; 0
    3dd2:	66 ee       	ldi	r22, 0xE6	; 230
    3dd4:	90 e2       	ldi	r25, 0x20	; 32
    3dd6:	a9 01       	movw	r20, r18
    3dd8:	41 50       	subi	r20, 0x01	; 1
    3dda:	51 09       	sbc	r21, r1
    3ddc:	79 f0       	breq	.+30     	; 0x3dfc <Set_GPIOInterruptLatchClear+0x34>
    3dde:	41 30       	cpi	r20, 0x01	; 1
    3de0:	51 05       	cpc	r21, r1
    3de2:	89 f4       	brne	.+34     	; 0x3e06 <Set_GPIOInterruptLatchClear+0x3e>
    3de4:	9e bd       	out	0x2e, r25	; 46
    3de6:	0d b4       	in	r0, 0x2d	; 45
    3de8:	07 fe       	sbrs	r0, 7
    3dea:	fd cf       	rjmp	.-6      	; 0x3de6 <Set_GPIOInterruptLatchClear+0x1e>
    3dec:	8e b5       	in	r24, 0x2e	; 46
    3dee:	2f 5f       	subi	r18, 0xFF	; 255
    3df0:	3f 4f       	sbci	r19, 0xFF	; 255
    3df2:	31 97       	sbiw	r30, 0x01	; 1
    3df4:	a9 01       	movw	r20, r18
    3df6:	41 50       	subi	r20, 0x01	; 1
    3df8:	51 09       	sbc	r21, r1
    3dfa:	89 f7       	brne	.-30     	; 0x3dde <Set_GPIOInterruptLatchClear+0x16>
    3dfc:	6e bd       	out	0x2e, r22	; 46
    3dfe:	0d b4       	in	r0, 0x2d	; 45
    3e00:	07 fe       	sbrs	r0, 7
    3e02:	fd cf       	rjmp	.-6      	; 0x3dfe <Set_GPIOInterruptLatchClear+0x36>
    3e04:	f3 cf       	rjmp	.-26     	; 0x3dec <Set_GPIOInterruptLatchClear+0x24>
    3e06:	80 81       	ld	r24, Z
    3e08:	8e bd       	out	0x2e, r24	; 46
    3e0a:	0d b4       	in	r0, 0x2d	; 45
    3e0c:	07 fe       	sbrs	r0, 7
    3e0e:	fd cf       	rjmp	.-6      	; 0x3e0a <Set_GPIOInterruptLatchClear+0x42>
    3e10:	8e b5       	in	r24, 0x2e	; 46
    3e12:	26 30       	cpi	r18, 0x06	; 6
    3e14:	31 05       	cpc	r19, r1
    3e16:	59 f7       	brne	.-42     	; 0x3dee <Set_GPIOInterruptLatchClear+0x26>
    3e18:	2c 9a       	sbi	0x05, 4	; 5
    3e1a:	08 95       	ret

00003e1c <Set_GPIOInterruptDebounceEnable>:
    3e1c:	2c 98       	cbi	0x05, 4	; 5
    3e1e:	fc 01       	movw	r30, r24
    3e20:	35 96       	adiw	r30, 0x05	; 5
    3e22:	21 e0       	ldi	r18, 0x01	; 1
    3e24:	30 e0       	ldi	r19, 0x00	; 0
    3e26:	66 ee       	ldi	r22, 0xE6	; 230
    3e28:	94 e2       	ldi	r25, 0x24	; 36
    3e2a:	a9 01       	movw	r20, r18
    3e2c:	41 50       	subi	r20, 0x01	; 1
    3e2e:	51 09       	sbc	r21, r1
    3e30:	79 f0       	breq	.+30     	; 0x3e50 <Set_GPIOInterruptDebounceEnable+0x34>
    3e32:	41 30       	cpi	r20, 0x01	; 1
    3e34:	51 05       	cpc	r21, r1
    3e36:	89 f4       	brne	.+34     	; 0x3e5a <Set_GPIOInterruptDebounceEnable+0x3e>
    3e38:	9e bd       	out	0x2e, r25	; 46
    3e3a:	0d b4       	in	r0, 0x2d	; 45
    3e3c:	07 fe       	sbrs	r0, 7
    3e3e:	fd cf       	rjmp	.-6      	; 0x3e3a <Set_GPIOInterruptDebounceEnable+0x1e>
    3e40:	8e b5       	in	r24, 0x2e	; 46
    3e42:	2f 5f       	subi	r18, 0xFF	; 255
    3e44:	3f 4f       	sbci	r19, 0xFF	; 255
    3e46:	31 97       	sbiw	r30, 0x01	; 1
    3e48:	a9 01       	movw	r20, r18
    3e4a:	41 50       	subi	r20, 0x01	; 1
    3e4c:	51 09       	sbc	r21, r1
    3e4e:	89 f7       	brne	.-30     	; 0x3e32 <Set_GPIOInterruptDebounceEnable+0x16>
    3e50:	6e bd       	out	0x2e, r22	; 46
    3e52:	0d b4       	in	r0, 0x2d	; 45
    3e54:	07 fe       	sbrs	r0, 7
    3e56:	fd cf       	rjmp	.-6      	; 0x3e52 <Set_GPIOInterruptDebounceEnable+0x36>
    3e58:	f3 cf       	rjmp	.-26     	; 0x3e40 <Set_GPIOInterruptDebounceEnable+0x24>
    3e5a:	80 81       	ld	r24, Z
    3e5c:	8e bd       	out	0x2e, r24	; 46
    3e5e:	0d b4       	in	r0, 0x2d	; 45
    3e60:	07 fe       	sbrs	r0, 7
    3e62:	fd cf       	rjmp	.-6      	; 0x3e5e <Set_GPIOInterruptDebounceEnable+0x42>
    3e64:	8e b5       	in	r24, 0x2e	; 46
    3e66:	26 30       	cpi	r18, 0x06	; 6
    3e68:	31 05       	cpc	r19, r1
    3e6a:	59 f7       	brne	.-42     	; 0x3e42 <Set_GPIOInterruptDebounceEnable+0x26>
    3e6c:	2c 9a       	sbi	0x05, 4	; 5
    3e6e:	08 95       	ret

00003e70 <Set_GPIORawState>:
    3e70:	2c 98       	cbi	0x05, 4	; 5
    3e72:	fc 01       	movw	r30, r24
    3e74:	35 96       	adiw	r30, 0x05	; 5
    3e76:	21 e0       	ldi	r18, 0x01	; 1
    3e78:	30 e0       	ldi	r19, 0x00	; 0
    3e7a:	66 ee       	ldi	r22, 0xE6	; 230
    3e7c:	98 e2       	ldi	r25, 0x28	; 40
    3e7e:	a9 01       	movw	r20, r18
    3e80:	41 50       	subi	r20, 0x01	; 1
    3e82:	51 09       	sbc	r21, r1
    3e84:	79 f0       	breq	.+30     	; 0x3ea4 <Set_GPIORawState+0x34>
    3e86:	41 30       	cpi	r20, 0x01	; 1
    3e88:	51 05       	cpc	r21, r1
    3e8a:	89 f4       	brne	.+34     	; 0x3eae <Set_GPIORawState+0x3e>
    3e8c:	9e bd       	out	0x2e, r25	; 46
    3e8e:	0d b4       	in	r0, 0x2d	; 45
    3e90:	07 fe       	sbrs	r0, 7
    3e92:	fd cf       	rjmp	.-6      	; 0x3e8e <Set_GPIORawState+0x1e>
    3e94:	8e b5       	in	r24, 0x2e	; 46
    3e96:	2f 5f       	subi	r18, 0xFF	; 255
    3e98:	3f 4f       	sbci	r19, 0xFF	; 255
    3e9a:	31 97       	sbiw	r30, 0x01	; 1
    3e9c:	a9 01       	movw	r20, r18
    3e9e:	41 50       	subi	r20, 0x01	; 1
    3ea0:	51 09       	sbc	r21, r1
    3ea2:	89 f7       	brne	.-30     	; 0x3e86 <Set_GPIORawState+0x16>
    3ea4:	6e bd       	out	0x2e, r22	; 46
    3ea6:	0d b4       	in	r0, 0x2d	; 45
    3ea8:	07 fe       	sbrs	r0, 7
    3eaa:	fd cf       	rjmp	.-6      	; 0x3ea6 <Set_GPIORawState+0x36>
    3eac:	f3 cf       	rjmp	.-26     	; 0x3e94 <Set_GPIORawState+0x24>
    3eae:	80 81       	ld	r24, Z
    3eb0:	8e bd       	out	0x2e, r24	; 46
    3eb2:	0d b4       	in	r0, 0x2d	; 45
    3eb4:	07 fe       	sbrs	r0, 7
    3eb6:	fd cf       	rjmp	.-6      	; 0x3eb2 <Set_GPIORawState+0x42>
    3eb8:	8e b5       	in	r24, 0x2e	; 46
    3eba:	26 30       	cpi	r18, 0x06	; 6
    3ebc:	31 05       	cpc	r19, r1
    3ebe:	59 f7       	brne	.-42     	; 0x3e96 <Set_GPIORawState+0x26>
    3ec0:	2c 9a       	sbi	0x05, 4	; 5
    3ec2:	08 95       	ret

00003ec4 <Set_DigitalReceiverConfiguration>:
    3ec4:	bf 92       	push	r11
    3ec6:	cf 92       	push	r12
    3ec8:	df 92       	push	r13
    3eca:	ef 92       	push	r14
    3ecc:	ff 92       	push	r15
    3ece:	0f 93       	push	r16
    3ed0:	1f 93       	push	r17
    3ed2:	cf 93       	push	r28
    3ed4:	df 93       	push	r29
    3ed6:	2c 98       	cbi	0x05, 4	; 5
    3ed8:	ec 01       	movw	r28, r24
    3eda:	23 96       	adiw	r28, 0x03	; 3
    3edc:	e1 e0       	ldi	r30, 0x01	; 1
    3ede:	f0 e0       	ldi	r31, 0x00	; 0
    3ee0:	87 ee       	ldi	r24, 0xE7	; 231
    3ee2:	b8 2e       	mov	r11, r24
    3ee4:	92 e0       	ldi	r25, 0x02	; 2
    3ee6:	df 01       	movw	r26, r30
    3ee8:	11 97       	sbiw	r26, 0x01	; 1
    3eea:	61 f0       	breq	.+24     	; 0x3f04 <Set_DigitalReceiverConfiguration+0x40>
    3eec:	11 97       	sbiw	r26, 0x01	; 1
    3eee:	79 f4       	brne	.+30     	; 0x3f0e <Set_DigitalReceiverConfiguration+0x4a>
    3ef0:	9e bd       	out	0x2e, r25	; 46
    3ef2:	0d b4       	in	r0, 0x2d	; 45
    3ef4:	07 fe       	sbrs	r0, 7
    3ef6:	fd cf       	rjmp	.-6      	; 0x3ef2 <Set_DigitalReceiverConfiguration+0x2e>
    3ef8:	8e b5       	in	r24, 0x2e	; 46
    3efa:	31 96       	adiw	r30, 0x01	; 1
    3efc:	21 97       	sbiw	r28, 0x01	; 1
    3efe:	df 01       	movw	r26, r30
    3f00:	11 97       	sbiw	r26, 0x01	; 1
    3f02:	a1 f7       	brne	.-24     	; 0x3eec <Set_DigitalReceiverConfiguration+0x28>
    3f04:	be bc       	out	0x2e, r11	; 46
    3f06:	0d b4       	in	r0, 0x2d	; 45
    3f08:	07 fe       	sbrs	r0, 7
    3f0a:	fd cf       	rjmp	.-6      	; 0x3f06 <Set_DigitalReceiverConfiguration+0x42>
    3f0c:	f5 cf       	rjmp	.-22     	; 0x3ef8 <Set_DigitalReceiverConfiguration+0x34>
    3f0e:	88 81       	ld	r24, Y
    3f10:	8e bd       	out	0x2e, r24	; 46
    3f12:	0d b4       	in	r0, 0x2d	; 45
    3f14:	07 fe       	sbrs	r0, 7
    3f16:	fd cf       	rjmp	.-6      	; 0x3f12 <Set_DigitalReceiverConfiguration+0x4e>
    3f18:	8e b5       	in	r24, 0x2e	; 46
    3f1a:	e4 30       	cpi	r30, 0x04	; 4
    3f1c:	f1 05       	cpc	r31, r1
    3f1e:	69 f7       	brne	.-38     	; 0x3efa <Set_DigitalReceiverConfiguration+0x36>
    3f20:	2c 9a       	sbi	0x05, 4	; 5
    3f22:	2c 98       	cbi	0x05, 4	; 5
    3f24:	db 01       	movw	r26, r22
    3f26:	13 96       	adiw	r26, 0x03	; 3
    3f28:	81 e0       	ldi	r24, 0x01	; 1
    3f2a:	90 e0       	ldi	r25, 0x00	; 0
    3f2c:	c7 ee       	ldi	r28, 0xE7	; 231
    3f2e:	74 e0       	ldi	r23, 0x04	; 4
    3f30:	fc 01       	movw	r30, r24
    3f32:	31 97       	sbiw	r30, 0x01	; 1
    3f34:	61 f0       	breq	.+24     	; 0x3f4e <Set_DigitalReceiverConfiguration+0x8a>
    3f36:	31 97       	sbiw	r30, 0x01	; 1
    3f38:	79 f4       	brne	.+30     	; 0x3f58 <Set_DigitalReceiverConfiguration+0x94>
    3f3a:	7e bd       	out	0x2e, r23	; 46
    3f3c:	0d b4       	in	r0, 0x2d	; 45
    3f3e:	07 fe       	sbrs	r0, 7
    3f40:	fd cf       	rjmp	.-6      	; 0x3f3c <Set_DigitalReceiverConfiguration+0x78>
    3f42:	6e b5       	in	r22, 0x2e	; 46
    3f44:	01 96       	adiw	r24, 0x01	; 1
    3f46:	11 97       	sbiw	r26, 0x01	; 1
    3f48:	fc 01       	movw	r30, r24
    3f4a:	31 97       	sbiw	r30, 0x01	; 1
    3f4c:	a1 f7       	brne	.-24     	; 0x3f36 <Set_DigitalReceiverConfiguration+0x72>
    3f4e:	ce bd       	out	0x2e, r28	; 46
    3f50:	0d b4       	in	r0, 0x2d	; 45
    3f52:	07 fe       	sbrs	r0, 7
    3f54:	fd cf       	rjmp	.-6      	; 0x3f50 <Set_DigitalReceiverConfiguration+0x8c>
    3f56:	f5 cf       	rjmp	.-22     	; 0x3f42 <Set_DigitalReceiverConfiguration+0x7e>
    3f58:	6c 91       	ld	r22, X
    3f5a:	6e bd       	out	0x2e, r22	; 46
    3f5c:	0d b4       	in	r0, 0x2d	; 45
    3f5e:	07 fe       	sbrs	r0, 7
    3f60:	fd cf       	rjmp	.-6      	; 0x3f5c <Set_DigitalReceiverConfiguration+0x98>
    3f62:	6e b5       	in	r22, 0x2e	; 46
    3f64:	84 30       	cpi	r24, 0x04	; 4
    3f66:	91 05       	cpc	r25, r1
    3f68:	69 f7       	brne	.-38     	; 0x3f44 <Set_DigitalReceiverConfiguration+0x80>
    3f6a:	2c 9a       	sbi	0x05, 4	; 5
    3f6c:	2c 98       	cbi	0x05, 4	; 5
    3f6e:	fa 01       	movw	r30, r20
    3f70:	33 96       	adiw	r30, 0x03	; 3
    3f72:	81 e0       	ldi	r24, 0x01	; 1
    3f74:	90 e0       	ldi	r25, 0x00	; 0
    3f76:	a7 ee       	ldi	r26, 0xE7	; 231
    3f78:	56 e0       	ldi	r21, 0x06	; 6
    3f7a:	bc 01       	movw	r22, r24
    3f7c:	61 50       	subi	r22, 0x01	; 1
    3f7e:	71 09       	sbc	r23, r1
    3f80:	71 f0       	breq	.+28     	; 0x3f9e <Set_DigitalReceiverConfiguration+0xda>
    3f82:	61 30       	cpi	r22, 0x01	; 1
    3f84:	71 05       	cpc	r23, r1
    3f86:	81 f4       	brne	.+32     	; 0x3fa8 <Set_DigitalReceiverConfiguration+0xe4>
    3f88:	5e bd       	out	0x2e, r21	; 46
    3f8a:	0d b4       	in	r0, 0x2d	; 45
    3f8c:	07 fe       	sbrs	r0, 7
    3f8e:	fd cf       	rjmp	.-6      	; 0x3f8a <Set_DigitalReceiverConfiguration+0xc6>
    3f90:	4e b5       	in	r20, 0x2e	; 46
    3f92:	01 96       	adiw	r24, 0x01	; 1
    3f94:	31 97       	sbiw	r30, 0x01	; 1
    3f96:	bc 01       	movw	r22, r24
    3f98:	61 50       	subi	r22, 0x01	; 1
    3f9a:	71 09       	sbc	r23, r1
    3f9c:	91 f7       	brne	.-28     	; 0x3f82 <Set_DigitalReceiverConfiguration+0xbe>
    3f9e:	ae bd       	out	0x2e, r26	; 46
    3fa0:	0d b4       	in	r0, 0x2d	; 45
    3fa2:	07 fe       	sbrs	r0, 7
    3fa4:	fd cf       	rjmp	.-6      	; 0x3fa0 <Set_DigitalReceiverConfiguration+0xdc>
    3fa6:	f4 cf       	rjmp	.-24     	; 0x3f90 <Set_DigitalReceiverConfiguration+0xcc>
    3fa8:	40 81       	ld	r20, Z
    3faa:	4e bd       	out	0x2e, r20	; 46
    3fac:	0d b4       	in	r0, 0x2d	; 45
    3fae:	07 fe       	sbrs	r0, 7
    3fb0:	fd cf       	rjmp	.-6      	; 0x3fac <Set_DigitalReceiverConfiguration+0xe8>
    3fb2:	4e b5       	in	r20, 0x2e	; 46
    3fb4:	84 30       	cpi	r24, 0x04	; 4
    3fb6:	91 05       	cpc	r25, r1
    3fb8:	61 f7       	brne	.-40     	; 0x3f92 <Set_DigitalReceiverConfiguration+0xce>
    3fba:	2c 9a       	sbi	0x05, 4	; 5
    3fbc:	2c 98       	cbi	0x05, 4	; 5
    3fbe:	f9 01       	movw	r30, r18
    3fc0:	35 96       	adiw	r30, 0x05	; 5
    3fc2:	81 e0       	ldi	r24, 0x01	; 1
    3fc4:	90 e0       	ldi	r25, 0x00	; 0
    3fc6:	67 ee       	ldi	r22, 0xE7	; 231
    3fc8:	38 e0       	ldi	r19, 0x08	; 8
    3fca:	ac 01       	movw	r20, r24
    3fcc:	41 50       	subi	r20, 0x01	; 1
    3fce:	51 09       	sbc	r21, r1
    3fd0:	71 f0       	breq	.+28     	; 0x3fee <Set_DigitalReceiverConfiguration+0x12a>
    3fd2:	41 30       	cpi	r20, 0x01	; 1
    3fd4:	51 05       	cpc	r21, r1
    3fd6:	81 f4       	brne	.+32     	; 0x3ff8 <Set_DigitalReceiverConfiguration+0x134>
    3fd8:	3e bd       	out	0x2e, r19	; 46
    3fda:	0d b4       	in	r0, 0x2d	; 45
    3fdc:	07 fe       	sbrs	r0, 7
    3fde:	fd cf       	rjmp	.-6      	; 0x3fda <Set_DigitalReceiverConfiguration+0x116>
    3fe0:	2e b5       	in	r18, 0x2e	; 46
    3fe2:	01 96       	adiw	r24, 0x01	; 1
    3fe4:	31 97       	sbiw	r30, 0x01	; 1
    3fe6:	ac 01       	movw	r20, r24
    3fe8:	41 50       	subi	r20, 0x01	; 1
    3fea:	51 09       	sbc	r21, r1
    3fec:	91 f7       	brne	.-28     	; 0x3fd2 <Set_DigitalReceiverConfiguration+0x10e>
    3fee:	6e bd       	out	0x2e, r22	; 46
    3ff0:	0d b4       	in	r0, 0x2d	; 45
    3ff2:	07 fe       	sbrs	r0, 7
    3ff4:	fd cf       	rjmp	.-6      	; 0x3ff0 <Set_DigitalReceiverConfiguration+0x12c>
    3ff6:	f4 cf       	rjmp	.-24     	; 0x3fe0 <Set_DigitalReceiverConfiguration+0x11c>
    3ff8:	20 81       	ld	r18, Z
    3ffa:	2e bd       	out	0x2e, r18	; 46
    3ffc:	0d b4       	in	r0, 0x2d	; 45
    3ffe:	07 fe       	sbrs	r0, 7
    4000:	fd cf       	rjmp	.-6      	; 0x3ffc <Set_DigitalReceiverConfiguration+0x138>
    4002:	2e b5       	in	r18, 0x2e	; 46
    4004:	86 30       	cpi	r24, 0x06	; 6
    4006:	91 05       	cpc	r25, r1
    4008:	61 f7       	brne	.-40     	; 0x3fe2 <Set_DigitalReceiverConfiguration+0x11e>
    400a:	2c 9a       	sbi	0x05, 4	; 5
    400c:	2c 98       	cbi	0x05, 4	; 5
    400e:	f8 01       	movw	r30, r16
    4010:	33 96       	adiw	r30, 0x03	; 3
    4012:	81 e0       	ldi	r24, 0x01	; 1
    4014:	90 e0       	ldi	r25, 0x00	; 0
    4016:	57 ee       	ldi	r21, 0xE7	; 231
    4018:	40 e2       	ldi	r20, 0x20	; 32
    401a:	9c 01       	movw	r18, r24
    401c:	21 50       	subi	r18, 0x01	; 1
    401e:	31 09       	sbc	r19, r1
    4020:	71 f0       	breq	.+28     	; 0x403e <Set_DigitalReceiverConfiguration+0x17a>
    4022:	21 30       	cpi	r18, 0x01	; 1
    4024:	31 05       	cpc	r19, r1
    4026:	81 f4       	brne	.+32     	; 0x4048 <Set_DigitalReceiverConfiguration+0x184>
    4028:	4e bd       	out	0x2e, r20	; 46
    402a:	0d b4       	in	r0, 0x2d	; 45
    402c:	07 fe       	sbrs	r0, 7
    402e:	fd cf       	rjmp	.-6      	; 0x402a <Set_DigitalReceiverConfiguration+0x166>
    4030:	2e b5       	in	r18, 0x2e	; 46
    4032:	01 96       	adiw	r24, 0x01	; 1
    4034:	31 97       	sbiw	r30, 0x01	; 1
    4036:	9c 01       	movw	r18, r24
    4038:	21 50       	subi	r18, 0x01	; 1
    403a:	31 09       	sbc	r19, r1
    403c:	91 f7       	brne	.-28     	; 0x4022 <Set_DigitalReceiverConfiguration+0x15e>
    403e:	5e bd       	out	0x2e, r21	; 46
    4040:	0d b4       	in	r0, 0x2d	; 45
    4042:	07 fe       	sbrs	r0, 7
    4044:	fd cf       	rjmp	.-6      	; 0x4040 <Set_DigitalReceiverConfiguration+0x17c>
    4046:	f4 cf       	rjmp	.-24     	; 0x4030 <Set_DigitalReceiverConfiguration+0x16c>
    4048:	20 81       	ld	r18, Z
    404a:	2e bd       	out	0x2e, r18	; 46
    404c:	0d b4       	in	r0, 0x2d	; 45
    404e:	07 fe       	sbrs	r0, 7
    4050:	fd cf       	rjmp	.-6      	; 0x404c <Set_DigitalReceiverConfiguration+0x188>
    4052:	2e b5       	in	r18, 0x2e	; 46
    4054:	84 30       	cpi	r24, 0x04	; 4
    4056:	91 05       	cpc	r25, r1
    4058:	61 f7       	brne	.-40     	; 0x4032 <Set_DigitalReceiverConfiguration+0x16e>
    405a:	2c 9a       	sbi	0x05, 4	; 5
    405c:	2c 98       	cbi	0x05, 4	; 5
    405e:	f7 01       	movw	r30, r14
    4060:	33 96       	adiw	r30, 0x03	; 3
    4062:	81 e0       	ldi	r24, 0x01	; 1
    4064:	90 e0       	ldi	r25, 0x00	; 0
    4066:	57 ee       	ldi	r21, 0xE7	; 231
    4068:	44 e2       	ldi	r20, 0x24	; 36
    406a:	9c 01       	movw	r18, r24
    406c:	21 50       	subi	r18, 0x01	; 1
    406e:	31 09       	sbc	r19, r1
    4070:	71 f0       	breq	.+28     	; 0x408e <Set_DigitalReceiverConfiguration+0x1ca>
    4072:	21 30       	cpi	r18, 0x01	; 1
    4074:	31 05       	cpc	r19, r1
    4076:	81 f4       	brne	.+32     	; 0x4098 <Set_DigitalReceiverConfiguration+0x1d4>
    4078:	4e bd       	out	0x2e, r20	; 46
    407a:	0d b4       	in	r0, 0x2d	; 45
    407c:	07 fe       	sbrs	r0, 7
    407e:	fd cf       	rjmp	.-6      	; 0x407a <Set_DigitalReceiverConfiguration+0x1b6>
    4080:	2e b5       	in	r18, 0x2e	; 46
    4082:	01 96       	adiw	r24, 0x01	; 1
    4084:	31 97       	sbiw	r30, 0x01	; 1
    4086:	9c 01       	movw	r18, r24
    4088:	21 50       	subi	r18, 0x01	; 1
    408a:	31 09       	sbc	r19, r1
    408c:	91 f7       	brne	.-28     	; 0x4072 <Set_DigitalReceiverConfiguration+0x1ae>
    408e:	5e bd       	out	0x2e, r21	; 46
    4090:	0d b4       	in	r0, 0x2d	; 45
    4092:	07 fe       	sbrs	r0, 7
    4094:	fd cf       	rjmp	.-6      	; 0x4090 <Set_DigitalReceiverConfiguration+0x1cc>
    4096:	f4 cf       	rjmp	.-24     	; 0x4080 <Set_DigitalReceiverConfiguration+0x1bc>
    4098:	20 81       	ld	r18, Z
    409a:	2e bd       	out	0x2e, r18	; 46
    409c:	0d b4       	in	r0, 0x2d	; 45
    409e:	07 fe       	sbrs	r0, 7
    40a0:	fd cf       	rjmp	.-6      	; 0x409c <Set_DigitalReceiverConfiguration+0x1d8>
    40a2:	2e b5       	in	r18, 0x2e	; 46
    40a4:	84 30       	cpi	r24, 0x04	; 4
    40a6:	91 05       	cpc	r25, r1
    40a8:	61 f7       	brne	.-40     	; 0x4082 <Set_DigitalReceiverConfiguration+0x1be>
    40aa:	2c 9a       	sbi	0x05, 4	; 5
    40ac:	2c 98       	cbi	0x05, 4	; 5
    40ae:	f6 01       	movw	r30, r12
    40b0:	33 96       	adiw	r30, 0x03	; 3
    40b2:	81 e0       	ldi	r24, 0x01	; 1
    40b4:	90 e0       	ldi	r25, 0x00	; 0
    40b6:	57 ee       	ldi	r21, 0xE7	; 231
    40b8:	46 e2       	ldi	r20, 0x26	; 38
    40ba:	9c 01       	movw	r18, r24
    40bc:	21 50       	subi	r18, 0x01	; 1
    40be:	31 09       	sbc	r19, r1
    40c0:	71 f0       	breq	.+28     	; 0x40de <Set_DigitalReceiverConfiguration+0x21a>
    40c2:	21 30       	cpi	r18, 0x01	; 1
    40c4:	31 05       	cpc	r19, r1
    40c6:	81 f4       	brne	.+32     	; 0x40e8 <Set_DigitalReceiverConfiguration+0x224>
    40c8:	4e bd       	out	0x2e, r20	; 46
    40ca:	0d b4       	in	r0, 0x2d	; 45
    40cc:	07 fe       	sbrs	r0, 7
    40ce:	fd cf       	rjmp	.-6      	; 0x40ca <Set_DigitalReceiverConfiguration+0x206>
    40d0:	2e b5       	in	r18, 0x2e	; 46
    40d2:	01 96       	adiw	r24, 0x01	; 1
    40d4:	31 97       	sbiw	r30, 0x01	; 1
    40d6:	9c 01       	movw	r18, r24
    40d8:	21 50       	subi	r18, 0x01	; 1
    40da:	31 09       	sbc	r19, r1
    40dc:	91 f7       	brne	.-28     	; 0x40c2 <Set_DigitalReceiverConfiguration+0x1fe>
    40de:	5e bd       	out	0x2e, r21	; 46
    40e0:	0d b4       	in	r0, 0x2d	; 45
    40e2:	07 fe       	sbrs	r0, 7
    40e4:	fd cf       	rjmp	.-6      	; 0x40e0 <Set_DigitalReceiverConfiguration+0x21c>
    40e6:	f4 cf       	rjmp	.-24     	; 0x40d0 <Set_DigitalReceiverConfiguration+0x20c>
    40e8:	20 81       	ld	r18, Z
    40ea:	2e bd       	out	0x2e, r18	; 46
    40ec:	0d b4       	in	r0, 0x2d	; 45
    40ee:	07 fe       	sbrs	r0, 7
    40f0:	fd cf       	rjmp	.-6      	; 0x40ec <Set_DigitalReceiverConfiguration+0x228>
    40f2:	2e b5       	in	r18, 0x2e	; 46
    40f4:	84 30       	cpi	r24, 0x04	; 4
    40f6:	91 05       	cpc	r25, r1
    40f8:	61 f7       	brne	.-40     	; 0x40d2 <Set_DigitalReceiverConfiguration+0x20e>
    40fa:	2c 9a       	sbi	0x05, 4	; 5
    40fc:	df 91       	pop	r29
    40fe:	cf 91       	pop	r28
    4100:	1f 91       	pop	r17
    4102:	0f 91       	pop	r16
    4104:	ff 90       	pop	r15
    4106:	ef 90       	pop	r14
    4108:	df 90       	pop	r13
    410a:	cf 90       	pop	r12
    410c:	bf 90       	pop	r11
    410e:	08 95       	ret

00004110 <Set_AnalogRFConfigurationBlock>:
    4110:	ef 92       	push	r14
    4112:	ff 92       	push	r15
    4114:	0f 93       	push	r16
    4116:	1f 93       	push	r17
    4118:	cf 93       	push	r28
    411a:	df 93       	push	r29
    411c:	2c 98       	cbi	0x05, 4	; 5
    411e:	ec 01       	movw	r28, r24
    4120:	25 96       	adiw	r28, 0x05	; 5
    4122:	e1 e0       	ldi	r30, 0x01	; 1
    4124:	f0 e0       	ldi	r31, 0x00	; 0
    4126:	98 ee       	ldi	r25, 0xE8	; 232
    4128:	df 01       	movw	r26, r30
    412a:	11 97       	sbiw	r26, 0x01	; 1
    412c:	61 f0       	breq	.+24     	; 0x4146 <Set_AnalogRFConfigurationBlock+0x36>
    412e:	11 97       	sbiw	r26, 0x01	; 1
    4130:	79 f4       	brne	.+30     	; 0x4150 <Set_AnalogRFConfigurationBlock+0x40>
    4132:	1e bc       	out	0x2e, r1	; 46
    4134:	0d b4       	in	r0, 0x2d	; 45
    4136:	07 fe       	sbrs	r0, 7
    4138:	fd cf       	rjmp	.-6      	; 0x4134 <Set_AnalogRFConfigurationBlock+0x24>
    413a:	8e b5       	in	r24, 0x2e	; 46
    413c:	31 96       	adiw	r30, 0x01	; 1
    413e:	21 97       	sbiw	r28, 0x01	; 1
    4140:	df 01       	movw	r26, r30
    4142:	11 97       	sbiw	r26, 0x01	; 1
    4144:	a1 f7       	brne	.-24     	; 0x412e <Set_AnalogRFConfigurationBlock+0x1e>
    4146:	9e bd       	out	0x2e, r25	; 46
    4148:	0d b4       	in	r0, 0x2d	; 45
    414a:	07 fe       	sbrs	r0, 7
    414c:	fd cf       	rjmp	.-6      	; 0x4148 <Set_AnalogRFConfigurationBlock+0x38>
    414e:	f5 cf       	rjmp	.-22     	; 0x413a <Set_AnalogRFConfigurationBlock+0x2a>
    4150:	88 81       	ld	r24, Y
    4152:	8e bd       	out	0x2e, r24	; 46
    4154:	0d b4       	in	r0, 0x2d	; 45
    4156:	07 fe       	sbrs	r0, 7
    4158:	fd cf       	rjmp	.-6      	; 0x4154 <Set_AnalogRFConfigurationBlock+0x44>
    415a:	8e b5       	in	r24, 0x2e	; 46
    415c:	e6 30       	cpi	r30, 0x06	; 6
    415e:	f1 05       	cpc	r31, r1
    4160:	69 f7       	brne	.-38     	; 0x413c <Set_AnalogRFConfigurationBlock+0x2c>
    4162:	2c 9a       	sbi	0x05, 4	; 5
    4164:	2c 98       	cbi	0x05, 4	; 5
    4166:	eb 01       	movw	r28, r22
    4168:	22 96       	adiw	r28, 0x02	; 2
    416a:	81 e0       	ldi	r24, 0x01	; 1
    416c:	90 e0       	ldi	r25, 0x00	; 0
    416e:	b8 ee       	ldi	r27, 0xE8	; 232
    4170:	ab e0       	ldi	r26, 0x0B	; 11
    4172:	fc 01       	movw	r30, r24
    4174:	31 97       	sbiw	r30, 0x01	; 1
    4176:	61 f0       	breq	.+24     	; 0x4190 <Set_AnalogRFConfigurationBlock+0x80>
    4178:	31 97       	sbiw	r30, 0x01	; 1
    417a:	79 f4       	brne	.+30     	; 0x419a <Set_AnalogRFConfigurationBlock+0x8a>
    417c:	ae bd       	out	0x2e, r26	; 46
    417e:	0d b4       	in	r0, 0x2d	; 45
    4180:	07 fe       	sbrs	r0, 7
    4182:	fd cf       	rjmp	.-6      	; 0x417e <Set_AnalogRFConfigurationBlock+0x6e>
    4184:	ee b5       	in	r30, 0x2e	; 46
    4186:	01 96       	adiw	r24, 0x01	; 1
    4188:	21 97       	sbiw	r28, 0x01	; 1
    418a:	fc 01       	movw	r30, r24
    418c:	31 97       	sbiw	r30, 0x01	; 1
    418e:	a1 f7       	brne	.-24     	; 0x4178 <Set_AnalogRFConfigurationBlock+0x68>
    4190:	be bd       	out	0x2e, r27	; 46
    4192:	0d b4       	in	r0, 0x2d	; 45
    4194:	07 fe       	sbrs	r0, 7
    4196:	fd cf       	rjmp	.-6      	; 0x4192 <Set_AnalogRFConfigurationBlock+0x82>
    4198:	f5 cf       	rjmp	.-22     	; 0x4184 <Set_AnalogRFConfigurationBlock+0x74>
    419a:	e8 81       	ld	r30, Y
    419c:	ee bd       	out	0x2e, r30	; 46
    419e:	0d b4       	in	r0, 0x2d	; 45
    41a0:	07 fe       	sbrs	r0, 7
    41a2:	fd cf       	rjmp	.-6      	; 0x419e <Set_AnalogRFConfigurationBlock+0x8e>
    41a4:	ee b5       	in	r30, 0x2e	; 46
    41a6:	83 30       	cpi	r24, 0x03	; 3
    41a8:	91 05       	cpc	r25, r1
    41aa:	69 f7       	brne	.-38     	; 0x4186 <Set_AnalogRFConfigurationBlock+0x76>
    41ac:	2c 9a       	sbi	0x05, 4	; 5
    41ae:	2c 98       	cbi	0x05, 4	; 5
    41b0:	fa 01       	movw	r30, r20
    41b2:	34 96       	adiw	r30, 0x04	; 4
    41b4:	81 e0       	ldi	r24, 0x01	; 1
    41b6:	90 e0       	ldi	r25, 0x00	; 0
    41b8:	a8 ee       	ldi	r26, 0xE8	; 232
    41ba:	5c e0       	ldi	r21, 0x0C	; 12
    41bc:	bc 01       	movw	r22, r24
    41be:	61 50       	subi	r22, 0x01	; 1
    41c0:	71 09       	sbc	r23, r1
    41c2:	71 f0       	breq	.+28     	; 0x41e0 <Set_AnalogRFConfigurationBlock+0xd0>
    41c4:	61 30       	cpi	r22, 0x01	; 1
    41c6:	71 05       	cpc	r23, r1
    41c8:	81 f4       	brne	.+32     	; 0x41ea <Set_AnalogRFConfigurationBlock+0xda>
    41ca:	5e bd       	out	0x2e, r21	; 46
    41cc:	0d b4       	in	r0, 0x2d	; 45
    41ce:	07 fe       	sbrs	r0, 7
    41d0:	fd cf       	rjmp	.-6      	; 0x41cc <Set_AnalogRFConfigurationBlock+0xbc>
    41d2:	4e b5       	in	r20, 0x2e	; 46
    41d4:	01 96       	adiw	r24, 0x01	; 1
    41d6:	31 97       	sbiw	r30, 0x01	; 1
    41d8:	bc 01       	movw	r22, r24
    41da:	61 50       	subi	r22, 0x01	; 1
    41dc:	71 09       	sbc	r23, r1
    41de:	91 f7       	brne	.-28     	; 0x41c4 <Set_AnalogRFConfigurationBlock+0xb4>
    41e0:	ae bd       	out	0x2e, r26	; 46
    41e2:	0d b4       	in	r0, 0x2d	; 45
    41e4:	07 fe       	sbrs	r0, 7
    41e6:	fd cf       	rjmp	.-6      	; 0x41e2 <Set_AnalogRFConfigurationBlock+0xd2>
    41e8:	f4 cf       	rjmp	.-24     	; 0x41d2 <Set_AnalogRFConfigurationBlock+0xc2>
    41ea:	40 81       	ld	r20, Z
    41ec:	4e bd       	out	0x2e, r20	; 46
    41ee:	0d b4       	in	r0, 0x2d	; 45
    41f0:	07 fe       	sbrs	r0, 7
    41f2:	fd cf       	rjmp	.-6      	; 0x41ee <Set_AnalogRFConfigurationBlock+0xde>
    41f4:	4e b5       	in	r20, 0x2e	; 46
    41f6:	85 30       	cpi	r24, 0x05	; 5
    41f8:	91 05       	cpc	r25, r1
    41fa:	61 f7       	brne	.-40     	; 0x41d4 <Set_AnalogRFConfigurationBlock+0xc4>
    41fc:	2c 9a       	sbi	0x05, 4	; 5
    41fe:	2c 98       	cbi	0x05, 4	; 5
    4200:	f9 01       	movw	r30, r18
    4202:	35 96       	adiw	r30, 0x05	; 5
    4204:	81 e0       	ldi	r24, 0x01	; 1
    4206:	90 e0       	ldi	r25, 0x00	; 0
    4208:	68 ee       	ldi	r22, 0xE8	; 232
    420a:	3c e2       	ldi	r19, 0x2C	; 44
    420c:	ac 01       	movw	r20, r24
    420e:	41 50       	subi	r20, 0x01	; 1
    4210:	51 09       	sbc	r21, r1
    4212:	71 f0       	breq	.+28     	; 0x4230 <Set_AnalogRFConfigurationBlock+0x120>
    4214:	41 30       	cpi	r20, 0x01	; 1
    4216:	51 05       	cpc	r21, r1
    4218:	81 f4       	brne	.+32     	; 0x423a <Set_AnalogRFConfigurationBlock+0x12a>
    421a:	3e bd       	out	0x2e, r19	; 46
    421c:	0d b4       	in	r0, 0x2d	; 45
    421e:	07 fe       	sbrs	r0, 7
    4220:	fd cf       	rjmp	.-6      	; 0x421c <Set_AnalogRFConfigurationBlock+0x10c>
    4222:	2e b5       	in	r18, 0x2e	; 46
    4224:	01 96       	adiw	r24, 0x01	; 1
    4226:	31 97       	sbiw	r30, 0x01	; 1
    4228:	ac 01       	movw	r20, r24
    422a:	41 50       	subi	r20, 0x01	; 1
    422c:	51 09       	sbc	r21, r1
    422e:	91 f7       	brne	.-28     	; 0x4214 <Set_AnalogRFConfigurationBlock+0x104>
    4230:	6e bd       	out	0x2e, r22	; 46
    4232:	0d b4       	in	r0, 0x2d	; 45
    4234:	07 fe       	sbrs	r0, 7
    4236:	fd cf       	rjmp	.-6      	; 0x4232 <Set_AnalogRFConfigurationBlock+0x122>
    4238:	f4 cf       	rjmp	.-24     	; 0x4222 <Set_AnalogRFConfigurationBlock+0x112>
    423a:	20 81       	ld	r18, Z
    423c:	2e bd       	out	0x2e, r18	; 46
    423e:	0d b4       	in	r0, 0x2d	; 45
    4240:	07 fe       	sbrs	r0, 7
    4242:	fd cf       	rjmp	.-6      	; 0x423e <Set_AnalogRFConfigurationBlock+0x12e>
    4244:	2e b5       	in	r18, 0x2e	; 46
    4246:	86 30       	cpi	r24, 0x06	; 6
    4248:	91 05       	cpc	r25, r1
    424a:	61 f7       	brne	.-40     	; 0x4224 <Set_AnalogRFConfigurationBlock+0x114>
    424c:	2c 9a       	sbi	0x05, 4	; 5
    424e:	2c 98       	cbi	0x05, 4	; 5
    4250:	f8 01       	movw	r30, r16
    4252:	35 96       	adiw	r30, 0x05	; 5
    4254:	81 e0       	ldi	r24, 0x01	; 1
    4256:	90 e0       	ldi	r25, 0x00	; 0
    4258:	58 ee       	ldi	r21, 0xE8	; 232
    425a:	40 e3       	ldi	r20, 0x30	; 48
    425c:	9c 01       	movw	r18, r24
    425e:	21 50       	subi	r18, 0x01	; 1
    4260:	31 09       	sbc	r19, r1
    4262:	71 f0       	breq	.+28     	; 0x4280 <Set_AnalogRFConfigurationBlock+0x170>
    4264:	21 30       	cpi	r18, 0x01	; 1
    4266:	31 05       	cpc	r19, r1
    4268:	81 f4       	brne	.+32     	; 0x428a <Set_AnalogRFConfigurationBlock+0x17a>
    426a:	4e bd       	out	0x2e, r20	; 46
    426c:	0d b4       	in	r0, 0x2d	; 45
    426e:	07 fe       	sbrs	r0, 7
    4270:	fd cf       	rjmp	.-6      	; 0x426c <Set_AnalogRFConfigurationBlock+0x15c>
    4272:	2e b5       	in	r18, 0x2e	; 46
    4274:	01 96       	adiw	r24, 0x01	; 1
    4276:	31 97       	sbiw	r30, 0x01	; 1
    4278:	9c 01       	movw	r18, r24
    427a:	21 50       	subi	r18, 0x01	; 1
    427c:	31 09       	sbc	r19, r1
    427e:	91 f7       	brne	.-28     	; 0x4264 <Set_AnalogRFConfigurationBlock+0x154>
    4280:	5e bd       	out	0x2e, r21	; 46
    4282:	0d b4       	in	r0, 0x2d	; 45
    4284:	07 fe       	sbrs	r0, 7
    4286:	fd cf       	rjmp	.-6      	; 0x4282 <Set_AnalogRFConfigurationBlock+0x172>
    4288:	f4 cf       	rjmp	.-24     	; 0x4272 <Set_AnalogRFConfigurationBlock+0x162>
    428a:	20 81       	ld	r18, Z
    428c:	2e bd       	out	0x2e, r18	; 46
    428e:	0d b4       	in	r0, 0x2d	; 45
    4290:	07 fe       	sbrs	r0, 7
    4292:	fd cf       	rjmp	.-6      	; 0x428e <Set_AnalogRFConfigurationBlock+0x17e>
    4294:	2e b5       	in	r18, 0x2e	; 46
    4296:	86 30       	cpi	r24, 0x06	; 6
    4298:	91 05       	cpc	r25, r1
    429a:	61 f7       	brne	.-40     	; 0x4274 <Set_AnalogRFConfigurationBlock+0x164>
    429c:	2c 9a       	sbi	0x05, 4	; 5
    429e:	2c 98       	cbi	0x05, 4	; 5
    42a0:	f7 01       	movw	r30, r14
    42a2:	32 96       	adiw	r30, 0x02	; 2
    42a4:	81 e0       	ldi	r24, 0x01	; 1
    42a6:	90 e0       	ldi	r25, 0x00	; 0
    42a8:	58 ee       	ldi	r21, 0xE8	; 232
    42aa:	44 e3       	ldi	r20, 0x34	; 52
    42ac:	9c 01       	movw	r18, r24
    42ae:	21 50       	subi	r18, 0x01	; 1
    42b0:	31 09       	sbc	r19, r1
    42b2:	71 f0       	breq	.+28     	; 0x42d0 <Set_AnalogRFConfigurationBlock+0x1c0>
    42b4:	21 30       	cpi	r18, 0x01	; 1
    42b6:	31 05       	cpc	r19, r1
    42b8:	81 f4       	brne	.+32     	; 0x42da <Set_AnalogRFConfigurationBlock+0x1ca>
    42ba:	4e bd       	out	0x2e, r20	; 46
    42bc:	0d b4       	in	r0, 0x2d	; 45
    42be:	07 fe       	sbrs	r0, 7
    42c0:	fd cf       	rjmp	.-6      	; 0x42bc <Set_AnalogRFConfigurationBlock+0x1ac>
    42c2:	2e b5       	in	r18, 0x2e	; 46
    42c4:	01 96       	adiw	r24, 0x01	; 1
    42c6:	31 97       	sbiw	r30, 0x01	; 1
    42c8:	9c 01       	movw	r18, r24
    42ca:	21 50       	subi	r18, 0x01	; 1
    42cc:	31 09       	sbc	r19, r1
    42ce:	91 f7       	brne	.-28     	; 0x42b4 <Set_AnalogRFConfigurationBlock+0x1a4>
    42d0:	5e bd       	out	0x2e, r21	; 46
    42d2:	0d b4       	in	r0, 0x2d	; 45
    42d4:	07 fe       	sbrs	r0, 7
    42d6:	fd cf       	rjmp	.-6      	; 0x42d2 <Set_AnalogRFConfigurationBlock+0x1c2>
    42d8:	f4 cf       	rjmp	.-24     	; 0x42c2 <Set_AnalogRFConfigurationBlock+0x1b2>
    42da:	20 81       	ld	r18, Z
    42dc:	2e bd       	out	0x2e, r18	; 46
    42de:	0d b4       	in	r0, 0x2d	; 45
    42e0:	07 fe       	sbrs	r0, 7
    42e2:	fd cf       	rjmp	.-6      	; 0x42de <Set_AnalogRFConfigurationBlock+0x1ce>
    42e4:	2e b5       	in	r18, 0x2e	; 46
    42e6:	83 30       	cpi	r24, 0x03	; 3
    42e8:	91 05       	cpc	r25, r1
    42ea:	61 f7       	brne	.-40     	; 0x42c4 <Set_AnalogRFConfigurationBlock+0x1b4>
    42ec:	2c 9a       	sbi	0x05, 4	; 5
    42ee:	df 91       	pop	r29
    42f0:	cf 91       	pop	r28
    42f2:	1f 91       	pop	r17
    42f4:	0f 91       	pop	r16
    42f6:	ff 90       	pop	r15
    42f8:	ef 90       	pop	r14
    42fa:	08 95       	ret

000042fc <Set_TransimtterCalibrationBlock>:
    42fc:	0f 93       	push	r16
    42fe:	1f 93       	push	r17
    4300:	cf 93       	push	r28
    4302:	df 93       	push	r29
    4304:	2c 98       	cbi	0x05, 4	; 5
    4306:	ec 01       	movw	r28, r24
    4308:	23 96       	adiw	r28, 0x03	; 3
    430a:	e1 e0       	ldi	r30, 0x01	; 1
    430c:	f0 e0       	ldi	r31, 0x00	; 0
    430e:	9a ee       	ldi	r25, 0xEA	; 234
    4310:	df 01       	movw	r26, r30
    4312:	11 97       	sbiw	r26, 0x01	; 1
    4314:	61 f0       	breq	.+24     	; 0x432e <Set_TransimtterCalibrationBlock+0x32>
    4316:	11 97       	sbiw	r26, 0x01	; 1
    4318:	79 f4       	brne	.+30     	; 0x4338 <Set_TransimtterCalibrationBlock+0x3c>
    431a:	1e bc       	out	0x2e, r1	; 46
    431c:	0d b4       	in	r0, 0x2d	; 45
    431e:	07 fe       	sbrs	r0, 7
    4320:	fd cf       	rjmp	.-6      	; 0x431c <Set_TransimtterCalibrationBlock+0x20>
    4322:	8e b5       	in	r24, 0x2e	; 46
    4324:	31 96       	adiw	r30, 0x01	; 1
    4326:	21 97       	sbiw	r28, 0x01	; 1
    4328:	df 01       	movw	r26, r30
    432a:	11 97       	sbiw	r26, 0x01	; 1
    432c:	a1 f7       	brne	.-24     	; 0x4316 <Set_TransimtterCalibrationBlock+0x1a>
    432e:	9e bd       	out	0x2e, r25	; 46
    4330:	0d b4       	in	r0, 0x2d	; 45
    4332:	07 fe       	sbrs	r0, 7
    4334:	fd cf       	rjmp	.-6      	; 0x4330 <Set_TransimtterCalibrationBlock+0x34>
    4336:	f5 cf       	rjmp	.-22     	; 0x4322 <Set_TransimtterCalibrationBlock+0x26>
    4338:	88 81       	ld	r24, Y
    433a:	8e bd       	out	0x2e, r24	; 46
    433c:	0d b4       	in	r0, 0x2d	; 45
    433e:	07 fe       	sbrs	r0, 7
    4340:	fd cf       	rjmp	.-6      	; 0x433c <Set_TransimtterCalibrationBlock+0x40>
    4342:	8e b5       	in	r24, 0x2e	; 46
    4344:	e4 30       	cpi	r30, 0x04	; 4
    4346:	f1 05       	cpc	r31, r1
    4348:	69 f7       	brne	.-38     	; 0x4324 <Set_TransimtterCalibrationBlock+0x28>
    434a:	2c 9a       	sbi	0x05, 4	; 5
    434c:	2c 98       	cbi	0x05, 4	; 5
    434e:	db 01       	movw	r26, r22
    4350:	14 96       	adiw	r26, 0x04	; 4
    4352:	81 e0       	ldi	r24, 0x01	; 1
    4354:	90 e0       	ldi	r25, 0x00	; 0
    4356:	ca ee       	ldi	r28, 0xEA	; 234
    4358:	73 e0       	ldi	r23, 0x03	; 3
    435a:	fc 01       	movw	r30, r24
    435c:	31 97       	sbiw	r30, 0x01	; 1
    435e:	61 f0       	breq	.+24     	; 0x4378 <Set_TransimtterCalibrationBlock+0x7c>
    4360:	31 97       	sbiw	r30, 0x01	; 1
    4362:	79 f4       	brne	.+30     	; 0x4382 <Set_TransimtterCalibrationBlock+0x86>
    4364:	7e bd       	out	0x2e, r23	; 46
    4366:	0d b4       	in	r0, 0x2d	; 45
    4368:	07 fe       	sbrs	r0, 7
    436a:	fd cf       	rjmp	.-6      	; 0x4366 <Set_TransimtterCalibrationBlock+0x6a>
    436c:	6e b5       	in	r22, 0x2e	; 46
    436e:	01 96       	adiw	r24, 0x01	; 1
    4370:	11 97       	sbiw	r26, 0x01	; 1
    4372:	fc 01       	movw	r30, r24
    4374:	31 97       	sbiw	r30, 0x01	; 1
    4376:	a1 f7       	brne	.-24     	; 0x4360 <Set_TransimtterCalibrationBlock+0x64>
    4378:	ce bd       	out	0x2e, r28	; 46
    437a:	0d b4       	in	r0, 0x2d	; 45
    437c:	07 fe       	sbrs	r0, 7
    437e:	fd cf       	rjmp	.-6      	; 0x437a <Set_TransimtterCalibrationBlock+0x7e>
    4380:	f5 cf       	rjmp	.-22     	; 0x436c <Set_TransimtterCalibrationBlock+0x70>
    4382:	6c 91       	ld	r22, X
    4384:	6e bd       	out	0x2e, r22	; 46
    4386:	0d b4       	in	r0, 0x2d	; 45
    4388:	07 fe       	sbrs	r0, 7
    438a:	fd cf       	rjmp	.-6      	; 0x4386 <Set_TransimtterCalibrationBlock+0x8a>
    438c:	6e b5       	in	r22, 0x2e	; 46
    438e:	85 30       	cpi	r24, 0x05	; 5
    4390:	91 05       	cpc	r25, r1
    4392:	69 f7       	brne	.-38     	; 0x436e <Set_TransimtterCalibrationBlock+0x72>
    4394:	2c 9a       	sbi	0x05, 4	; 5
    4396:	2c 98       	cbi	0x05, 4	; 5
    4398:	fa 01       	movw	r30, r20
    439a:	33 96       	adiw	r30, 0x03	; 3
    439c:	81 e0       	ldi	r24, 0x01	; 1
    439e:	90 e0       	ldi	r25, 0x00	; 0
    43a0:	aa ee       	ldi	r26, 0xEA	; 234
    43a2:	56 e0       	ldi	r21, 0x06	; 6
    43a4:	bc 01       	movw	r22, r24
    43a6:	61 50       	subi	r22, 0x01	; 1
    43a8:	71 09       	sbc	r23, r1
    43aa:	71 f0       	breq	.+28     	; 0x43c8 <Set_TransimtterCalibrationBlock+0xcc>
    43ac:	61 30       	cpi	r22, 0x01	; 1
    43ae:	71 05       	cpc	r23, r1
    43b0:	81 f4       	brne	.+32     	; 0x43d2 <Set_TransimtterCalibrationBlock+0xd6>
    43b2:	5e bd       	out	0x2e, r21	; 46
    43b4:	0d b4       	in	r0, 0x2d	; 45
    43b6:	07 fe       	sbrs	r0, 7
    43b8:	fd cf       	rjmp	.-6      	; 0x43b4 <Set_TransimtterCalibrationBlock+0xb8>
    43ba:	4e b5       	in	r20, 0x2e	; 46
    43bc:	01 96       	adiw	r24, 0x01	; 1
    43be:	31 97       	sbiw	r30, 0x01	; 1
    43c0:	bc 01       	movw	r22, r24
    43c2:	61 50       	subi	r22, 0x01	; 1
    43c4:	71 09       	sbc	r23, r1
    43c6:	91 f7       	brne	.-28     	; 0x43ac <Set_TransimtterCalibrationBlock+0xb0>
    43c8:	ae bd       	out	0x2e, r26	; 46
    43ca:	0d b4       	in	r0, 0x2d	; 45
    43cc:	07 fe       	sbrs	r0, 7
    43ce:	fd cf       	rjmp	.-6      	; 0x43ca <Set_TransimtterCalibrationBlock+0xce>
    43d0:	f4 cf       	rjmp	.-24     	; 0x43ba <Set_TransimtterCalibrationBlock+0xbe>
    43d2:	40 81       	ld	r20, Z
    43d4:	4e bd       	out	0x2e, r20	; 46
    43d6:	0d b4       	in	r0, 0x2d	; 45
    43d8:	07 fe       	sbrs	r0, 7
    43da:	fd cf       	rjmp	.-6      	; 0x43d6 <Set_TransimtterCalibrationBlock+0xda>
    43dc:	4e b5       	in	r20, 0x2e	; 46
    43de:	84 30       	cpi	r24, 0x04	; 4
    43e0:	91 05       	cpc	r25, r1
    43e2:	61 f7       	brne	.-40     	; 0x43bc <Set_TransimtterCalibrationBlock+0xc0>
    43e4:	2c 9a       	sbi	0x05, 4	; 5
    43e6:	2c 98       	cbi	0x05, 4	; 5
    43e8:	f9 01       	movw	r30, r18
    43ea:	32 96       	adiw	r30, 0x02	; 2
    43ec:	81 e0       	ldi	r24, 0x01	; 1
    43ee:	90 e0       	ldi	r25, 0x00	; 0
    43f0:	7a ee       	ldi	r23, 0xEA	; 234
    43f2:	6b e0       	ldi	r22, 0x0B	; 11
    43f4:	ac 01       	movw	r20, r24
    43f6:	41 50       	subi	r20, 0x01	; 1
    43f8:	51 09       	sbc	r21, r1
    43fa:	71 f0       	breq	.+28     	; 0x4418 <Set_TransimtterCalibrationBlock+0x11c>
    43fc:	41 30       	cpi	r20, 0x01	; 1
    43fe:	51 05       	cpc	r21, r1
    4400:	81 f4       	brne	.+32     	; 0x4422 <Set_TransimtterCalibrationBlock+0x126>
    4402:	6e bd       	out	0x2e, r22	; 46
    4404:	0d b4       	in	r0, 0x2d	; 45
    4406:	07 fe       	sbrs	r0, 7
    4408:	fd cf       	rjmp	.-6      	; 0x4404 <Set_TransimtterCalibrationBlock+0x108>
    440a:	4e b5       	in	r20, 0x2e	; 46
    440c:	01 96       	adiw	r24, 0x01	; 1
    440e:	31 97       	sbiw	r30, 0x01	; 1
    4410:	ac 01       	movw	r20, r24
    4412:	41 50       	subi	r20, 0x01	; 1
    4414:	51 09       	sbc	r21, r1
    4416:	91 f7       	brne	.-28     	; 0x43fc <Set_TransimtterCalibrationBlock+0x100>
    4418:	7e bd       	out	0x2e, r23	; 46
    441a:	0d b4       	in	r0, 0x2d	; 45
    441c:	07 fe       	sbrs	r0, 7
    441e:	fd cf       	rjmp	.-6      	; 0x441a <Set_TransimtterCalibrationBlock+0x11e>
    4420:	f4 cf       	rjmp	.-24     	; 0x440a <Set_TransimtterCalibrationBlock+0x10e>
    4422:	40 81       	ld	r20, Z
    4424:	4e bd       	out	0x2e, r20	; 46
    4426:	0d b4       	in	r0, 0x2d	; 45
    4428:	07 fe       	sbrs	r0, 7
    442a:	fd cf       	rjmp	.-6      	; 0x4426 <Set_TransimtterCalibrationBlock+0x12a>
    442c:	4e b5       	in	r20, 0x2e	; 46
    442e:	83 30       	cpi	r24, 0x03	; 3
    4430:	91 05       	cpc	r25, r1
    4432:	61 f7       	brne	.-40     	; 0x440c <Set_TransimtterCalibrationBlock+0x110>
    4434:	2c 9a       	sbi	0x05, 4	; 5
    4436:	2c 98       	cbi	0x05, 4	; 5
    4438:	f8 01       	movw	r30, r16
    443a:	32 96       	adiw	r30, 0x02	; 2
    443c:	81 e0       	ldi	r24, 0x01	; 1
    443e:	90 e0       	ldi	r25, 0x00	; 0
    4440:	5a ee       	ldi	r21, 0xEA	; 234
    4442:	4c e0       	ldi	r20, 0x0C	; 12
    4444:	9c 01       	movw	r18, r24
    4446:	21 50       	subi	r18, 0x01	; 1
    4448:	31 09       	sbc	r19, r1
    444a:	71 f0       	breq	.+28     	; 0x4468 <Set_TransimtterCalibrationBlock+0x16c>
    444c:	21 30       	cpi	r18, 0x01	; 1
    444e:	31 05       	cpc	r19, r1
    4450:	81 f4       	brne	.+32     	; 0x4472 <Set_TransimtterCalibrationBlock+0x176>
    4452:	4e bd       	out	0x2e, r20	; 46
    4454:	0d b4       	in	r0, 0x2d	; 45
    4456:	07 fe       	sbrs	r0, 7
    4458:	fd cf       	rjmp	.-6      	; 0x4454 <Set_TransimtterCalibrationBlock+0x158>
    445a:	2e b5       	in	r18, 0x2e	; 46
    445c:	01 96       	adiw	r24, 0x01	; 1
    445e:	31 97       	sbiw	r30, 0x01	; 1
    4460:	9c 01       	movw	r18, r24
    4462:	21 50       	subi	r18, 0x01	; 1
    4464:	31 09       	sbc	r19, r1
    4466:	91 f7       	brne	.-28     	; 0x444c <Set_TransimtterCalibrationBlock+0x150>
    4468:	5e bd       	out	0x2e, r21	; 46
    446a:	0d b4       	in	r0, 0x2d	; 45
    446c:	07 fe       	sbrs	r0, 7
    446e:	fd cf       	rjmp	.-6      	; 0x446a <Set_TransimtterCalibrationBlock+0x16e>
    4470:	f4 cf       	rjmp	.-24     	; 0x445a <Set_TransimtterCalibrationBlock+0x15e>
    4472:	20 81       	ld	r18, Z
    4474:	2e bd       	out	0x2e, r18	; 46
    4476:	0d b4       	in	r0, 0x2d	; 45
    4478:	07 fe       	sbrs	r0, 7
    447a:	fd cf       	rjmp	.-6      	; 0x4476 <Set_TransimtterCalibrationBlock+0x17a>
    447c:	2e b5       	in	r18, 0x2e	; 46
    447e:	83 30       	cpi	r24, 0x03	; 3
    4480:	91 05       	cpc	r25, r1
    4482:	61 f7       	brne	.-40     	; 0x445c <Set_TransimtterCalibrationBlock+0x160>
    4484:	2c 9a       	sbi	0x05, 4	; 5
    4486:	df 91       	pop	r29
    4488:	cf 91       	pop	r28
    448a:	1f 91       	pop	r17
    448c:	0f 91       	pop	r16
    448e:	08 95       	ret

00004490 <Set_FrequencySynthesiserControlBlock>:
    4490:	cf 93       	push	r28
    4492:	2c 98       	cbi	0x05, 4	; 5
    4494:	dc 01       	movw	r26, r24
    4496:	15 96       	adiw	r26, 0x05	; 5
    4498:	21 e0       	ldi	r18, 0x01	; 1
    449a:	30 e0       	ldi	r19, 0x00	; 0
    449c:	cb ee       	ldi	r28, 0xEB	; 235
    449e:	97 e0       	ldi	r25, 0x07	; 7
    44a0:	f9 01       	movw	r30, r18
    44a2:	31 97       	sbiw	r30, 0x01	; 1
    44a4:	69 f0       	breq	.+26     	; 0x44c0 <Set_FrequencySynthesiserControlBlock+0x30>
    44a6:	31 97       	sbiw	r30, 0x01	; 1
    44a8:	81 f4       	brne	.+32     	; 0x44ca <Set_FrequencySynthesiserControlBlock+0x3a>
    44aa:	9e bd       	out	0x2e, r25	; 46
    44ac:	0d b4       	in	r0, 0x2d	; 45
    44ae:	07 fe       	sbrs	r0, 7
    44b0:	fd cf       	rjmp	.-6      	; 0x44ac <Set_FrequencySynthesiserControlBlock+0x1c>
    44b2:	8e b5       	in	r24, 0x2e	; 46
    44b4:	2f 5f       	subi	r18, 0xFF	; 255
    44b6:	3f 4f       	sbci	r19, 0xFF	; 255
    44b8:	11 97       	sbiw	r26, 0x01	; 1
    44ba:	f9 01       	movw	r30, r18
    44bc:	31 97       	sbiw	r30, 0x01	; 1
    44be:	99 f7       	brne	.-26     	; 0x44a6 <Set_FrequencySynthesiserControlBlock+0x16>
    44c0:	ce bd       	out	0x2e, r28	; 46
    44c2:	0d b4       	in	r0, 0x2d	; 45
    44c4:	07 fe       	sbrs	r0, 7
    44c6:	fd cf       	rjmp	.-6      	; 0x44c2 <Set_FrequencySynthesiserControlBlock+0x32>
    44c8:	f4 cf       	rjmp	.-24     	; 0x44b2 <Set_FrequencySynthesiserControlBlock+0x22>
    44ca:	8c 91       	ld	r24, X
    44cc:	8e bd       	out	0x2e, r24	; 46
    44ce:	0d b4       	in	r0, 0x2d	; 45
    44d0:	07 fe       	sbrs	r0, 7
    44d2:	fd cf       	rjmp	.-6      	; 0x44ce <Set_FrequencySynthesiserControlBlock+0x3e>
    44d4:	8e b5       	in	r24, 0x2e	; 46
    44d6:	26 30       	cpi	r18, 0x06	; 6
    44d8:	31 05       	cpc	r19, r1
    44da:	61 f7       	brne	.-40     	; 0x44b4 <Set_FrequencySynthesiserControlBlock+0x24>
    44dc:	2c 9a       	sbi	0x05, 4	; 5
    44de:	2c 98       	cbi	0x05, 4	; 5
    44e0:	fb 01       	movw	r30, r22
    44e2:	32 96       	adiw	r30, 0x02	; 2
    44e4:	81 e0       	ldi	r24, 0x01	; 1
    44e6:	90 e0       	ldi	r25, 0x00	; 0
    44e8:	7b ee       	ldi	r23, 0xEB	; 235
    44ea:	6b e0       	ldi	r22, 0x0B	; 11
    44ec:	9c 01       	movw	r18, r24
    44ee:	21 50       	subi	r18, 0x01	; 1
    44f0:	31 09       	sbc	r19, r1
    44f2:	71 f0       	breq	.+28     	; 0x4510 <Set_FrequencySynthesiserControlBlock+0x80>
    44f4:	21 30       	cpi	r18, 0x01	; 1
    44f6:	31 05       	cpc	r19, r1
    44f8:	81 f4       	brne	.+32     	; 0x451a <Set_FrequencySynthesiserControlBlock+0x8a>
    44fa:	6e bd       	out	0x2e, r22	; 46
    44fc:	0d b4       	in	r0, 0x2d	; 45
    44fe:	07 fe       	sbrs	r0, 7
    4500:	fd cf       	rjmp	.-6      	; 0x44fc <Set_FrequencySynthesiserControlBlock+0x6c>
    4502:	2e b5       	in	r18, 0x2e	; 46
    4504:	01 96       	adiw	r24, 0x01	; 1
    4506:	31 97       	sbiw	r30, 0x01	; 1
    4508:	9c 01       	movw	r18, r24
    450a:	21 50       	subi	r18, 0x01	; 1
    450c:	31 09       	sbc	r19, r1
    450e:	91 f7       	brne	.-28     	; 0x44f4 <Set_FrequencySynthesiserControlBlock+0x64>
    4510:	7e bd       	out	0x2e, r23	; 46
    4512:	0d b4       	in	r0, 0x2d	; 45
    4514:	07 fe       	sbrs	r0, 7
    4516:	fd cf       	rjmp	.-6      	; 0x4512 <Set_FrequencySynthesiserControlBlock+0x82>
    4518:	f4 cf       	rjmp	.-24     	; 0x4502 <Set_FrequencySynthesiserControlBlock+0x72>
    451a:	20 81       	ld	r18, Z
    451c:	2e bd       	out	0x2e, r18	; 46
    451e:	0d b4       	in	r0, 0x2d	; 45
    4520:	07 fe       	sbrs	r0, 7
    4522:	fd cf       	rjmp	.-6      	; 0x451e <Set_FrequencySynthesiserControlBlock+0x8e>
    4524:	2e b5       	in	r18, 0x2e	; 46
    4526:	83 30       	cpi	r24, 0x03	; 3
    4528:	91 05       	cpc	r25, r1
    452a:	61 f7       	brne	.-40     	; 0x4504 <Set_FrequencySynthesiserControlBlock+0x74>
    452c:	2c 9a       	sbi	0x05, 4	; 5
    452e:	2c 98       	cbi	0x05, 4	; 5
    4530:	fa 01       	movw	r30, r20
    4532:	32 96       	adiw	r30, 0x02	; 2
    4534:	81 e0       	ldi	r24, 0x01	; 1
    4536:	90 e0       	ldi	r25, 0x00	; 0
    4538:	5b ee       	ldi	r21, 0xEB	; 235
    453a:	4e e0       	ldi	r20, 0x0E	; 14
    453c:	9c 01       	movw	r18, r24
    453e:	21 50       	subi	r18, 0x01	; 1
    4540:	31 09       	sbc	r19, r1
    4542:	71 f0       	breq	.+28     	; 0x4560 <Set_FrequencySynthesiserControlBlock+0xd0>
    4544:	21 30       	cpi	r18, 0x01	; 1
    4546:	31 05       	cpc	r19, r1
    4548:	81 f4       	brne	.+32     	; 0x456a <Set_FrequencySynthesiserControlBlock+0xda>
    454a:	4e bd       	out	0x2e, r20	; 46
    454c:	0d b4       	in	r0, 0x2d	; 45
    454e:	07 fe       	sbrs	r0, 7
    4550:	fd cf       	rjmp	.-6      	; 0x454c <Set_FrequencySynthesiserControlBlock+0xbc>
    4552:	2e b5       	in	r18, 0x2e	; 46
    4554:	01 96       	adiw	r24, 0x01	; 1
    4556:	31 97       	sbiw	r30, 0x01	; 1
    4558:	9c 01       	movw	r18, r24
    455a:	21 50       	subi	r18, 0x01	; 1
    455c:	31 09       	sbc	r19, r1
    455e:	91 f7       	brne	.-28     	; 0x4544 <Set_FrequencySynthesiserControlBlock+0xb4>
    4560:	5e bd       	out	0x2e, r21	; 46
    4562:	0d b4       	in	r0, 0x2d	; 45
    4564:	07 fe       	sbrs	r0, 7
    4566:	fd cf       	rjmp	.-6      	; 0x4562 <Set_FrequencySynthesiserControlBlock+0xd2>
    4568:	f4 cf       	rjmp	.-24     	; 0x4552 <Set_FrequencySynthesiserControlBlock+0xc2>
    456a:	20 81       	ld	r18, Z
    456c:	2e bd       	out	0x2e, r18	; 46
    456e:	0d b4       	in	r0, 0x2d	; 45
    4570:	07 fe       	sbrs	r0, 7
    4572:	fd cf       	rjmp	.-6      	; 0x456e <Set_FrequencySynthesiserControlBlock+0xde>
    4574:	2e b5       	in	r18, 0x2e	; 46
    4576:	83 30       	cpi	r24, 0x03	; 3
    4578:	91 05       	cpc	r25, r1
    457a:	61 f7       	brne	.-40     	; 0x4554 <Set_FrequencySynthesiserControlBlock+0xc4>
    457c:	2c 9a       	sbi	0x05, 4	; 5
    457e:	cf 91       	pop	r28
    4580:	08 95       	ret

00004582 <Set_OTPWriteData>:
    4582:	2c 98       	cbi	0x05, 4	; 5
    4584:	fc 01       	movw	r30, r24
    4586:	35 96       	adiw	r30, 0x05	; 5
    4588:	21 e0       	ldi	r18, 0x01	; 1
    458a:	30 e0       	ldi	r19, 0x00	; 0
    458c:	9d ee       	ldi	r25, 0xED	; 237
    458e:	a9 01       	movw	r20, r18
    4590:	41 50       	subi	r20, 0x01	; 1
    4592:	51 09       	sbc	r21, r1
    4594:	79 f0       	breq	.+30     	; 0x45b4 <Set_OTPWriteData+0x32>
    4596:	41 30       	cpi	r20, 0x01	; 1
    4598:	51 05       	cpc	r21, r1
    459a:	89 f4       	brne	.+34     	; 0x45be <Set_OTPWriteData+0x3c>
    459c:	1e bc       	out	0x2e, r1	; 46
    459e:	0d b4       	in	r0, 0x2d	; 45
    45a0:	07 fe       	sbrs	r0, 7
    45a2:	fd cf       	rjmp	.-6      	; 0x459e <Set_OTPWriteData+0x1c>
    45a4:	8e b5       	in	r24, 0x2e	; 46
    45a6:	2f 5f       	subi	r18, 0xFF	; 255
    45a8:	3f 4f       	sbci	r19, 0xFF	; 255
    45aa:	31 97       	sbiw	r30, 0x01	; 1
    45ac:	a9 01       	movw	r20, r18
    45ae:	41 50       	subi	r20, 0x01	; 1
    45b0:	51 09       	sbc	r21, r1
    45b2:	89 f7       	brne	.-30     	; 0x4596 <Set_OTPWriteData+0x14>
    45b4:	9e bd       	out	0x2e, r25	; 46
    45b6:	0d b4       	in	r0, 0x2d	; 45
    45b8:	07 fe       	sbrs	r0, 7
    45ba:	fd cf       	rjmp	.-6      	; 0x45b6 <Set_OTPWriteData+0x34>
    45bc:	f3 cf       	rjmp	.-26     	; 0x45a4 <Set_OTPWriteData+0x22>
    45be:	80 81       	ld	r24, Z
    45c0:	8e bd       	out	0x2e, r24	; 46
    45c2:	0d b4       	in	r0, 0x2d	; 45
    45c4:	07 fe       	sbrs	r0, 7
    45c6:	fd cf       	rjmp	.-6      	; 0x45c2 <Set_OTPWriteData+0x40>
    45c8:	8e b5       	in	r24, 0x2e	; 46
    45ca:	26 30       	cpi	r18, 0x06	; 6
    45cc:	31 05       	cpc	r19, r1
    45ce:	59 f7       	brne	.-42     	; 0x45a6 <Set_OTPWriteData+0x24>
    45d0:	2c 9a       	sbi	0x05, 4	; 5
    45d2:	08 95       	ret

000045d4 <Set_OTPAddress>:
    45d4:	2c 98       	cbi	0x05, 4	; 5
    45d6:	fc 01       	movw	r30, r24
    45d8:	33 96       	adiw	r30, 0x03	; 3
    45da:	21 e0       	ldi	r18, 0x01	; 1
    45dc:	30 e0       	ldi	r19, 0x00	; 0
    45de:	6d ee       	ldi	r22, 0xED	; 237
    45e0:	94 e0       	ldi	r25, 0x04	; 4
    45e2:	a9 01       	movw	r20, r18
    45e4:	41 50       	subi	r20, 0x01	; 1
    45e6:	51 09       	sbc	r21, r1
    45e8:	79 f0       	breq	.+30     	; 0x4608 <Set_OTPAddress+0x34>
    45ea:	41 30       	cpi	r20, 0x01	; 1
    45ec:	51 05       	cpc	r21, r1
    45ee:	89 f4       	brne	.+34     	; 0x4612 <Set_OTPAddress+0x3e>
    45f0:	9e bd       	out	0x2e, r25	; 46
    45f2:	0d b4       	in	r0, 0x2d	; 45
    45f4:	07 fe       	sbrs	r0, 7
    45f6:	fd cf       	rjmp	.-6      	; 0x45f2 <Set_OTPAddress+0x1e>
    45f8:	8e b5       	in	r24, 0x2e	; 46
    45fa:	2f 5f       	subi	r18, 0xFF	; 255
    45fc:	3f 4f       	sbci	r19, 0xFF	; 255
    45fe:	31 97       	sbiw	r30, 0x01	; 1
    4600:	a9 01       	movw	r20, r18
    4602:	41 50       	subi	r20, 0x01	; 1
    4604:	51 09       	sbc	r21, r1
    4606:	89 f7       	brne	.-30     	; 0x45ea <Set_OTPAddress+0x16>
    4608:	6e bd       	out	0x2e, r22	; 46
    460a:	0d b4       	in	r0, 0x2d	; 45
    460c:	07 fe       	sbrs	r0, 7
    460e:	fd cf       	rjmp	.-6      	; 0x460a <Set_OTPAddress+0x36>
    4610:	f3 cf       	rjmp	.-26     	; 0x45f8 <Set_OTPAddress+0x24>
    4612:	80 81       	ld	r24, Z
    4614:	8e bd       	out	0x2e, r24	; 46
    4616:	0d b4       	in	r0, 0x2d	; 45
    4618:	07 fe       	sbrs	r0, 7
    461a:	fd cf       	rjmp	.-6      	; 0x4616 <Set_OTPAddress+0x42>
    461c:	8e b5       	in	r24, 0x2e	; 46
    461e:	24 30       	cpi	r18, 0x04	; 4
    4620:	31 05       	cpc	r19, r1
    4622:	59 f7       	brne	.-42     	; 0x45fa <Set_OTPAddress+0x26>
    4624:	2c 9a       	sbi	0x05, 4	; 5
    4626:	08 95       	ret

00004628 <Set_OTPControl>:
    4628:	2c 98       	cbi	0x05, 4	; 5
    462a:	fc 01       	movw	r30, r24
    462c:	33 96       	adiw	r30, 0x03	; 3
    462e:	21 e0       	ldi	r18, 0x01	; 1
    4630:	30 e0       	ldi	r19, 0x00	; 0
    4632:	6d ee       	ldi	r22, 0xED	; 237
    4634:	96 e0       	ldi	r25, 0x06	; 6
    4636:	a9 01       	movw	r20, r18
    4638:	41 50       	subi	r20, 0x01	; 1
    463a:	51 09       	sbc	r21, r1
    463c:	79 f0       	breq	.+30     	; 0x465c <Set_OTPControl+0x34>
    463e:	41 30       	cpi	r20, 0x01	; 1
    4640:	51 05       	cpc	r21, r1
    4642:	89 f4       	brne	.+34     	; 0x4666 <Set_OTPControl+0x3e>
    4644:	9e bd       	out	0x2e, r25	; 46
    4646:	0d b4       	in	r0, 0x2d	; 45
    4648:	07 fe       	sbrs	r0, 7
    464a:	fd cf       	rjmp	.-6      	; 0x4646 <Set_OTPControl+0x1e>
    464c:	8e b5       	in	r24, 0x2e	; 46
    464e:	2f 5f       	subi	r18, 0xFF	; 255
    4650:	3f 4f       	sbci	r19, 0xFF	; 255
    4652:	31 97       	sbiw	r30, 0x01	; 1
    4654:	a9 01       	movw	r20, r18
    4656:	41 50       	subi	r20, 0x01	; 1
    4658:	51 09       	sbc	r21, r1
    465a:	89 f7       	brne	.-30     	; 0x463e <Set_OTPControl+0x16>
    465c:	6e bd       	out	0x2e, r22	; 46
    465e:	0d b4       	in	r0, 0x2d	; 45
    4660:	07 fe       	sbrs	r0, 7
    4662:	fd cf       	rjmp	.-6      	; 0x465e <Set_OTPControl+0x36>
    4664:	f3 cf       	rjmp	.-26     	; 0x464c <Set_OTPControl+0x24>
    4666:	80 81       	ld	r24, Z
    4668:	8e bd       	out	0x2e, r24	; 46
    466a:	0d b4       	in	r0, 0x2d	; 45
    466c:	07 fe       	sbrs	r0, 7
    466e:	fd cf       	rjmp	.-6      	; 0x466a <Set_OTPControl+0x42>
    4670:	8e b5       	in	r24, 0x2e	; 46
    4672:	24 30       	cpi	r18, 0x04	; 4
    4674:	31 05       	cpc	r19, r1
    4676:	59 f7       	brne	.-42     	; 0x464e <Set_OTPControl+0x26>
    4678:	2c 9a       	sbi	0x05, 4	; 5
    467a:	08 95       	ret

0000467c <Set_OTPStatus>:
    467c:	2c 98       	cbi	0x05, 4	; 5
    467e:	fc 01       	movw	r30, r24
    4680:	33 96       	adiw	r30, 0x03	; 3
    4682:	21 e0       	ldi	r18, 0x01	; 1
    4684:	30 e0       	ldi	r19, 0x00	; 0
    4686:	6d ee       	ldi	r22, 0xED	; 237
    4688:	98 e0       	ldi	r25, 0x08	; 8
    468a:	a9 01       	movw	r20, r18
    468c:	41 50       	subi	r20, 0x01	; 1
    468e:	51 09       	sbc	r21, r1
    4690:	79 f0       	breq	.+30     	; 0x46b0 <Set_OTPStatus+0x34>
    4692:	41 30       	cpi	r20, 0x01	; 1
    4694:	51 05       	cpc	r21, r1
    4696:	89 f4       	brne	.+34     	; 0x46ba <Set_OTPStatus+0x3e>
    4698:	9e bd       	out	0x2e, r25	; 46
    469a:	0d b4       	in	r0, 0x2d	; 45
    469c:	07 fe       	sbrs	r0, 7
    469e:	fd cf       	rjmp	.-6      	; 0x469a <Set_OTPStatus+0x1e>
    46a0:	8e b5       	in	r24, 0x2e	; 46
    46a2:	2f 5f       	subi	r18, 0xFF	; 255
    46a4:	3f 4f       	sbci	r19, 0xFF	; 255
    46a6:	31 97       	sbiw	r30, 0x01	; 1
    46a8:	a9 01       	movw	r20, r18
    46aa:	41 50       	subi	r20, 0x01	; 1
    46ac:	51 09       	sbc	r21, r1
    46ae:	89 f7       	brne	.-30     	; 0x4692 <Set_OTPStatus+0x16>
    46b0:	6e bd       	out	0x2e, r22	; 46
    46b2:	0d b4       	in	r0, 0x2d	; 45
    46b4:	07 fe       	sbrs	r0, 7
    46b6:	fd cf       	rjmp	.-6      	; 0x46b2 <Set_OTPStatus+0x36>
    46b8:	f3 cf       	rjmp	.-26     	; 0x46a0 <Set_OTPStatus+0x24>
    46ba:	80 81       	ld	r24, Z
    46bc:	8e bd       	out	0x2e, r24	; 46
    46be:	0d b4       	in	r0, 0x2d	; 45
    46c0:	07 fe       	sbrs	r0, 7
    46c2:	fd cf       	rjmp	.-6      	; 0x46be <Set_OTPStatus+0x42>
    46c4:	8e b5       	in	r24, 0x2e	; 46
    46c6:	24 30       	cpi	r18, 0x04	; 4
    46c8:	31 05       	cpc	r19, r1
    46ca:	59 f7       	brne	.-42     	; 0x46a2 <Set_OTPStatus+0x26>
    46cc:	2c 9a       	sbi	0x05, 4	; 5
    46ce:	08 95       	ret

000046d0 <Set_OTPReadData>:
    46d0:	2c 98       	cbi	0x05, 4	; 5
    46d2:	fc 01       	movw	r30, r24
    46d4:	35 96       	adiw	r30, 0x05	; 5
    46d6:	21 e0       	ldi	r18, 0x01	; 1
    46d8:	30 e0       	ldi	r19, 0x00	; 0
    46da:	6d ee       	ldi	r22, 0xED	; 237
    46dc:	9a e0       	ldi	r25, 0x0A	; 10
    46de:	a9 01       	movw	r20, r18
    46e0:	41 50       	subi	r20, 0x01	; 1
    46e2:	51 09       	sbc	r21, r1
    46e4:	79 f0       	breq	.+30     	; 0x4704 <Set_OTPReadData+0x34>
    46e6:	41 30       	cpi	r20, 0x01	; 1
    46e8:	51 05       	cpc	r21, r1
    46ea:	89 f4       	brne	.+34     	; 0x470e <Set_OTPReadData+0x3e>
    46ec:	9e bd       	out	0x2e, r25	; 46
    46ee:	0d b4       	in	r0, 0x2d	; 45
    46f0:	07 fe       	sbrs	r0, 7
    46f2:	fd cf       	rjmp	.-6      	; 0x46ee <Set_OTPReadData+0x1e>
    46f4:	8e b5       	in	r24, 0x2e	; 46
    46f6:	2f 5f       	subi	r18, 0xFF	; 255
    46f8:	3f 4f       	sbci	r19, 0xFF	; 255
    46fa:	31 97       	sbiw	r30, 0x01	; 1
    46fc:	a9 01       	movw	r20, r18
    46fe:	41 50       	subi	r20, 0x01	; 1
    4700:	51 09       	sbc	r21, r1
    4702:	89 f7       	brne	.-30     	; 0x46e6 <Set_OTPReadData+0x16>
    4704:	6e bd       	out	0x2e, r22	; 46
    4706:	0d b4       	in	r0, 0x2d	; 45
    4708:	07 fe       	sbrs	r0, 7
    470a:	fd cf       	rjmp	.-6      	; 0x4706 <Set_OTPReadData+0x36>
    470c:	f3 cf       	rjmp	.-26     	; 0x46f4 <Set_OTPReadData+0x24>
    470e:	80 81       	ld	r24, Z
    4710:	8e bd       	out	0x2e, r24	; 46
    4712:	0d b4       	in	r0, 0x2d	; 45
    4714:	07 fe       	sbrs	r0, 7
    4716:	fd cf       	rjmp	.-6      	; 0x4712 <Set_OTPReadData+0x42>
    4718:	8e b5       	in	r24, 0x2e	; 46
    471a:	26 30       	cpi	r18, 0x06	; 6
    471c:	31 05       	cpc	r19, r1
    471e:	59 f7       	brne	.-42     	; 0x46f6 <Set_OTPReadData+0x26>
    4720:	2c 9a       	sbi	0x05, 4	; 5
    4722:	08 95       	ret

00004724 <Set_OTPSpecialRegisterReadData>:
    4724:	2c 98       	cbi	0x05, 4	; 5
    4726:	fc 01       	movw	r30, r24
    4728:	35 96       	adiw	r30, 0x05	; 5
    472a:	21 e0       	ldi	r18, 0x01	; 1
    472c:	30 e0       	ldi	r19, 0x00	; 0
    472e:	6d ee       	ldi	r22, 0xED	; 237
    4730:	9e e0       	ldi	r25, 0x0E	; 14
    4732:	a9 01       	movw	r20, r18
    4734:	41 50       	subi	r20, 0x01	; 1
    4736:	51 09       	sbc	r21, r1
    4738:	79 f0       	breq	.+30     	; 0x4758 <Set_OTPSpecialRegisterReadData+0x34>
    473a:	41 30       	cpi	r20, 0x01	; 1
    473c:	51 05       	cpc	r21, r1
    473e:	89 f4       	brne	.+34     	; 0x4762 <Set_OTPSpecialRegisterReadData+0x3e>
    4740:	9e bd       	out	0x2e, r25	; 46
    4742:	0d b4       	in	r0, 0x2d	; 45
    4744:	07 fe       	sbrs	r0, 7
    4746:	fd cf       	rjmp	.-6      	; 0x4742 <Set_OTPSpecialRegisterReadData+0x1e>
    4748:	8e b5       	in	r24, 0x2e	; 46
    474a:	2f 5f       	subi	r18, 0xFF	; 255
    474c:	3f 4f       	sbci	r19, 0xFF	; 255
    474e:	31 97       	sbiw	r30, 0x01	; 1
    4750:	a9 01       	movw	r20, r18
    4752:	41 50       	subi	r20, 0x01	; 1
    4754:	51 09       	sbc	r21, r1
    4756:	89 f7       	brne	.-30     	; 0x473a <Set_OTPSpecialRegisterReadData+0x16>
    4758:	6e bd       	out	0x2e, r22	; 46
    475a:	0d b4       	in	r0, 0x2d	; 45
    475c:	07 fe       	sbrs	r0, 7
    475e:	fd cf       	rjmp	.-6      	; 0x475a <Set_OTPSpecialRegisterReadData+0x36>
    4760:	f3 cf       	rjmp	.-26     	; 0x4748 <Set_OTPSpecialRegisterReadData+0x24>
    4762:	80 81       	ld	r24, Z
    4764:	8e bd       	out	0x2e, r24	; 46
    4766:	0d b4       	in	r0, 0x2d	; 45
    4768:	07 fe       	sbrs	r0, 7
    476a:	fd cf       	rjmp	.-6      	; 0x4766 <Set_OTPSpecialRegisterReadData+0x42>
    476c:	8e b5       	in	r24, 0x2e	; 46
    476e:	26 30       	cpi	r18, 0x06	; 6
    4770:	31 05       	cpc	r19, r1
    4772:	59 f7       	brne	.-42     	; 0x474a <Set_OTPSpecialRegisterReadData+0x26>
    4774:	2c 9a       	sbi	0x05, 4	; 5
    4776:	08 95       	ret

00004778 <Set_OTPSpecialFunction>:
    4778:	2c 98       	cbi	0x05, 4	; 5
    477a:	02 96       	adiw	r24, 0x02	; 2
    477c:	21 e0       	ldi	r18, 0x01	; 1
    477e:	30 e0       	ldi	r19, 0x00	; 0
    4780:	7d ee       	ldi	r23, 0xED	; 237
    4782:	62 e1       	ldi	r22, 0x12	; 18
    4784:	a9 01       	movw	r20, r18
    4786:	41 50       	subi	r20, 0x01	; 1
    4788:	51 09       	sbc	r21, r1
    478a:	79 f0       	breq	.+30     	; 0x47aa <Set_OTPSpecialFunction+0x32>
    478c:	41 30       	cpi	r20, 0x01	; 1
    478e:	51 05       	cpc	r21, r1
    4790:	89 f4       	brne	.+34     	; 0x47b4 <Set_OTPSpecialFunction+0x3c>
    4792:	6e bd       	out	0x2e, r22	; 46
    4794:	0d b4       	in	r0, 0x2d	; 45
    4796:	07 fe       	sbrs	r0, 7
    4798:	fd cf       	rjmp	.-6      	; 0x4794 <Set_OTPSpecialFunction+0x1c>
    479a:	4e b5       	in	r20, 0x2e	; 46
    479c:	2f 5f       	subi	r18, 0xFF	; 255
    479e:	3f 4f       	sbci	r19, 0xFF	; 255
    47a0:	01 97       	sbiw	r24, 0x01	; 1
    47a2:	a9 01       	movw	r20, r18
    47a4:	41 50       	subi	r20, 0x01	; 1
    47a6:	51 09       	sbc	r21, r1
    47a8:	89 f7       	brne	.-30     	; 0x478c <Set_OTPSpecialFunction+0x14>
    47aa:	7e bd       	out	0x2e, r23	; 46
    47ac:	0d b4       	in	r0, 0x2d	; 45
    47ae:	07 fe       	sbrs	r0, 7
    47b0:	fd cf       	rjmp	.-6      	; 0x47ac <Set_OTPSpecialFunction+0x34>
    47b2:	f3 cf       	rjmp	.-26     	; 0x479a <Set_OTPSpecialFunction+0x22>
    47b4:	fc 01       	movw	r30, r24
    47b6:	40 81       	ld	r20, Z
    47b8:	4e bd       	out	0x2e, r20	; 46
    47ba:	0d b4       	in	r0, 0x2d	; 45
    47bc:	07 fe       	sbrs	r0, 7
    47be:	fd cf       	rjmp	.-6      	; 0x47ba <Set_OTPSpecialFunction+0x42>
    47c0:	4e b5       	in	r20, 0x2e	; 46
    47c2:	23 30       	cpi	r18, 0x03	; 3
    47c4:	31 05       	cpc	r19, r1
    47c6:	51 f7       	brne	.-44     	; 0x479c <Set_OTPSpecialFunction+0x24>
    47c8:	2c 9a       	sbi	0x05, 4	; 5
    47ca:	08 95       	ret

000047cc <Set_LeadingEdgeDetectionInterface>:
    47cc:	bf 92       	push	r11
    47ce:	cf 92       	push	r12
    47d0:	df 92       	push	r13
    47d2:	ef 92       	push	r14
    47d4:	ff 92       	push	r15
    47d6:	0f 93       	push	r16
    47d8:	1f 93       	push	r17
    47da:	cf 93       	push	r28
    47dc:	df 93       	push	r29
    47de:	2c 98       	cbi	0x05, 4	; 5
    47e0:	ec 01       	movw	r28, r24
    47e2:	24 96       	adiw	r28, 0x04	; 4
    47e4:	a1 e0       	ldi	r26, 0x01	; 1
    47e6:	b0 e0       	ldi	r27, 0x00	; 0
    47e8:	90 e8       	ldi	r25, 0x80	; 128
    47ea:	b9 2e       	mov	r11, r25
    47ec:	9e ee       	ldi	r25, 0xEE	; 238
    47ee:	fd 01       	movw	r30, r26
    47f0:	31 97       	sbiw	r30, 0x01	; 1
    47f2:	e1 30       	cpi	r30, 0x01	; 1
    47f4:	f1 05       	cpc	r31, r1
    47f6:	a9 f0       	breq	.+42     	; 0x4822 <Set_LeadingEdgeDetectionInterface+0x56>
    47f8:	e2 30       	cpi	r30, 0x02	; 2
    47fa:	f1 05       	cpc	r31, r1
    47fc:	f1 f0       	breq	.+60     	; 0x483a <Set_LeadingEdgeDetectionInterface+0x6e>
    47fe:	ef 2b       	or	r30, r31
    4800:	b1 f0       	breq	.+44     	; 0x482e <Set_LeadingEdgeDetectionInterface+0x62>
    4802:	88 81       	ld	r24, Y
    4804:	8e bd       	out	0x2e, r24	; 46
    4806:	0d b4       	in	r0, 0x2d	; 45
    4808:	07 fe       	sbrs	r0, 7
    480a:	fd cf       	rjmp	.-6      	; 0x4806 <Set_LeadingEdgeDetectionInterface+0x3a>
    480c:	8e b5       	in	r24, 0x2e	; 46
    480e:	a5 30       	cpi	r26, 0x05	; 5
    4810:	b1 05       	cpc	r27, r1
    4812:	c9 f0       	breq	.+50     	; 0x4846 <Set_LeadingEdgeDetectionInterface+0x7a>
    4814:	11 96       	adiw	r26, 0x01	; 1
    4816:	21 97       	sbiw	r28, 0x01	; 1
    4818:	fd 01       	movw	r30, r26
    481a:	31 97       	sbiw	r30, 0x01	; 1
    481c:	e1 30       	cpi	r30, 0x01	; 1
    481e:	f1 05       	cpc	r31, r1
    4820:	59 f7       	brne	.-42     	; 0x47f8 <Set_LeadingEdgeDetectionInterface+0x2c>
    4822:	be bc       	out	0x2e, r11	; 46
    4824:	0d b4       	in	r0, 0x2d	; 45
    4826:	07 fe       	sbrs	r0, 7
    4828:	fd cf       	rjmp	.-6      	; 0x4824 <Set_LeadingEdgeDetectionInterface+0x58>
    482a:	8e b5       	in	r24, 0x2e	; 46
    482c:	f3 cf       	rjmp	.-26     	; 0x4814 <Set_LeadingEdgeDetectionInterface+0x48>
    482e:	9e bd       	out	0x2e, r25	; 46
    4830:	0d b4       	in	r0, 0x2d	; 45
    4832:	07 fe       	sbrs	r0, 7
    4834:	fd cf       	rjmp	.-6      	; 0x4830 <Set_LeadingEdgeDetectionInterface+0x64>
    4836:	8e b5       	in	r24, 0x2e	; 46
    4838:	ed cf       	rjmp	.-38     	; 0x4814 <Set_LeadingEdgeDetectionInterface+0x48>
    483a:	1e bc       	out	0x2e, r1	; 46
    483c:	0d b4       	in	r0, 0x2d	; 45
    483e:	07 fe       	sbrs	r0, 7
    4840:	fd cf       	rjmp	.-6      	; 0x483c <Set_LeadingEdgeDetectionInterface+0x70>
    4842:	8e b5       	in	r24, 0x2e	; 46
    4844:	e7 cf       	rjmp	.-50     	; 0x4814 <Set_LeadingEdgeDetectionInterface+0x48>
    4846:	2c 9a       	sbi	0x05, 4	; 5
    4848:	2c 98       	cbi	0x05, 4	; 5
    484a:	6d 5f       	subi	r22, 0xFD	; 253
    484c:	7f 4f       	sbci	r23, 0xFF	; 255
    484e:	e1 e0       	ldi	r30, 0x01	; 1
    4850:	f0 e0       	ldi	r31, 0x00	; 0
    4852:	86 e8       	ldi	r24, 0x86	; 134
    4854:	b8 2e       	mov	r11, r24
    4856:	b0 e1       	ldi	r27, 0x10	; 16
    4858:	ae ee       	ldi	r26, 0xEE	; 238
    485a:	cf 01       	movw	r24, r30
    485c:	01 97       	sbiw	r24, 0x01	; 1
    485e:	81 30       	cpi	r24, 0x01	; 1
    4860:	91 05       	cpc	r25, r1
    4862:	c1 f0       	breq	.+48     	; 0x4894 <Set_LeadingEdgeDetectionInterface+0xc8>
    4864:	82 30       	cpi	r24, 0x02	; 2
    4866:	91 05       	cpc	r25, r1
    4868:	09 f4       	brne	.+2      	; 0x486c <Set_LeadingEdgeDetectionInterface+0xa0>
    486a:	39 c1       	rjmp	.+626    	; 0x4ade <Set_LeadingEdgeDetectionInterface+0x312>
    486c:	89 2b       	or	r24, r25
    486e:	c1 f0       	breq	.+48     	; 0x48a0 <Set_LeadingEdgeDetectionInterface+0xd4>
    4870:	eb 01       	movw	r28, r22
    4872:	88 81       	ld	r24, Y
    4874:	8e bd       	out	0x2e, r24	; 46
    4876:	0d b4       	in	r0, 0x2d	; 45
    4878:	07 fe       	sbrs	r0, 7
    487a:	fd cf       	rjmp	.-6      	; 0x4876 <Set_LeadingEdgeDetectionInterface+0xaa>
    487c:	8e b5       	in	r24, 0x2e	; 46
    487e:	e4 30       	cpi	r30, 0x04	; 4
    4880:	f1 05       	cpc	r31, r1
    4882:	a1 f0       	breq	.+40     	; 0x48ac <Set_LeadingEdgeDetectionInterface+0xe0>
    4884:	31 96       	adiw	r30, 0x01	; 1
    4886:	61 50       	subi	r22, 0x01	; 1
    4888:	71 09       	sbc	r23, r1
    488a:	cf 01       	movw	r24, r30
    488c:	01 97       	sbiw	r24, 0x01	; 1
    488e:	81 30       	cpi	r24, 0x01	; 1
    4890:	91 05       	cpc	r25, r1
    4892:	41 f7       	brne	.-48     	; 0x4864 <Set_LeadingEdgeDetectionInterface+0x98>
    4894:	be bc       	out	0x2e, r11	; 46
    4896:	0d b4       	in	r0, 0x2d	; 45
    4898:	07 fe       	sbrs	r0, 7
    489a:	fd cf       	rjmp	.-6      	; 0x4896 <Set_LeadingEdgeDetectionInterface+0xca>
    489c:	8e b5       	in	r24, 0x2e	; 46
    489e:	f2 cf       	rjmp	.-28     	; 0x4884 <Set_LeadingEdgeDetectionInterface+0xb8>
    48a0:	ae bd       	out	0x2e, r26	; 46
    48a2:	0d b4       	in	r0, 0x2d	; 45
    48a4:	07 fe       	sbrs	r0, 7
    48a6:	fd cf       	rjmp	.-6      	; 0x48a2 <Set_LeadingEdgeDetectionInterface+0xd6>
    48a8:	8e b5       	in	r24, 0x2e	; 46
    48aa:	ec cf       	rjmp	.-40     	; 0x4884 <Set_LeadingEdgeDetectionInterface+0xb8>
    48ac:	2c 9a       	sbi	0x05, 4	; 5
    48ae:	2c 98       	cbi	0x05, 4	; 5
    48b0:	ea 01       	movw	r28, r20
    48b2:	24 96       	adiw	r28, 0x04	; 4
    48b4:	61 e0       	ldi	r22, 0x01	; 1
    48b6:	70 e0       	ldi	r23, 0x00	; 0
    48b8:	a0 e8       	ldi	r26, 0x80	; 128
    48ba:	f0 e2       	ldi	r31, 0x20	; 32
    48bc:	ee ee       	ldi	r30, 0xEE	; 238
    48be:	cb 01       	movw	r24, r22
    48c0:	01 97       	sbiw	r24, 0x01	; 1
    48c2:	81 30       	cpi	r24, 0x01	; 1
    48c4:	91 05       	cpc	r25, r1
    48c6:	b1 f0       	breq	.+44     	; 0x48f4 <Set_LeadingEdgeDetectionInterface+0x128>
    48c8:	82 30       	cpi	r24, 0x02	; 2
    48ca:	91 05       	cpc	r25, r1
    48cc:	f9 f0       	breq	.+62     	; 0x490c <Set_LeadingEdgeDetectionInterface+0x140>
    48ce:	89 2b       	or	r24, r25
    48d0:	b9 f0       	breq	.+46     	; 0x4900 <Set_LeadingEdgeDetectionInterface+0x134>
    48d2:	88 81       	ld	r24, Y
    48d4:	8e bd       	out	0x2e, r24	; 46
    48d6:	0d b4       	in	r0, 0x2d	; 45
    48d8:	07 fe       	sbrs	r0, 7
    48da:	fd cf       	rjmp	.-6      	; 0x48d6 <Set_LeadingEdgeDetectionInterface+0x10a>
    48dc:	8e b5       	in	r24, 0x2e	; 46
    48de:	65 30       	cpi	r22, 0x05	; 5
    48e0:	71 05       	cpc	r23, r1
    48e2:	d1 f0       	breq	.+52     	; 0x4918 <Set_LeadingEdgeDetectionInterface+0x14c>
    48e4:	6f 5f       	subi	r22, 0xFF	; 255
    48e6:	7f 4f       	sbci	r23, 0xFF	; 255
    48e8:	21 97       	sbiw	r28, 0x01	; 1
    48ea:	cb 01       	movw	r24, r22
    48ec:	01 97       	sbiw	r24, 0x01	; 1
    48ee:	81 30       	cpi	r24, 0x01	; 1
    48f0:	91 05       	cpc	r25, r1
    48f2:	51 f7       	brne	.-44     	; 0x48c8 <Set_LeadingEdgeDetectionInterface+0xfc>
    48f4:	ae bd       	out	0x2e, r26	; 46
    48f6:	0d b4       	in	r0, 0x2d	; 45
    48f8:	07 fe       	sbrs	r0, 7
    48fa:	fd cf       	rjmp	.-6      	; 0x48f6 <Set_LeadingEdgeDetectionInterface+0x12a>
    48fc:	8e b5       	in	r24, 0x2e	; 46
    48fe:	f2 cf       	rjmp	.-28     	; 0x48e4 <Set_LeadingEdgeDetectionInterface+0x118>
    4900:	ee bd       	out	0x2e, r30	; 46
    4902:	0d b4       	in	r0, 0x2d	; 45
    4904:	07 fe       	sbrs	r0, 7
    4906:	fd cf       	rjmp	.-6      	; 0x4902 <Set_LeadingEdgeDetectionInterface+0x136>
    4908:	8e b5       	in	r24, 0x2e	; 46
    490a:	ec cf       	rjmp	.-40     	; 0x48e4 <Set_LeadingEdgeDetectionInterface+0x118>
    490c:	fe bd       	out	0x2e, r31	; 46
    490e:	0d b4       	in	r0, 0x2d	; 45
    4910:	07 fe       	sbrs	r0, 7
    4912:	fd cf       	rjmp	.-6      	; 0x490e <Set_LeadingEdgeDetectionInterface+0x142>
    4914:	8e b5       	in	r24, 0x2e	; 46
    4916:	e6 cf       	rjmp	.-52     	; 0x48e4 <Set_LeadingEdgeDetectionInterface+0x118>
    4918:	2c 9a       	sbi	0x05, 4	; 5
    491a:	2c 98       	cbi	0x05, 4	; 5
    491c:	d9 01       	movw	r26, r18
    491e:	14 96       	adiw	r26, 0x04	; 4
    4920:	41 e0       	ldi	r20, 0x01	; 1
    4922:	50 e0       	ldi	r21, 0x00	; 0
    4924:	e2 e8       	ldi	r30, 0x82	; 130
    4926:	70 e2       	ldi	r23, 0x20	; 32
    4928:	6e ee       	ldi	r22, 0xEE	; 238
    492a:	ca 01       	movw	r24, r20
    492c:	01 97       	sbiw	r24, 0x01	; 1
    492e:	81 30       	cpi	r24, 0x01	; 1
    4930:	91 05       	cpc	r25, r1
    4932:	b1 f0       	breq	.+44     	; 0x4960 <Set_LeadingEdgeDetectionInterface+0x194>
    4934:	82 30       	cpi	r24, 0x02	; 2
    4936:	91 05       	cpc	r25, r1
    4938:	f9 f0       	breq	.+62     	; 0x4978 <Set_LeadingEdgeDetectionInterface+0x1ac>
    493a:	89 2b       	or	r24, r25
    493c:	b9 f0       	breq	.+46     	; 0x496c <Set_LeadingEdgeDetectionInterface+0x1a0>
    493e:	8c 91       	ld	r24, X
    4940:	8e bd       	out	0x2e, r24	; 46
    4942:	0d b4       	in	r0, 0x2d	; 45
    4944:	07 fe       	sbrs	r0, 7
    4946:	fd cf       	rjmp	.-6      	; 0x4942 <Set_LeadingEdgeDetectionInterface+0x176>
    4948:	8e b5       	in	r24, 0x2e	; 46
    494a:	45 30       	cpi	r20, 0x05	; 5
    494c:	51 05       	cpc	r21, r1
    494e:	d1 f0       	breq	.+52     	; 0x4984 <Set_LeadingEdgeDetectionInterface+0x1b8>
    4950:	4f 5f       	subi	r20, 0xFF	; 255
    4952:	5f 4f       	sbci	r21, 0xFF	; 255
    4954:	11 97       	sbiw	r26, 0x01	; 1
    4956:	ca 01       	movw	r24, r20
    4958:	01 97       	sbiw	r24, 0x01	; 1
    495a:	81 30       	cpi	r24, 0x01	; 1
    495c:	91 05       	cpc	r25, r1
    495e:	51 f7       	brne	.-44     	; 0x4934 <Set_LeadingEdgeDetectionInterface+0x168>
    4960:	ee bd       	out	0x2e, r30	; 46
    4962:	0d b4       	in	r0, 0x2d	; 45
    4964:	07 fe       	sbrs	r0, 7
    4966:	fd cf       	rjmp	.-6      	; 0x4962 <Set_LeadingEdgeDetectionInterface+0x196>
    4968:	8e b5       	in	r24, 0x2e	; 46
    496a:	f2 cf       	rjmp	.-28     	; 0x4950 <Set_LeadingEdgeDetectionInterface+0x184>
    496c:	6e bd       	out	0x2e, r22	; 46
    496e:	0d b4       	in	r0, 0x2d	; 45
    4970:	07 fe       	sbrs	r0, 7
    4972:	fd cf       	rjmp	.-6      	; 0x496e <Set_LeadingEdgeDetectionInterface+0x1a2>
    4974:	8e b5       	in	r24, 0x2e	; 46
    4976:	ec cf       	rjmp	.-40     	; 0x4950 <Set_LeadingEdgeDetectionInterface+0x184>
    4978:	7e bd       	out	0x2e, r23	; 46
    497a:	0d b4       	in	r0, 0x2d	; 45
    497c:	07 fe       	sbrs	r0, 7
    497e:	fd cf       	rjmp	.-6      	; 0x497a <Set_LeadingEdgeDetectionInterface+0x1ae>
    4980:	8e b5       	in	r24, 0x2e	; 46
    4982:	e6 cf       	rjmp	.-52     	; 0x4950 <Set_LeadingEdgeDetectionInterface+0x184>
    4984:	2c 9a       	sbi	0x05, 4	; 5
    4986:	2c 98       	cbi	0x05, 4	; 5
    4988:	f8 01       	movw	r30, r16
    498a:	34 96       	adiw	r30, 0x04	; 4
    498c:	21 e0       	ldi	r18, 0x01	; 1
    498e:	30 e0       	ldi	r19, 0x00	; 0
    4990:	64 e8       	ldi	r22, 0x84	; 132
    4992:	50 e3       	ldi	r21, 0x30	; 48
    4994:	4e ee       	ldi	r20, 0xEE	; 238
    4996:	c9 01       	movw	r24, r18
    4998:	01 97       	sbiw	r24, 0x01	; 1
    499a:	81 30       	cpi	r24, 0x01	; 1
    499c:	91 05       	cpc	r25, r1
    499e:	b1 f0       	breq	.+44     	; 0x49cc <Set_LeadingEdgeDetectionInterface+0x200>
    49a0:	82 30       	cpi	r24, 0x02	; 2
    49a2:	91 05       	cpc	r25, r1
    49a4:	f9 f0       	breq	.+62     	; 0x49e4 <Set_LeadingEdgeDetectionInterface+0x218>
    49a6:	89 2b       	or	r24, r25
    49a8:	b9 f0       	breq	.+46     	; 0x49d8 <Set_LeadingEdgeDetectionInterface+0x20c>
    49aa:	80 81       	ld	r24, Z
    49ac:	8e bd       	out	0x2e, r24	; 46
    49ae:	0d b4       	in	r0, 0x2d	; 45
    49b0:	07 fe       	sbrs	r0, 7
    49b2:	fd cf       	rjmp	.-6      	; 0x49ae <Set_LeadingEdgeDetectionInterface+0x1e2>
    49b4:	8e b5       	in	r24, 0x2e	; 46
    49b6:	25 30       	cpi	r18, 0x05	; 5
    49b8:	31 05       	cpc	r19, r1
    49ba:	d1 f0       	breq	.+52     	; 0x49f0 <Set_LeadingEdgeDetectionInterface+0x224>
    49bc:	2f 5f       	subi	r18, 0xFF	; 255
    49be:	3f 4f       	sbci	r19, 0xFF	; 255
    49c0:	31 97       	sbiw	r30, 0x01	; 1
    49c2:	c9 01       	movw	r24, r18
    49c4:	01 97       	sbiw	r24, 0x01	; 1
    49c6:	81 30       	cpi	r24, 0x01	; 1
    49c8:	91 05       	cpc	r25, r1
    49ca:	51 f7       	brne	.-44     	; 0x49a0 <Set_LeadingEdgeDetectionInterface+0x1d4>
    49cc:	6e bd       	out	0x2e, r22	; 46
    49ce:	0d b4       	in	r0, 0x2d	; 45
    49d0:	07 fe       	sbrs	r0, 7
    49d2:	fd cf       	rjmp	.-6      	; 0x49ce <Set_LeadingEdgeDetectionInterface+0x202>
    49d4:	8e b5       	in	r24, 0x2e	; 46
    49d6:	f2 cf       	rjmp	.-28     	; 0x49bc <Set_LeadingEdgeDetectionInterface+0x1f0>
    49d8:	4e bd       	out	0x2e, r20	; 46
    49da:	0d b4       	in	r0, 0x2d	; 45
    49dc:	07 fe       	sbrs	r0, 7
    49de:	fd cf       	rjmp	.-6      	; 0x49da <Set_LeadingEdgeDetectionInterface+0x20e>
    49e0:	8e b5       	in	r24, 0x2e	; 46
    49e2:	ec cf       	rjmp	.-40     	; 0x49bc <Set_LeadingEdgeDetectionInterface+0x1f0>
    49e4:	5e bd       	out	0x2e, r21	; 46
    49e6:	0d b4       	in	r0, 0x2d	; 45
    49e8:	07 fe       	sbrs	r0, 7
    49ea:	fd cf       	rjmp	.-6      	; 0x49e6 <Set_LeadingEdgeDetectionInterface+0x21a>
    49ec:	8e b5       	in	r24, 0x2e	; 46
    49ee:	e6 cf       	rjmp	.-52     	; 0x49bc <Set_LeadingEdgeDetectionInterface+0x1f0>
    49f0:	2c 9a       	sbi	0x05, 4	; 5
    49f2:	2c 98       	cbi	0x05, 4	; 5
    49f4:	f7 01       	movw	r30, r14
    49f6:	34 96       	adiw	r30, 0x04	; 4
    49f8:	21 e0       	ldi	r18, 0x01	; 1
    49fa:	30 e0       	ldi	r19, 0x00	; 0
    49fc:	66 e8       	ldi	r22, 0x86	; 134
    49fe:	50 e3       	ldi	r21, 0x30	; 48
    4a00:	4e ee       	ldi	r20, 0xEE	; 238
    4a02:	c9 01       	movw	r24, r18
    4a04:	01 97       	sbiw	r24, 0x01	; 1
    4a06:	81 30       	cpi	r24, 0x01	; 1
    4a08:	91 05       	cpc	r25, r1
    4a0a:	b1 f0       	breq	.+44     	; 0x4a38 <Set_LeadingEdgeDetectionInterface+0x26c>
    4a0c:	82 30       	cpi	r24, 0x02	; 2
    4a0e:	91 05       	cpc	r25, r1
    4a10:	f9 f0       	breq	.+62     	; 0x4a50 <Set_LeadingEdgeDetectionInterface+0x284>
    4a12:	89 2b       	or	r24, r25
    4a14:	b9 f0       	breq	.+46     	; 0x4a44 <Set_LeadingEdgeDetectionInterface+0x278>
    4a16:	80 81       	ld	r24, Z
    4a18:	8e bd       	out	0x2e, r24	; 46
    4a1a:	0d b4       	in	r0, 0x2d	; 45
    4a1c:	07 fe       	sbrs	r0, 7
    4a1e:	fd cf       	rjmp	.-6      	; 0x4a1a <Set_LeadingEdgeDetectionInterface+0x24e>
    4a20:	8e b5       	in	r24, 0x2e	; 46
    4a22:	25 30       	cpi	r18, 0x05	; 5
    4a24:	31 05       	cpc	r19, r1
    4a26:	d1 f0       	breq	.+52     	; 0x4a5c <Set_LeadingEdgeDetectionInterface+0x290>
    4a28:	2f 5f       	subi	r18, 0xFF	; 255
    4a2a:	3f 4f       	sbci	r19, 0xFF	; 255
    4a2c:	31 97       	sbiw	r30, 0x01	; 1
    4a2e:	c9 01       	movw	r24, r18
    4a30:	01 97       	sbiw	r24, 0x01	; 1
    4a32:	81 30       	cpi	r24, 0x01	; 1
    4a34:	91 05       	cpc	r25, r1
    4a36:	51 f7       	brne	.-44     	; 0x4a0c <Set_LeadingEdgeDetectionInterface+0x240>
    4a38:	6e bd       	out	0x2e, r22	; 46
    4a3a:	0d b4       	in	r0, 0x2d	; 45
    4a3c:	07 fe       	sbrs	r0, 7
    4a3e:	fd cf       	rjmp	.-6      	; 0x4a3a <Set_LeadingEdgeDetectionInterface+0x26e>
    4a40:	8e b5       	in	r24, 0x2e	; 46
    4a42:	f2 cf       	rjmp	.-28     	; 0x4a28 <Set_LeadingEdgeDetectionInterface+0x25c>
    4a44:	4e bd       	out	0x2e, r20	; 46
    4a46:	0d b4       	in	r0, 0x2d	; 45
    4a48:	07 fe       	sbrs	r0, 7
    4a4a:	fd cf       	rjmp	.-6      	; 0x4a46 <Set_LeadingEdgeDetectionInterface+0x27a>
    4a4c:	8e b5       	in	r24, 0x2e	; 46
    4a4e:	ec cf       	rjmp	.-40     	; 0x4a28 <Set_LeadingEdgeDetectionInterface+0x25c>
    4a50:	5e bd       	out	0x2e, r21	; 46
    4a52:	0d b4       	in	r0, 0x2d	; 45
    4a54:	07 fe       	sbrs	r0, 7
    4a56:	fd cf       	rjmp	.-6      	; 0x4a52 <Set_LeadingEdgeDetectionInterface+0x286>
    4a58:	8e b5       	in	r24, 0x2e	; 46
    4a5a:	e6 cf       	rjmp	.-52     	; 0x4a28 <Set_LeadingEdgeDetectionInterface+0x25c>
    4a5c:	2c 9a       	sbi	0x05, 4	; 5
    4a5e:	2c 98       	cbi	0x05, 4	; 5
    4a60:	f6 01       	movw	r30, r12
    4a62:	34 96       	adiw	r30, 0x04	; 4
    4a64:	21 e0       	ldi	r18, 0x01	; 1
    4a66:	30 e0       	ldi	r19, 0x00	; 0
    4a68:	64 e8       	ldi	r22, 0x84	; 132
    4a6a:	50 e5       	ldi	r21, 0x50	; 80
    4a6c:	4e ee       	ldi	r20, 0xEE	; 238
    4a6e:	c9 01       	movw	r24, r18
    4a70:	01 97       	sbiw	r24, 0x01	; 1
    4a72:	81 30       	cpi	r24, 0x01	; 1
    4a74:	91 05       	cpc	r25, r1
    4a76:	b1 f0       	breq	.+44     	; 0x4aa4 <Set_LeadingEdgeDetectionInterface+0x2d8>
    4a78:	82 30       	cpi	r24, 0x02	; 2
    4a7a:	91 05       	cpc	r25, r1
    4a7c:	f9 f0       	breq	.+62     	; 0x4abc <Set_LeadingEdgeDetectionInterface+0x2f0>
    4a7e:	89 2b       	or	r24, r25
    4a80:	b9 f0       	breq	.+46     	; 0x4ab0 <Set_LeadingEdgeDetectionInterface+0x2e4>
    4a82:	80 81       	ld	r24, Z
    4a84:	8e bd       	out	0x2e, r24	; 46
    4a86:	0d b4       	in	r0, 0x2d	; 45
    4a88:	07 fe       	sbrs	r0, 7
    4a8a:	fd cf       	rjmp	.-6      	; 0x4a86 <Set_LeadingEdgeDetectionInterface+0x2ba>
    4a8c:	8e b5       	in	r24, 0x2e	; 46
    4a8e:	25 30       	cpi	r18, 0x05	; 5
    4a90:	31 05       	cpc	r19, r1
    4a92:	d1 f0       	breq	.+52     	; 0x4ac8 <Set_LeadingEdgeDetectionInterface+0x2fc>
    4a94:	2f 5f       	subi	r18, 0xFF	; 255
    4a96:	3f 4f       	sbci	r19, 0xFF	; 255
    4a98:	31 97       	sbiw	r30, 0x01	; 1
    4a9a:	c9 01       	movw	r24, r18
    4a9c:	01 97       	sbiw	r24, 0x01	; 1
    4a9e:	81 30       	cpi	r24, 0x01	; 1
    4aa0:	91 05       	cpc	r25, r1
    4aa2:	51 f7       	brne	.-44     	; 0x4a78 <Set_LeadingEdgeDetectionInterface+0x2ac>
    4aa4:	6e bd       	out	0x2e, r22	; 46
    4aa6:	0d b4       	in	r0, 0x2d	; 45
    4aa8:	07 fe       	sbrs	r0, 7
    4aaa:	fd cf       	rjmp	.-6      	; 0x4aa6 <Set_LeadingEdgeDetectionInterface+0x2da>
    4aac:	8e b5       	in	r24, 0x2e	; 46
    4aae:	f2 cf       	rjmp	.-28     	; 0x4a94 <Set_LeadingEdgeDetectionInterface+0x2c8>
    4ab0:	4e bd       	out	0x2e, r20	; 46
    4ab2:	0d b4       	in	r0, 0x2d	; 45
    4ab4:	07 fe       	sbrs	r0, 7
    4ab6:	fd cf       	rjmp	.-6      	; 0x4ab2 <Set_LeadingEdgeDetectionInterface+0x2e6>
    4ab8:	8e b5       	in	r24, 0x2e	; 46
    4aba:	ec cf       	rjmp	.-40     	; 0x4a94 <Set_LeadingEdgeDetectionInterface+0x2c8>
    4abc:	5e bd       	out	0x2e, r21	; 46
    4abe:	0d b4       	in	r0, 0x2d	; 45
    4ac0:	07 fe       	sbrs	r0, 7
    4ac2:	fd cf       	rjmp	.-6      	; 0x4abe <Set_LeadingEdgeDetectionInterface+0x2f2>
    4ac4:	8e b5       	in	r24, 0x2e	; 46
    4ac6:	e6 cf       	rjmp	.-52     	; 0x4a94 <Set_LeadingEdgeDetectionInterface+0x2c8>
    4ac8:	2c 9a       	sbi	0x05, 4	; 5
    4aca:	df 91       	pop	r29
    4acc:	cf 91       	pop	r28
    4ace:	1f 91       	pop	r17
    4ad0:	0f 91       	pop	r16
    4ad2:	ff 90       	pop	r15
    4ad4:	ef 90       	pop	r14
    4ad6:	df 90       	pop	r13
    4ad8:	cf 90       	pop	r12
    4ada:	bf 90       	pop	r11
    4adc:	08 95       	ret
    4ade:	be bd       	out	0x2e, r27	; 46
    4ae0:	0d b4       	in	r0, 0x2d	; 45
    4ae2:	07 fe       	sbrs	r0, 7
    4ae4:	fd cf       	rjmp	.-6      	; 0x4ae0 <Set_LeadingEdgeDetectionInterface+0x314>
    4ae6:	8e b5       	in	r24, 0x2e	; 46
    4ae8:	cd ce       	rjmp	.-614    	; 0x4884 <Set_LeadingEdgeDetectionInterface+0xb8>

00004aea <Set_PowerManagementAndSystemControl>:
    4aea:	0f 93       	push	r16
    4aec:	1f 93       	push	r17
    4aee:	cf 93       	push	r28
    4af0:	df 93       	push	r29
    4af2:	2c 98       	cbi	0x05, 4	; 5
    4af4:	ec 01       	movw	r28, r24
    4af6:	25 96       	adiw	r28, 0x05	; 5
    4af8:	e1 e0       	ldi	r30, 0x01	; 1
    4afa:	f0 e0       	ldi	r31, 0x00	; 0
    4afc:	96 ef       	ldi	r25, 0xF6	; 246
    4afe:	df 01       	movw	r26, r30
    4b00:	11 97       	sbiw	r26, 0x01	; 1
    4b02:	61 f0       	breq	.+24     	; 0x4b1c <Set_PowerManagementAndSystemControl+0x32>
    4b04:	11 97       	sbiw	r26, 0x01	; 1
    4b06:	79 f4       	brne	.+30     	; 0x4b26 <Set_PowerManagementAndSystemControl+0x3c>
    4b08:	1e bc       	out	0x2e, r1	; 46
    4b0a:	0d b4       	in	r0, 0x2d	; 45
    4b0c:	07 fe       	sbrs	r0, 7
    4b0e:	fd cf       	rjmp	.-6      	; 0x4b0a <Set_PowerManagementAndSystemControl+0x20>
    4b10:	8e b5       	in	r24, 0x2e	; 46
    4b12:	31 96       	adiw	r30, 0x01	; 1
    4b14:	21 97       	sbiw	r28, 0x01	; 1
    4b16:	df 01       	movw	r26, r30
    4b18:	11 97       	sbiw	r26, 0x01	; 1
    4b1a:	a1 f7       	brne	.-24     	; 0x4b04 <Set_PowerManagementAndSystemControl+0x1a>
    4b1c:	9e bd       	out	0x2e, r25	; 46
    4b1e:	0d b4       	in	r0, 0x2d	; 45
    4b20:	07 fe       	sbrs	r0, 7
    4b22:	fd cf       	rjmp	.-6      	; 0x4b1e <Set_PowerManagementAndSystemControl+0x34>
    4b24:	f5 cf       	rjmp	.-22     	; 0x4b10 <Set_PowerManagementAndSystemControl+0x26>
    4b26:	88 81       	ld	r24, Y
    4b28:	8e bd       	out	0x2e, r24	; 46
    4b2a:	0d b4       	in	r0, 0x2d	; 45
    4b2c:	07 fe       	sbrs	r0, 7
    4b2e:	fd cf       	rjmp	.-6      	; 0x4b2a <Set_PowerManagementAndSystemControl+0x40>
    4b30:	8e b5       	in	r24, 0x2e	; 46
    4b32:	e6 30       	cpi	r30, 0x06	; 6
    4b34:	f1 05       	cpc	r31, r1
    4b36:	69 f7       	brne	.-38     	; 0x4b12 <Set_PowerManagementAndSystemControl+0x28>
    4b38:	2c 9a       	sbi	0x05, 4	; 5
    4b3a:	2c 98       	cbi	0x05, 4	; 5
    4b3c:	db 01       	movw	r26, r22
    4b3e:	15 96       	adiw	r26, 0x05	; 5
    4b40:	81 e0       	ldi	r24, 0x01	; 1
    4b42:	90 e0       	ldi	r25, 0x00	; 0
    4b44:	c6 ef       	ldi	r28, 0xF6	; 246
    4b46:	74 e0       	ldi	r23, 0x04	; 4
    4b48:	fc 01       	movw	r30, r24
    4b4a:	31 97       	sbiw	r30, 0x01	; 1
    4b4c:	61 f0       	breq	.+24     	; 0x4b66 <Set_PowerManagementAndSystemControl+0x7c>
    4b4e:	31 97       	sbiw	r30, 0x01	; 1
    4b50:	79 f4       	brne	.+30     	; 0x4b70 <Set_PowerManagementAndSystemControl+0x86>
    4b52:	7e bd       	out	0x2e, r23	; 46
    4b54:	0d b4       	in	r0, 0x2d	; 45
    4b56:	07 fe       	sbrs	r0, 7
    4b58:	fd cf       	rjmp	.-6      	; 0x4b54 <Set_PowerManagementAndSystemControl+0x6a>
    4b5a:	6e b5       	in	r22, 0x2e	; 46
    4b5c:	01 96       	adiw	r24, 0x01	; 1
    4b5e:	11 97       	sbiw	r26, 0x01	; 1
    4b60:	fc 01       	movw	r30, r24
    4b62:	31 97       	sbiw	r30, 0x01	; 1
    4b64:	a1 f7       	brne	.-24     	; 0x4b4e <Set_PowerManagementAndSystemControl+0x64>
    4b66:	ce bd       	out	0x2e, r28	; 46
    4b68:	0d b4       	in	r0, 0x2d	; 45
    4b6a:	07 fe       	sbrs	r0, 7
    4b6c:	fd cf       	rjmp	.-6      	; 0x4b68 <Set_PowerManagementAndSystemControl+0x7e>
    4b6e:	f5 cf       	rjmp	.-22     	; 0x4b5a <Set_PowerManagementAndSystemControl+0x70>
    4b70:	6c 91       	ld	r22, X
    4b72:	6e bd       	out	0x2e, r22	; 46
    4b74:	0d b4       	in	r0, 0x2d	; 45
    4b76:	07 fe       	sbrs	r0, 7
    4b78:	fd cf       	rjmp	.-6      	; 0x4b74 <Set_PowerManagementAndSystemControl+0x8a>
    4b7a:	6e b5       	in	r22, 0x2e	; 46
    4b7c:	86 30       	cpi	r24, 0x06	; 6
    4b7e:	91 05       	cpc	r25, r1
    4b80:	69 f7       	brne	.-38     	; 0x4b5c <Set_PowerManagementAndSystemControl+0x72>
    4b82:	2c 9a       	sbi	0x05, 4	; 5
    4b84:	2c 98       	cbi	0x05, 4	; 5
    4b86:	da 01       	movw	r26, r20
    4b88:	12 96       	adiw	r26, 0x02	; 2
    4b8a:	81 e0       	ldi	r24, 0x01	; 1
    4b8c:	90 e0       	ldi	r25, 0x00	; 0
    4b8e:	f6 ef       	ldi	r31, 0xF6	; 246
    4b90:	ec e0       	ldi	r30, 0x0C	; 12
    4b92:	bc 01       	movw	r22, r24
    4b94:	61 50       	subi	r22, 0x01	; 1
    4b96:	71 09       	sbc	r23, r1
    4b98:	71 f0       	breq	.+28     	; 0x4bb6 <Set_PowerManagementAndSystemControl+0xcc>
    4b9a:	61 30       	cpi	r22, 0x01	; 1
    4b9c:	71 05       	cpc	r23, r1
    4b9e:	81 f4       	brne	.+32     	; 0x4bc0 <Set_PowerManagementAndSystemControl+0xd6>
    4ba0:	ee bd       	out	0x2e, r30	; 46
    4ba2:	0d b4       	in	r0, 0x2d	; 45
    4ba4:	07 fe       	sbrs	r0, 7
    4ba6:	fd cf       	rjmp	.-6      	; 0x4ba2 <Set_PowerManagementAndSystemControl+0xb8>
    4ba8:	6e b5       	in	r22, 0x2e	; 46
    4baa:	01 96       	adiw	r24, 0x01	; 1
    4bac:	11 97       	sbiw	r26, 0x01	; 1
    4bae:	bc 01       	movw	r22, r24
    4bb0:	61 50       	subi	r22, 0x01	; 1
    4bb2:	71 09       	sbc	r23, r1
    4bb4:	91 f7       	brne	.-28     	; 0x4b9a <Set_PowerManagementAndSystemControl+0xb0>
    4bb6:	fe bd       	out	0x2e, r31	; 46
    4bb8:	0d b4       	in	r0, 0x2d	; 45
    4bba:	07 fe       	sbrs	r0, 7
    4bbc:	fd cf       	rjmp	.-6      	; 0x4bb8 <Set_PowerManagementAndSystemControl+0xce>
    4bbe:	f4 cf       	rjmp	.-24     	; 0x4ba8 <Set_PowerManagementAndSystemControl+0xbe>
    4bc0:	6c 91       	ld	r22, X
    4bc2:	6e bd       	out	0x2e, r22	; 46
    4bc4:	0d b4       	in	r0, 0x2d	; 45
    4bc6:	07 fe       	sbrs	r0, 7
    4bc8:	fd cf       	rjmp	.-6      	; 0x4bc4 <Set_PowerManagementAndSystemControl+0xda>
    4bca:	6e b5       	in	r22, 0x2e	; 46
    4bcc:	83 30       	cpi	r24, 0x03	; 3
    4bce:	91 05       	cpc	r25, r1
    4bd0:	61 f7       	brne	.-40     	; 0x4baa <Set_PowerManagementAndSystemControl+0xc0>
    4bd2:	2c 9a       	sbi	0x05, 4	; 5
    4bd4:	2c 98       	cbi	0x05, 4	; 5
    4bd6:	f9 01       	movw	r30, r18
    4bd8:	33 96       	adiw	r30, 0x03	; 3
    4bda:	81 e0       	ldi	r24, 0x01	; 1
    4bdc:	90 e0       	ldi	r25, 0x00	; 0
    4bde:	66 ef       	ldi	r22, 0xF6	; 246
    4be0:	36 e2       	ldi	r19, 0x26	; 38
    4be2:	ac 01       	movw	r20, r24
    4be4:	41 50       	subi	r20, 0x01	; 1
    4be6:	51 09       	sbc	r21, r1
    4be8:	71 f0       	breq	.+28     	; 0x4c06 <Set_PowerManagementAndSystemControl+0x11c>
    4bea:	41 30       	cpi	r20, 0x01	; 1
    4bec:	51 05       	cpc	r21, r1
    4bee:	81 f4       	brne	.+32     	; 0x4c10 <Set_PowerManagementAndSystemControl+0x126>
    4bf0:	3e bd       	out	0x2e, r19	; 46
    4bf2:	0d b4       	in	r0, 0x2d	; 45
    4bf4:	07 fe       	sbrs	r0, 7
    4bf6:	fd cf       	rjmp	.-6      	; 0x4bf2 <Set_PowerManagementAndSystemControl+0x108>
    4bf8:	2e b5       	in	r18, 0x2e	; 46
    4bfa:	01 96       	adiw	r24, 0x01	; 1
    4bfc:	31 97       	sbiw	r30, 0x01	; 1
    4bfe:	ac 01       	movw	r20, r24
    4c00:	41 50       	subi	r20, 0x01	; 1
    4c02:	51 09       	sbc	r21, r1
    4c04:	91 f7       	brne	.-28     	; 0x4bea <Set_PowerManagementAndSystemControl+0x100>
    4c06:	6e bd       	out	0x2e, r22	; 46
    4c08:	0d b4       	in	r0, 0x2d	; 45
    4c0a:	07 fe       	sbrs	r0, 7
    4c0c:	fd cf       	rjmp	.-6      	; 0x4c08 <Set_PowerManagementAndSystemControl+0x11e>
    4c0e:	f4 cf       	rjmp	.-24     	; 0x4bf8 <Set_PowerManagementAndSystemControl+0x10e>
    4c10:	20 81       	ld	r18, Z
    4c12:	2e bd       	out	0x2e, r18	; 46
    4c14:	0d b4       	in	r0, 0x2d	; 45
    4c16:	07 fe       	sbrs	r0, 7
    4c18:	fd cf       	rjmp	.-6      	; 0x4c14 <Set_PowerManagementAndSystemControl+0x12a>
    4c1a:	2e b5       	in	r18, 0x2e	; 46
    4c1c:	84 30       	cpi	r24, 0x04	; 4
    4c1e:	91 05       	cpc	r25, r1
    4c20:	61 f7       	brne	.-40     	; 0x4bfa <Set_PowerManagementAndSystemControl+0x110>
    4c22:	2c 9a       	sbi	0x05, 4	; 5
    4c24:	2c 98       	cbi	0x05, 4	; 5
    4c26:	f8 01       	movw	r30, r16
    4c28:	35 96       	adiw	r30, 0x05	; 5
    4c2a:	81 e0       	ldi	r24, 0x01	; 1
    4c2c:	90 e0       	ldi	r25, 0x00	; 0
    4c2e:	56 ef       	ldi	r21, 0xF6	; 246
    4c30:	48 e2       	ldi	r20, 0x28	; 40
    4c32:	9c 01       	movw	r18, r24
    4c34:	21 50       	subi	r18, 0x01	; 1
    4c36:	31 09       	sbc	r19, r1
    4c38:	71 f0       	breq	.+28     	; 0x4c56 <Set_PowerManagementAndSystemControl+0x16c>
    4c3a:	21 30       	cpi	r18, 0x01	; 1
    4c3c:	31 05       	cpc	r19, r1
    4c3e:	81 f4       	brne	.+32     	; 0x4c60 <Set_PowerManagementAndSystemControl+0x176>
    4c40:	4e bd       	out	0x2e, r20	; 46
    4c42:	0d b4       	in	r0, 0x2d	; 45
    4c44:	07 fe       	sbrs	r0, 7
    4c46:	fd cf       	rjmp	.-6      	; 0x4c42 <Set_PowerManagementAndSystemControl+0x158>
    4c48:	2e b5       	in	r18, 0x2e	; 46
    4c4a:	01 96       	adiw	r24, 0x01	; 1
    4c4c:	31 97       	sbiw	r30, 0x01	; 1
    4c4e:	9c 01       	movw	r18, r24
    4c50:	21 50       	subi	r18, 0x01	; 1
    4c52:	31 09       	sbc	r19, r1
    4c54:	91 f7       	brne	.-28     	; 0x4c3a <Set_PowerManagementAndSystemControl+0x150>
    4c56:	5e bd       	out	0x2e, r21	; 46
    4c58:	0d b4       	in	r0, 0x2d	; 45
    4c5a:	07 fe       	sbrs	r0, 7
    4c5c:	fd cf       	rjmp	.-6      	; 0x4c58 <Set_PowerManagementAndSystemControl+0x16e>
    4c5e:	f4 cf       	rjmp	.-24     	; 0x4c48 <Set_PowerManagementAndSystemControl+0x15e>
    4c60:	20 81       	ld	r18, Z
    4c62:	2e bd       	out	0x2e, r18	; 46
    4c64:	0d b4       	in	r0, 0x2d	; 45
    4c66:	07 fe       	sbrs	r0, 7
    4c68:	fd cf       	rjmp	.-6      	; 0x4c64 <Set_PowerManagementAndSystemControl+0x17a>
    4c6a:	2e b5       	in	r18, 0x2e	; 46
    4c6c:	86 30       	cpi	r24, 0x06	; 6
    4c6e:	91 05       	cpc	r25, r1
    4c70:	61 f7       	brne	.-40     	; 0x4c4a <Set_PowerManagementAndSystemControl+0x160>
    4c72:	2c 9a       	sbi	0x05, 4	; 5
    4c74:	df 91       	pop	r29
    4c76:	cf 91       	pop	r28
    4c78:	1f 91       	pop	r17
    4c7a:	0f 91       	pop	r16
    4c7c:	08 95       	ret

00004c7e <Set_AlwaysONSystemControlInterface>:
    4c7e:	ef 92       	push	r14
    4c80:	ff 92       	push	r15
    4c82:	0f 93       	push	r16
    4c84:	1f 93       	push	r17
    4c86:	cf 93       	push	r28
    4c88:	df 93       	push	r29
    4c8a:	2c 98       	cbi	0x05, 4	; 5
    4c8c:	ec 01       	movw	r28, r24
    4c8e:	23 96       	adiw	r28, 0x03	; 3
    4c90:	e1 e0       	ldi	r30, 0x01	; 1
    4c92:	f0 e0       	ldi	r31, 0x00	; 0
    4c94:	9c ee       	ldi	r25, 0xEC	; 236
    4c96:	df 01       	movw	r26, r30
    4c98:	11 97       	sbiw	r26, 0x01	; 1
    4c9a:	61 f0       	breq	.+24     	; 0x4cb4 <Set_AlwaysONSystemControlInterface+0x36>
    4c9c:	11 97       	sbiw	r26, 0x01	; 1
    4c9e:	79 f4       	brne	.+30     	; 0x4cbe <Set_AlwaysONSystemControlInterface+0x40>
    4ca0:	1e bc       	out	0x2e, r1	; 46
    4ca2:	0d b4       	in	r0, 0x2d	; 45
    4ca4:	07 fe       	sbrs	r0, 7
    4ca6:	fd cf       	rjmp	.-6      	; 0x4ca2 <Set_AlwaysONSystemControlInterface+0x24>
    4ca8:	8e b5       	in	r24, 0x2e	; 46
    4caa:	31 96       	adiw	r30, 0x01	; 1
    4cac:	21 97       	sbiw	r28, 0x01	; 1
    4cae:	df 01       	movw	r26, r30
    4cb0:	11 97       	sbiw	r26, 0x01	; 1
    4cb2:	a1 f7       	brne	.-24     	; 0x4c9c <Set_AlwaysONSystemControlInterface+0x1e>
    4cb4:	9e bd       	out	0x2e, r25	; 46
    4cb6:	0d b4       	in	r0, 0x2d	; 45
    4cb8:	07 fe       	sbrs	r0, 7
    4cba:	fd cf       	rjmp	.-6      	; 0x4cb6 <Set_AlwaysONSystemControlInterface+0x38>
    4cbc:	f5 cf       	rjmp	.-22     	; 0x4ca8 <Set_AlwaysONSystemControlInterface+0x2a>
    4cbe:	88 81       	ld	r24, Y
    4cc0:	8e bd       	out	0x2e, r24	; 46
    4cc2:	0d b4       	in	r0, 0x2d	; 45
    4cc4:	07 fe       	sbrs	r0, 7
    4cc6:	fd cf       	rjmp	.-6      	; 0x4cc2 <Set_AlwaysONSystemControlInterface+0x44>
    4cc8:	8e b5       	in	r24, 0x2e	; 46
    4cca:	e4 30       	cpi	r30, 0x04	; 4
    4ccc:	f1 05       	cpc	r31, r1
    4cce:	69 f7       	brne	.-38     	; 0x4caa <Set_AlwaysONSystemControlInterface+0x2c>
    4cd0:	2c 9a       	sbi	0x05, 4	; 5
    4cd2:	2c 98       	cbi	0x05, 4	; 5
    4cd4:	eb 01       	movw	r28, r22
    4cd6:	22 96       	adiw	r28, 0x02	; 2
    4cd8:	81 e0       	ldi	r24, 0x01	; 1
    4cda:	90 e0       	ldi	r25, 0x00	; 0
    4cdc:	bc ee       	ldi	r27, 0xEC	; 236
    4cde:	a2 e0       	ldi	r26, 0x02	; 2
    4ce0:	fc 01       	movw	r30, r24
    4ce2:	31 97       	sbiw	r30, 0x01	; 1
    4ce4:	61 f0       	breq	.+24     	; 0x4cfe <Set_AlwaysONSystemControlInterface+0x80>
    4ce6:	31 97       	sbiw	r30, 0x01	; 1
    4ce8:	79 f4       	brne	.+30     	; 0x4d08 <Set_AlwaysONSystemControlInterface+0x8a>
    4cea:	ae bd       	out	0x2e, r26	; 46
    4cec:	0d b4       	in	r0, 0x2d	; 45
    4cee:	07 fe       	sbrs	r0, 7
    4cf0:	fd cf       	rjmp	.-6      	; 0x4cec <Set_AlwaysONSystemControlInterface+0x6e>
    4cf2:	ee b5       	in	r30, 0x2e	; 46
    4cf4:	01 96       	adiw	r24, 0x01	; 1
    4cf6:	21 97       	sbiw	r28, 0x01	; 1
    4cf8:	fc 01       	movw	r30, r24
    4cfa:	31 97       	sbiw	r30, 0x01	; 1
    4cfc:	a1 f7       	brne	.-24     	; 0x4ce6 <Set_AlwaysONSystemControlInterface+0x68>
    4cfe:	be bd       	out	0x2e, r27	; 46
    4d00:	0d b4       	in	r0, 0x2d	; 45
    4d02:	07 fe       	sbrs	r0, 7
    4d04:	fd cf       	rjmp	.-6      	; 0x4d00 <Set_AlwaysONSystemControlInterface+0x82>
    4d06:	f5 cf       	rjmp	.-22     	; 0x4cf2 <Set_AlwaysONSystemControlInterface+0x74>
    4d08:	e8 81       	ld	r30, Y
    4d0a:	ee bd       	out	0x2e, r30	; 46
    4d0c:	0d b4       	in	r0, 0x2d	; 45
    4d0e:	07 fe       	sbrs	r0, 7
    4d10:	fd cf       	rjmp	.-6      	; 0x4d0c <Set_AlwaysONSystemControlInterface+0x8e>
    4d12:	ee b5       	in	r30, 0x2e	; 46
    4d14:	83 30       	cpi	r24, 0x03	; 3
    4d16:	91 05       	cpc	r25, r1
    4d18:	69 f7       	brne	.-38     	; 0x4cf4 <Set_AlwaysONSystemControlInterface+0x76>
    4d1a:	2c 9a       	sbi	0x05, 4	; 5
    4d1c:	2c 98       	cbi	0x05, 4	; 5
    4d1e:	da 01       	movw	r26, r20
    4d20:	12 96       	adiw	r26, 0x02	; 2
    4d22:	81 e0       	ldi	r24, 0x01	; 1
    4d24:	90 e0       	ldi	r25, 0x00	; 0
    4d26:	fc ee       	ldi	r31, 0xEC	; 236
    4d28:	e3 e0       	ldi	r30, 0x03	; 3
    4d2a:	bc 01       	movw	r22, r24
    4d2c:	61 50       	subi	r22, 0x01	; 1
    4d2e:	71 09       	sbc	r23, r1
    4d30:	71 f0       	breq	.+28     	; 0x4d4e <Set_AlwaysONSystemControlInterface+0xd0>
    4d32:	61 30       	cpi	r22, 0x01	; 1
    4d34:	71 05       	cpc	r23, r1
    4d36:	81 f4       	brne	.+32     	; 0x4d58 <Set_AlwaysONSystemControlInterface+0xda>
    4d38:	ee bd       	out	0x2e, r30	; 46
    4d3a:	0d b4       	in	r0, 0x2d	; 45
    4d3c:	07 fe       	sbrs	r0, 7
    4d3e:	fd cf       	rjmp	.-6      	; 0x4d3a <Set_AlwaysONSystemControlInterface+0xbc>
    4d40:	6e b5       	in	r22, 0x2e	; 46
    4d42:	01 96       	adiw	r24, 0x01	; 1
    4d44:	11 97       	sbiw	r26, 0x01	; 1
    4d46:	bc 01       	movw	r22, r24
    4d48:	61 50       	subi	r22, 0x01	; 1
    4d4a:	71 09       	sbc	r23, r1
    4d4c:	91 f7       	brne	.-28     	; 0x4d32 <Set_AlwaysONSystemControlInterface+0xb4>
    4d4e:	fe bd       	out	0x2e, r31	; 46
    4d50:	0d b4       	in	r0, 0x2d	; 45
    4d52:	07 fe       	sbrs	r0, 7
    4d54:	fd cf       	rjmp	.-6      	; 0x4d50 <Set_AlwaysONSystemControlInterface+0xd2>
    4d56:	f4 cf       	rjmp	.-24     	; 0x4d40 <Set_AlwaysONSystemControlInterface+0xc2>
    4d58:	6c 91       	ld	r22, X
    4d5a:	6e bd       	out	0x2e, r22	; 46
    4d5c:	0d b4       	in	r0, 0x2d	; 45
    4d5e:	07 fe       	sbrs	r0, 7
    4d60:	fd cf       	rjmp	.-6      	; 0x4d5c <Set_AlwaysONSystemControlInterface+0xde>
    4d62:	6e b5       	in	r22, 0x2e	; 46
    4d64:	83 30       	cpi	r24, 0x03	; 3
    4d66:	91 05       	cpc	r25, r1
    4d68:	61 f7       	brne	.-40     	; 0x4d42 <Set_AlwaysONSystemControlInterface+0xc4>
    4d6a:	2c 9a       	sbi	0x05, 4	; 5
    4d6c:	2c 98       	cbi	0x05, 4	; 5
    4d6e:	f9 01       	movw	r30, r18
    4d70:	32 96       	adiw	r30, 0x02	; 2
    4d72:	81 e0       	ldi	r24, 0x01	; 1
    4d74:	90 e0       	ldi	r25, 0x00	; 0
    4d76:	7c ee       	ldi	r23, 0xEC	; 236
    4d78:	64 e0       	ldi	r22, 0x04	; 4
    4d7a:	ac 01       	movw	r20, r24
    4d7c:	41 50       	subi	r20, 0x01	; 1
    4d7e:	51 09       	sbc	r21, r1
    4d80:	71 f0       	breq	.+28     	; 0x4d9e <Set_AlwaysONSystemControlInterface+0x120>
    4d82:	41 30       	cpi	r20, 0x01	; 1
    4d84:	51 05       	cpc	r21, r1
    4d86:	81 f4       	brne	.+32     	; 0x4da8 <Set_AlwaysONSystemControlInterface+0x12a>
    4d88:	6e bd       	out	0x2e, r22	; 46
    4d8a:	0d b4       	in	r0, 0x2d	; 45
    4d8c:	07 fe       	sbrs	r0, 7
    4d8e:	fd cf       	rjmp	.-6      	; 0x4d8a <Set_AlwaysONSystemControlInterface+0x10c>
    4d90:	4e b5       	in	r20, 0x2e	; 46
    4d92:	01 96       	adiw	r24, 0x01	; 1
    4d94:	31 97       	sbiw	r30, 0x01	; 1
    4d96:	ac 01       	movw	r20, r24
    4d98:	41 50       	subi	r20, 0x01	; 1
    4d9a:	51 09       	sbc	r21, r1
    4d9c:	91 f7       	brne	.-28     	; 0x4d82 <Set_AlwaysONSystemControlInterface+0x104>
    4d9e:	7e bd       	out	0x2e, r23	; 46
    4da0:	0d b4       	in	r0, 0x2d	; 45
    4da2:	07 fe       	sbrs	r0, 7
    4da4:	fd cf       	rjmp	.-6      	; 0x4da0 <Set_AlwaysONSystemControlInterface+0x122>
    4da6:	f4 cf       	rjmp	.-24     	; 0x4d90 <Set_AlwaysONSystemControlInterface+0x112>
    4da8:	40 81       	ld	r20, Z
    4daa:	4e bd       	out	0x2e, r20	; 46
    4dac:	0d b4       	in	r0, 0x2d	; 45
    4dae:	07 fe       	sbrs	r0, 7
    4db0:	fd cf       	rjmp	.-6      	; 0x4dac <Set_AlwaysONSystemControlInterface+0x12e>
    4db2:	4e b5       	in	r20, 0x2e	; 46
    4db4:	83 30       	cpi	r24, 0x03	; 3
    4db6:	91 05       	cpc	r25, r1
    4db8:	61 f7       	brne	.-40     	; 0x4d92 <Set_AlwaysONSystemControlInterface+0x114>
    4dba:	2c 9a       	sbi	0x05, 4	; 5
    4dbc:	2c 98       	cbi	0x05, 4	; 5
    4dbe:	f8 01       	movw	r30, r16
    4dc0:	35 96       	adiw	r30, 0x05	; 5
    4dc2:	81 e0       	ldi	r24, 0x01	; 1
    4dc4:	90 e0       	ldi	r25, 0x00	; 0
    4dc6:	5c ee       	ldi	r21, 0xEC	; 236
    4dc8:	46 e0       	ldi	r20, 0x06	; 6
    4dca:	9c 01       	movw	r18, r24
    4dcc:	21 50       	subi	r18, 0x01	; 1
    4dce:	31 09       	sbc	r19, r1
    4dd0:	71 f0       	breq	.+28     	; 0x4dee <Set_AlwaysONSystemControlInterface+0x170>
    4dd2:	21 30       	cpi	r18, 0x01	; 1
    4dd4:	31 05       	cpc	r19, r1
    4dd6:	81 f4       	brne	.+32     	; 0x4df8 <Set_AlwaysONSystemControlInterface+0x17a>
    4dd8:	4e bd       	out	0x2e, r20	; 46
    4dda:	0d b4       	in	r0, 0x2d	; 45
    4ddc:	07 fe       	sbrs	r0, 7
    4dde:	fd cf       	rjmp	.-6      	; 0x4dda <Set_AlwaysONSystemControlInterface+0x15c>
    4de0:	2e b5       	in	r18, 0x2e	; 46
    4de2:	01 96       	adiw	r24, 0x01	; 1
    4de4:	31 97       	sbiw	r30, 0x01	; 1
    4de6:	9c 01       	movw	r18, r24
    4de8:	21 50       	subi	r18, 0x01	; 1
    4dea:	31 09       	sbc	r19, r1
    4dec:	91 f7       	brne	.-28     	; 0x4dd2 <Set_AlwaysONSystemControlInterface+0x154>
    4dee:	5e bd       	out	0x2e, r21	; 46
    4df0:	0d b4       	in	r0, 0x2d	; 45
    4df2:	07 fe       	sbrs	r0, 7
    4df4:	fd cf       	rjmp	.-6      	; 0x4df0 <Set_AlwaysONSystemControlInterface+0x172>
    4df6:	f4 cf       	rjmp	.-24     	; 0x4de0 <Set_AlwaysONSystemControlInterface+0x162>
    4df8:	20 81       	ld	r18, Z
    4dfa:	2e bd       	out	0x2e, r18	; 46
    4dfc:	0d b4       	in	r0, 0x2d	; 45
    4dfe:	07 fe       	sbrs	r0, 7
    4e00:	fd cf       	rjmp	.-6      	; 0x4dfc <Set_AlwaysONSystemControlInterface+0x17e>
    4e02:	2e b5       	in	r18, 0x2e	; 46
    4e04:	86 30       	cpi	r24, 0x06	; 6
    4e06:	91 05       	cpc	r25, r1
    4e08:	61 f7       	brne	.-40     	; 0x4de2 <Set_AlwaysONSystemControlInterface+0x164>
    4e0a:	2c 9a       	sbi	0x05, 4	; 5
    4e0c:	2c 98       	cbi	0x05, 4	; 5
    4e0e:	f7 01       	movw	r30, r14
    4e10:	33 96       	adiw	r30, 0x03	; 3
    4e12:	81 e0       	ldi	r24, 0x01	; 1
    4e14:	90 e0       	ldi	r25, 0x00	; 0
    4e16:	5c ee       	ldi	r21, 0xEC	; 236
    4e18:	4a e0       	ldi	r20, 0x0A	; 10
    4e1a:	9c 01       	movw	r18, r24
    4e1c:	21 50       	subi	r18, 0x01	; 1
    4e1e:	31 09       	sbc	r19, r1
    4e20:	71 f0       	breq	.+28     	; 0x4e3e <Set_AlwaysONSystemControlInterface+0x1c0>
    4e22:	21 30       	cpi	r18, 0x01	; 1
    4e24:	31 05       	cpc	r19, r1
    4e26:	81 f4       	brne	.+32     	; 0x4e48 <Set_AlwaysONSystemControlInterface+0x1ca>
    4e28:	4e bd       	out	0x2e, r20	; 46
    4e2a:	0d b4       	in	r0, 0x2d	; 45
    4e2c:	07 fe       	sbrs	r0, 7
    4e2e:	fd cf       	rjmp	.-6      	; 0x4e2a <Set_AlwaysONSystemControlInterface+0x1ac>
    4e30:	2e b5       	in	r18, 0x2e	; 46
    4e32:	01 96       	adiw	r24, 0x01	; 1
    4e34:	31 97       	sbiw	r30, 0x01	; 1
    4e36:	9c 01       	movw	r18, r24
    4e38:	21 50       	subi	r18, 0x01	; 1
    4e3a:	31 09       	sbc	r19, r1
    4e3c:	91 f7       	brne	.-28     	; 0x4e22 <Set_AlwaysONSystemControlInterface+0x1a4>
    4e3e:	5e bd       	out	0x2e, r21	; 46
    4e40:	0d b4       	in	r0, 0x2d	; 45
    4e42:	07 fe       	sbrs	r0, 7
    4e44:	fd cf       	rjmp	.-6      	; 0x4e40 <Set_AlwaysONSystemControlInterface+0x1c2>
    4e46:	f4 cf       	rjmp	.-24     	; 0x4e30 <Set_AlwaysONSystemControlInterface+0x1b2>
    4e48:	20 81       	ld	r18, Z
    4e4a:	2e bd       	out	0x2e, r18	; 46
    4e4c:	0d b4       	in	r0, 0x2d	; 45
    4e4e:	07 fe       	sbrs	r0, 7
    4e50:	fd cf       	rjmp	.-6      	; 0x4e4c <Set_AlwaysONSystemControlInterface+0x1ce>
    4e52:	2e b5       	in	r18, 0x2e	; 46
    4e54:	84 30       	cpi	r24, 0x04	; 4
    4e56:	91 05       	cpc	r25, r1
    4e58:	61 f7       	brne	.-40     	; 0x4e32 <Set_AlwaysONSystemControlInterface+0x1b4>
    4e5a:	2c 9a       	sbi	0x05, 4	; 5
    4e5c:	df 91       	pop	r29
    4e5e:	cf 91       	pop	r28
    4e60:	1f 91       	pop	r17
    4e62:	0f 91       	pop	r16
    4e64:	ff 90       	pop	r15
    4e66:	ef 90       	pop	r14
    4e68:	08 95       	ret

00004e6a <SetBit>:
    4e6a:	4f 92       	push	r4
    4e6c:	5f 92       	push	r5
    4e6e:	6f 92       	push	r6
    4e70:	7f 92       	push	r7
    4e72:	8f 92       	push	r8
    4e74:	9f 92       	push	r9
    4e76:	af 92       	push	r10
    4e78:	bf 92       	push	r11
    4e7a:	cf 92       	push	r12
    4e7c:	df 92       	push	r13
    4e7e:	ef 92       	push	r14
    4e80:	ff 92       	push	r15
    4e82:	0f 93       	push	r16
    4e84:	1f 93       	push	r17
    4e86:	cf 93       	push	r28
    4e88:	df 93       	push	r29
    4e8a:	cd b7       	in	r28, 0x3d	; 61
    4e8c:	de b7       	in	r29, 0x3e	; 62
    4e8e:	6c 97       	sbiw	r28, 0x1c	; 28
    4e90:	0f b6       	in	r0, 0x3f	; 63
    4e92:	f8 94       	cli
    4e94:	de bf       	out	0x3e, r29	; 62
    4e96:	0f be       	out	0x3f, r0	; 63
    4e98:	cd bf       	out	0x3d, r28	; 61
    4e9a:	8b 01       	movw	r16, r22
    4e9c:	3a 01       	movw	r6, r20
    4e9e:	52 2e       	mov	r5, r18
    4ea0:	0e 94 43 07 	call	0xe86	; 0xe86 <Get_Select>
    4ea4:	4c 01       	movw	r8, r24
    4ea6:	58 01       	movw	r10, r16
    4ea8:	17 fd       	sbrc	r17, 7
    4eaa:	94 c0       	rjmp	.+296    	; 0x4fd4 <SetBit+0x16a>
    4eac:	b5 94       	asr	r11
    4eae:	a7 94       	ror	r10
    4eb0:	b5 94       	asr	r11
    4eb2:	a7 94       	ror	r10
    4eb4:	b5 94       	asr	r11
    4eb6:	a7 94       	ror	r10
    4eb8:	b1 94       	neg	r11
    4eba:	a1 94       	neg	r10
    4ebc:	b1 08       	sbc	r11, r1
    4ebe:	93 e0       	ldi	r25, 0x03	; 3
    4ec0:	a9 0e       	add	r10, r25
    4ec2:	b1 1c       	adc	r11, r1
    4ec4:	b8 01       	movw	r22, r16
    4ec6:	67 70       	andi	r22, 0x07	; 7
    4ec8:	70 78       	andi	r23, 0x80	; 128
    4eca:	77 fd       	sbrc	r23, 7
    4ecc:	7c c0       	rjmp	.+248    	; 0x4fc6 <SetBit+0x15c>
    4ece:	46 2e       	mov	r4, r22
    4ed0:	8c e2       	ldi	r24, 0x2C	; 44
    4ed2:	88 16       	cp	r8, r24
    4ed4:	91 04       	cpc	r9, r1
    4ed6:	b8 f4       	brcc	.+46     	; 0x4f06 <SetBit+0x9c>
    4ed8:	f4 01       	movw	r30, r8
    4eda:	e2 5c       	subi	r30, 0xC2	; 194
    4edc:	ff 4f       	sbci	r31, 0xFF	; 255
    4ede:	0c 94 46 36 	jmp	0x6c8c	; 0x6c8c <__tablejump2__>
    4ee2:	ce 01       	movw	r24, r28
    4ee4:	05 96       	adiw	r24, 0x05	; 5
    4ee6:	7c 01       	movw	r14, r24
    4ee8:	8e 01       	movw	r16, r28
    4eea:	07 5f       	subi	r16, 0xF7	; 247
    4eec:	1f 4f       	sbci	r17, 0xFF	; 255
    4eee:	9e 01       	movw	r18, r28
    4ef0:	23 5f       	subi	r18, 0xF3	; 243
    4ef2:	3f 4f       	sbci	r19, 0xFF	; 255
    4ef4:	ae 01       	movw	r20, r28
    4ef6:	4f 5e       	subi	r20, 0xEF	; 239
    4ef8:	5f 4f       	sbci	r21, 0xFF	; 255
    4efa:	be 01       	movw	r22, r28
    4efc:	6b 5e       	subi	r22, 0xEB	; 235
    4efe:	7f 4f       	sbci	r23, 0xFF	; 255
    4f00:	44 96       	adiw	r24, 0x14	; 20
    4f02:	0e 94 8d 13 	call	0x271a	; 0x271a <Get_AlwaysONSystemControlInterface>
    4f06:	87 e8       	ldi	r24, 0x87	; 135
    4f08:	93 e1       	ldi	r25, 0x13	; 19
    4f0a:	01 97       	sbiw	r24, 0x01	; 1
    4f0c:	f1 f7       	brne	.-4      	; 0x4f0a <SetBit+0xa0>
    4f0e:	00 c0       	rjmp	.+0      	; 0x4f10 <SetBit+0xa6>
    4f10:	00 00       	nop
    4f12:	91 e0       	ldi	r25, 0x01	; 1
    4f14:	59 16       	cp	r5, r25
    4f16:	09 f4       	brne	.+2      	; 0x4f1a <SetBit+0xb0>
    4f18:	4d c0       	rjmp	.+154    	; 0x4fb4 <SetBit+0x14a>
    4f1a:	51 10       	cpse	r5, r1
    4f1c:	19 c0       	rjmp	.+50     	; 0x4f50 <SetBit+0xe6>
    4f1e:	f3 01       	movw	r30, r6
    4f20:	31 97       	sbiw	r30, 0x01	; 1
    4f22:	e7 30       	cpi	r30, 0x07	; 7
    4f24:	f1 05       	cpc	r31, r1
    4f26:	a0 f4       	brcc	.+40     	; 0x4f50 <SetBit+0xe6>
    4f28:	e6 59       	subi	r30, 0x96	; 150
    4f2a:	ff 4f       	sbci	r31, 0xFF	; 255
    4f2c:	0c 94 46 36 	jmp	0x6c8c	; 0x6c8c <__tablejump2__>
    4f30:	e5 e0       	ldi	r30, 0x05	; 5
    4f32:	f0 e0       	ldi	r31, 0x00	; 0
    4f34:	ec 0f       	add	r30, r28
    4f36:	fd 1f       	adc	r31, r29
    4f38:	ea 0d       	add	r30, r10
    4f3a:	fb 1d       	adc	r31, r11
    4f3c:	81 e0       	ldi	r24, 0x01	; 1
    4f3e:	90 e0       	ldi	r25, 0x00	; 0
    4f40:	01 c0       	rjmp	.+2      	; 0x4f44 <SetBit+0xda>
    4f42:	88 0f       	add	r24, r24
    4f44:	4a 94       	dec	r4
    4f46:	ea f7       	brpl	.-6      	; 0x4f42 <SetBit+0xd8>
    4f48:	80 95       	com	r24
    4f4a:	90 81       	ld	r25, Z
    4f4c:	89 23       	and	r24, r25
    4f4e:	80 83       	st	Z, r24
    4f50:	87 e8       	ldi	r24, 0x87	; 135
    4f52:	93 e1       	ldi	r25, 0x13	; 19
    4f54:	01 97       	sbiw	r24, 0x01	; 1
    4f56:	f1 f7       	brne	.-4      	; 0x4f54 <SetBit+0xea>
    4f58:	00 c0       	rjmp	.+0      	; 0x4f5a <SetBit+0xf0>
    4f5a:	00 00       	nop
    4f5c:	87 e8       	ldi	r24, 0x87	; 135
    4f5e:	93 e1       	ldi	r25, 0x13	; 19
    4f60:	01 97       	sbiw	r24, 0x01	; 1
    4f62:	f1 f7       	brne	.-4      	; 0x4f60 <SetBit+0xf6>
    4f64:	00 c0       	rjmp	.+0      	; 0x4f66 <SetBit+0xfc>
    4f66:	00 00       	nop
    4f68:	9c e2       	ldi	r25, 0x2C	; 44
    4f6a:	89 16       	cp	r8, r25
    4f6c:	91 04       	cpc	r9, r1
    4f6e:	e8 f0       	brcs	.+58     	; 0x4faa <SetBit+0x140>
    4f70:	87 e8       	ldi	r24, 0x87	; 135
    4f72:	93 e1       	ldi	r25, 0x13	; 19
    4f74:	01 97       	sbiw	r24, 0x01	; 1
    4f76:	f1 f7       	brne	.-4      	; 0x4f74 <SetBit+0x10a>
    4f78:	00 c0       	rjmp	.+0      	; 0x4f7a <SetBit+0x110>
    4f7a:	00 00       	nop
    4f7c:	6c 96       	adiw	r28, 0x1c	; 28
    4f7e:	0f b6       	in	r0, 0x3f	; 63
    4f80:	f8 94       	cli
    4f82:	de bf       	out	0x3e, r29	; 62
    4f84:	0f be       	out	0x3f, r0	; 63
    4f86:	cd bf       	out	0x3d, r28	; 61
    4f88:	df 91       	pop	r29
    4f8a:	cf 91       	pop	r28
    4f8c:	1f 91       	pop	r17
    4f8e:	0f 91       	pop	r16
    4f90:	ff 90       	pop	r15
    4f92:	ef 90       	pop	r14
    4f94:	df 90       	pop	r13
    4f96:	cf 90       	pop	r12
    4f98:	bf 90       	pop	r11
    4f9a:	af 90       	pop	r10
    4f9c:	9f 90       	pop	r9
    4f9e:	8f 90       	pop	r8
    4fa0:	7f 90       	pop	r7
    4fa2:	6f 90       	pop	r6
    4fa4:	5f 90       	pop	r5
    4fa6:	4f 90       	pop	r4
    4fa8:	08 95       	ret
    4faa:	f4 01       	movw	r30, r8
    4fac:	ef 58       	subi	r30, 0x8F	; 143
    4fae:	ff 4f       	sbci	r31, 0xFF	; 255
    4fb0:	0c 94 46 36 	jmp	0x6c8c	; 0x6c8c <__tablejump2__>
    4fb4:	f3 01       	movw	r30, r6
    4fb6:	31 97       	sbiw	r30, 0x01	; 1
    4fb8:	e7 30       	cpi	r30, 0x07	; 7
    4fba:	f1 05       	cpc	r31, r1
    4fbc:	48 f6       	brcc	.-110    	; 0x4f50 <SetBit+0xe6>
    4fbe:	e3 56       	subi	r30, 0x63	; 99
    4fc0:	ff 4f       	sbci	r31, 0xFF	; 255
    4fc2:	0c 94 46 36 	jmp	0x6c8c	; 0x6c8c <__tablejump2__>
    4fc6:	61 50       	subi	r22, 0x01	; 1
    4fc8:	71 09       	sbc	r23, r1
    4fca:	68 6f       	ori	r22, 0xF8	; 248
    4fcc:	7f 6f       	ori	r23, 0xFF	; 255
    4fce:	6f 5f       	subi	r22, 0xFF	; 255
    4fd0:	7f 4f       	sbci	r23, 0xFF	; 255
    4fd2:	7d cf       	rjmp	.-262    	; 0x4ece <SetBit+0x64>
    4fd4:	87 e0       	ldi	r24, 0x07	; 7
    4fd6:	a8 0e       	add	r10, r24
    4fd8:	b1 1c       	adc	r11, r1
    4fda:	68 cf       	rjmp	.-304    	; 0x4eac <SetBit+0x42>
    4fdc:	e9 e0       	ldi	r30, 0x09	; 9
    4fde:	f0 e0       	ldi	r31, 0x00	; 0
    4fe0:	a9 cf       	rjmp	.-174    	; 0x4f34 <SetBit+0xca>
    4fe2:	ed e0       	ldi	r30, 0x0D	; 13
    4fe4:	f0 e0       	ldi	r31, 0x00	; 0
    4fe6:	a6 cf       	rjmp	.-180    	; 0x4f34 <SetBit+0xca>
    4fe8:	e1 e1       	ldi	r30, 0x11	; 17
    4fea:	f0 e0       	ldi	r31, 0x00	; 0
    4fec:	a3 cf       	rjmp	.-186    	; 0x4f34 <SetBit+0xca>
    4fee:	e5 e1       	ldi	r30, 0x15	; 21
    4ff0:	f0 e0       	ldi	r31, 0x00	; 0
    4ff2:	a0 cf       	rjmp	.-192    	; 0x4f34 <SetBit+0xca>
    4ff4:	e9 e1       	ldi	r30, 0x19	; 25
    4ff6:	f0 e0       	ldi	r31, 0x00	; 0
    4ff8:	9d cf       	rjmp	.-198    	; 0x4f34 <SetBit+0xca>
    4ffa:	e1 e0       	ldi	r30, 0x01	; 1
    4ffc:	f0 e0       	ldi	r31, 0x00	; 0
    4ffe:	9a cf       	rjmp	.-204    	; 0x4f34 <SetBit+0xca>
    5000:	e5 e0       	ldi	r30, 0x05	; 5
    5002:	f0 e0       	ldi	r31, 0x00	; 0
    5004:	ec 0f       	add	r30, r28
    5006:	fd 1f       	adc	r31, r29
    5008:	ea 0d       	add	r30, r10
    500a:	fb 1d       	adc	r31, r11
    500c:	81 e0       	ldi	r24, 0x01	; 1
    500e:	90 e0       	ldi	r25, 0x00	; 0
    5010:	01 c0       	rjmp	.+2      	; 0x5014 <SetBit+0x1aa>
    5012:	88 0f       	add	r24, r24
    5014:	4a 94       	dec	r4
    5016:	ea f7       	brpl	.-6      	; 0x5012 <SetBit+0x1a8>
    5018:	90 81       	ld	r25, Z
    501a:	89 2b       	or	r24, r25
    501c:	80 83       	st	Z, r24
    501e:	98 cf       	rjmp	.-208    	; 0x4f50 <SetBit+0xe6>
    5020:	e9 e0       	ldi	r30, 0x09	; 9
    5022:	f0 e0       	ldi	r31, 0x00	; 0
    5024:	ef cf       	rjmp	.-34     	; 0x5004 <SetBit+0x19a>
    5026:	ed e0       	ldi	r30, 0x0D	; 13
    5028:	f0 e0       	ldi	r31, 0x00	; 0
    502a:	ec cf       	rjmp	.-40     	; 0x5004 <SetBit+0x19a>
    502c:	e1 e1       	ldi	r30, 0x11	; 17
    502e:	f0 e0       	ldi	r31, 0x00	; 0
    5030:	e9 cf       	rjmp	.-46     	; 0x5004 <SetBit+0x19a>
    5032:	e5 e1       	ldi	r30, 0x15	; 21
    5034:	f0 e0       	ldi	r31, 0x00	; 0
    5036:	e6 cf       	rjmp	.-52     	; 0x5004 <SetBit+0x19a>
    5038:	e9 e1       	ldi	r30, 0x19	; 25
    503a:	f0 e0       	ldi	r31, 0x00	; 0
    503c:	e3 cf       	rjmp	.-58     	; 0x5004 <SetBit+0x19a>
    503e:	e1 e0       	ldi	r30, 0x01	; 1
    5040:	f0 e0       	ldi	r31, 0x00	; 0
    5042:	e0 cf       	rjmp	.-64     	; 0x5004 <SetBit+0x19a>
    5044:	2c 98       	cbi	0x05, 4	; 5
    5046:	fe 01       	movw	r30, r28
    5048:	7c 96       	adiw	r30, 0x1c	; 28
    504a:	81 e0       	ldi	r24, 0x01	; 1
    504c:	90 e0       	ldi	r25, 0x00	; 0
    504e:	5d e6       	ldi	r21, 0x6D	; 109
    5050:	48 e0       	ldi	r20, 0x08	; 8
    5052:	9c 01       	movw	r18, r24
    5054:	21 50       	subi	r18, 0x01	; 1
    5056:	31 09       	sbc	r19, r1
    5058:	11 f4       	brne	.+4      	; 0x505e <SetBit+0x1f4>
    505a:	0c 94 9f 31 	jmp	0x633e	; 0x633e <SetBit+0x14d4>
    505e:	21 30       	cpi	r18, 0x01	; 1
    5060:	31 05       	cpc	r19, r1
    5062:	11 f0       	breq	.+4      	; 0x5068 <SetBit+0x1fe>
    5064:	0c 94 91 31 	jmp	0x6322	; 0x6322 <SetBit+0x14b8>
    5068:	4e bd       	out	0x2e, r20	; 46
    506a:	0d b4       	in	r0, 0x2d	; 45
    506c:	07 fe       	sbrs	r0, 7
    506e:	fd cf       	rjmp	.-6      	; 0x506a <SetBit+0x200>
    5070:	2e b5       	in	r18, 0x2e	; 46
    5072:	01 96       	adiw	r24, 0x01	; 1
    5074:	31 97       	sbiw	r30, 0x01	; 1
    5076:	ed cf       	rjmp	.-38     	; 0x5052 <SetBit+0x1e8>
    5078:	2c 98       	cbi	0x05, 4	; 5
    507a:	fe 01       	movw	r30, r28
    507c:	7c 96       	adiw	r30, 0x1c	; 28
    507e:	81 e0       	ldi	r24, 0x01	; 1
    5080:	90 e0       	ldi	r25, 0x00	; 0
    5082:	5d e6       	ldi	r21, 0x6D	; 109
    5084:	46 e0       	ldi	r20, 0x06	; 6
    5086:	9c 01       	movw	r18, r24
    5088:	21 50       	subi	r18, 0x01	; 1
    508a:	31 09       	sbc	r19, r1
    508c:	11 f4       	brne	.+4      	; 0x5092 <SetBit+0x228>
    508e:	0c 94 8b 31 	jmp	0x6316	; 0x6316 <SetBit+0x14ac>
    5092:	21 30       	cpi	r18, 0x01	; 1
    5094:	31 05       	cpc	r19, r1
    5096:	11 f0       	breq	.+4      	; 0x509c <SetBit+0x232>
    5098:	0c 94 7d 31 	jmp	0x62fa	; 0x62fa <SetBit+0x1490>
    509c:	4e bd       	out	0x2e, r20	; 46
    509e:	0d b4       	in	r0, 0x2d	; 45
    50a0:	07 fe       	sbrs	r0, 7
    50a2:	fd cf       	rjmp	.-6      	; 0x509e <SetBit+0x234>
    50a4:	2e b5       	in	r18, 0x2e	; 46
    50a6:	01 96       	adiw	r24, 0x01	; 1
    50a8:	31 97       	sbiw	r30, 0x01	; 1
    50aa:	ed cf       	rjmp	.-38     	; 0x5086 <SetBit+0x21c>
    50ac:	2c 98       	cbi	0x05, 4	; 5
    50ae:	fe 01       	movw	r30, r28
    50b0:	7c 96       	adiw	r30, 0x1c	; 28
    50b2:	81 e0       	ldi	r24, 0x01	; 1
    50b4:	90 e0       	ldi	r25, 0x00	; 0
    50b6:	5d e6       	ldi	r21, 0x6D	; 109
    50b8:	44 e0       	ldi	r20, 0x04	; 4
    50ba:	9c 01       	movw	r18, r24
    50bc:	21 50       	subi	r18, 0x01	; 1
    50be:	31 09       	sbc	r19, r1
    50c0:	11 f4       	brne	.+4      	; 0x50c6 <SetBit+0x25c>
    50c2:	0c 94 77 31 	jmp	0x62ee	; 0x62ee <SetBit+0x1484>
    50c6:	21 30       	cpi	r18, 0x01	; 1
    50c8:	31 05       	cpc	r19, r1
    50ca:	11 f0       	breq	.+4      	; 0x50d0 <SetBit+0x266>
    50cc:	0c 94 69 31 	jmp	0x62d2	; 0x62d2 <SetBit+0x1468>
    50d0:	4e bd       	out	0x2e, r20	; 46
    50d2:	0d b4       	in	r0, 0x2d	; 45
    50d4:	07 fe       	sbrs	r0, 7
    50d6:	fd cf       	rjmp	.-6      	; 0x50d2 <SetBit+0x268>
    50d8:	2e b5       	in	r18, 0x2e	; 46
    50da:	01 96       	adiw	r24, 0x01	; 1
    50dc:	31 97       	sbiw	r30, 0x01	; 1
    50de:	ed cf       	rjmp	.-38     	; 0x50ba <SetBit+0x250>
    50e0:	2c 98       	cbi	0x05, 4	; 5
    50e2:	fe 01       	movw	r30, r28
    50e4:	7e 96       	adiw	r30, 0x1e	; 30
    50e6:	81 e0       	ldi	r24, 0x01	; 1
    50e8:	90 e0       	ldi	r25, 0x00	; 0
    50ea:	4d e6       	ldi	r20, 0x6D	; 109
    50ec:	9c 01       	movw	r18, r24
    50ee:	21 50       	subi	r18, 0x01	; 1
    50f0:	31 09       	sbc	r19, r1
    50f2:	09 f4       	brne	.+2      	; 0x50f6 <SetBit+0x28c>
    50f4:	55 c7       	rjmp	.+3754   	; 0x5fa0 <SetBit+0x1136>
    50f6:	21 30       	cpi	r18, 0x01	; 1
    50f8:	31 05       	cpc	r19, r1
    50fa:	09 f0       	breq	.+2      	; 0x50fe <SetBit+0x294>
    50fc:	44 c7       	rjmp	.+3720   	; 0x5f86 <SetBit+0x111c>
    50fe:	1e bc       	out	0x2e, r1	; 46
    5100:	0d b4       	in	r0, 0x2d	; 45
    5102:	07 fe       	sbrs	r0, 7
    5104:	fd cf       	rjmp	.-6      	; 0x5100 <SetBit+0x296>
    5106:	2e b5       	in	r18, 0x2e	; 46
    5108:	01 96       	adiw	r24, 0x01	; 1
    510a:	31 97       	sbiw	r30, 0x01	; 1
    510c:	ef cf       	rjmp	.-34     	; 0x50ec <SetBit+0x282>
    510e:	ae 01       	movw	r20, r28
    5110:	4f 5e       	subi	r20, 0xEF	; 239
    5112:	5f 4f       	sbci	r21, 0xFF	; 255
    5114:	be 01       	movw	r22, r28
    5116:	6b 5e       	subi	r22, 0xEB	; 235
    5118:	7f 4f       	sbci	r23, 0xFF	; 255
    511a:	ce 01       	movw	r24, r28
    511c:	49 96       	adiw	r24, 0x19	; 25
    511e:	0e 94 14 13 	call	0x2628	; 0x2628 <Get_FrequencySynthesiserControlBlock>
    5122:	f1 ce       	rjmp	.-542    	; 0x4f06 <SetBit+0x9c>
    5124:	8e 01       	movw	r16, r28
    5126:	07 5f       	subi	r16, 0xF7	; 247
    5128:	1f 4f       	sbci	r17, 0xFF	; 255
    512a:	9e 01       	movw	r18, r28
    512c:	23 5f       	subi	r18, 0xF3	; 243
    512e:	3f 4f       	sbci	r19, 0xFF	; 255
    5130:	ae 01       	movw	r20, r28
    5132:	4f 5e       	subi	r20, 0xEF	; 239
    5134:	5f 4f       	sbci	r21, 0xFF	; 255
    5136:	be 01       	movw	r22, r28
    5138:	6b 5e       	subi	r22, 0xEB	; 235
    513a:	7f 4f       	sbci	r23, 0xFF	; 255
    513c:	ce 01       	movw	r24, r28
    513e:	49 96       	adiw	r24, 0x19	; 25
    5140:	0e 94 4a 12 	call	0x2494	; 0x2494 <Get_TransimtterCalibrationBlock>
    5144:	e0 ce       	rjmp	.-576    	; 0x4f06 <SetBit+0x9c>
    5146:	ce 01       	movw	r24, r28
    5148:	05 96       	adiw	r24, 0x05	; 5
    514a:	7c 01       	movw	r14, r24
    514c:	8e 01       	movw	r16, r28
    514e:	07 5f       	subi	r16, 0xF7	; 247
    5150:	1f 4f       	sbci	r17, 0xFF	; 255
    5152:	9e 01       	movw	r18, r28
    5154:	23 5f       	subi	r18, 0xF3	; 243
    5156:	3f 4f       	sbci	r19, 0xFF	; 255
    5158:	ae 01       	movw	r20, r28
    515a:	4f 5e       	subi	r20, 0xEF	; 239
    515c:	5f 4f       	sbci	r21, 0xFF	; 255
    515e:	be 01       	movw	r22, r28
    5160:	6b 5e       	subi	r22, 0xEB	; 235
    5162:	7f 4f       	sbci	r23, 0xFF	; 255
    5164:	44 96       	adiw	r24, 0x14	; 20
    5166:	0e 94 54 11 	call	0x22a8	; 0x22a8 <Get_AnalogRFConfigurationBlock>
    516a:	cd ce       	rjmp	.-614    	; 0x4f06 <SetBit+0x9c>
    516c:	ce 01       	movw	r24, r28
    516e:	01 96       	adiw	r24, 0x01	; 1
    5170:	6c 01       	movw	r12, r24
    5172:	04 96       	adiw	r24, 0x04	; 4
    5174:	7c 01       	movw	r14, r24
    5176:	8e 01       	movw	r16, r28
    5178:	07 5f       	subi	r16, 0xF7	; 247
    517a:	1f 4f       	sbci	r17, 0xFF	; 255
    517c:	9e 01       	movw	r18, r28
    517e:	23 5f       	subi	r18, 0xF3	; 243
    5180:	3f 4f       	sbci	r19, 0xFF	; 255
    5182:	ae 01       	movw	r20, r28
    5184:	4f 5e       	subi	r20, 0xEF	; 239
    5186:	5f 4f       	sbci	r21, 0xFF	; 255
    5188:	be 01       	movw	r22, r28
    518a:	6b 5e       	subi	r22, 0xEB	; 235
    518c:	7f 4f       	sbci	r23, 0xFF	; 255
    518e:	44 96       	adiw	r24, 0x14	; 20
    5190:	0e 94 2e 10 	call	0x205c	; 0x205c <Get_DigitalReceiverConfiguration>
    5194:	b8 ce       	rjmp	.-656    	; 0x4f06 <SetBit+0x9c>
    5196:	ce 01       	movw	r24, r28
    5198:	01 96       	adiw	r24, 0x01	; 1
    519a:	6c 01       	movw	r12, r24
    519c:	04 96       	adiw	r24, 0x04	; 4
    519e:	7c 01       	movw	r14, r24
    51a0:	8e 01       	movw	r16, r28
    51a2:	07 5f       	subi	r16, 0xF7	; 247
    51a4:	1f 4f       	sbci	r17, 0xFF	; 255
    51a6:	9e 01       	movw	r18, r28
    51a8:	23 5f       	subi	r18, 0xF3	; 243
    51aa:	3f 4f       	sbci	r19, 0xFF	; 255
    51ac:	ae 01       	movw	r20, r28
    51ae:	4f 5e       	subi	r20, 0xEF	; 239
    51b0:	5f 4f       	sbci	r21, 0xFF	; 255
    51b2:	be 01       	movw	r22, r28
    51b4:	6b 5e       	subi	r22, 0xEB	; 235
    51b6:	7f 4f       	sbci	r23, 0xFF	; 255
    51b8:	44 96       	adiw	r24, 0x14	; 20
    51ba:	0e 94 a8 15 	call	0x2b50	; 0x2b50 <Get_LeadingEdgeDetectionInterface>
    51be:	a3 ce       	rjmp	.-698    	; 0x4f06 <SetBit+0x9c>
    51c0:	2c 98       	cbi	0x05, 4	; 5
    51c2:	fe 01       	movw	r30, r28
    51c4:	7b 96       	adiw	r30, 0x1b	; 27
    51c6:	81 e0       	ldi	r24, 0x01	; 1
    51c8:	90 e0       	ldi	r25, 0x00	; 0
    51ca:	5d e6       	ldi	r21, 0x6D	; 109
    51cc:	42 e1       	ldi	r20, 0x12	; 18
    51ce:	9c 01       	movw	r18, r24
    51d0:	21 50       	subi	r18, 0x01	; 1
    51d2:	31 09       	sbc	r19, r1
    51d4:	11 f4       	brne	.+4      	; 0x51da <SetBit+0x370>
    51d6:	0c 94 db 31 	jmp	0x63b6	; 0x63b6 <SetBit+0x154c>
    51da:	21 30       	cpi	r18, 0x01	; 1
    51dc:	31 05       	cpc	r19, r1
    51de:	09 f0       	breq	.+2      	; 0x51e2 <SetBit+0x378>
    51e0:	99 c5       	rjmp	.+2866   	; 0x5d14 <SetBit+0xeaa>
    51e2:	4e bd       	out	0x2e, r20	; 46
    51e4:	0d b4       	in	r0, 0x2d	; 45
    51e6:	07 fe       	sbrs	r0, 7
    51e8:	fd cf       	rjmp	.-6      	; 0x51e4 <SetBit+0x37a>
    51ea:	2e b5       	in	r18, 0x2e	; 46
    51ec:	01 96       	adiw	r24, 0x01	; 1
    51ee:	31 97       	sbiw	r30, 0x01	; 1
    51f0:	ee cf       	rjmp	.-36     	; 0x51ce <SetBit+0x364>
    51f2:	2c 98       	cbi	0x05, 4	; 5
    51f4:	fe 01       	movw	r30, r28
    51f6:	7e 96       	adiw	r30, 0x1e	; 30
    51f8:	81 e0       	ldi	r24, 0x01	; 1
    51fa:	90 e0       	ldi	r25, 0x00	; 0
    51fc:	5d e6       	ldi	r21, 0x6D	; 109
    51fe:	4e e0       	ldi	r20, 0x0E	; 14
    5200:	9c 01       	movw	r18, r24
    5202:	21 50       	subi	r18, 0x01	; 1
    5204:	31 09       	sbc	r19, r1
    5206:	09 f4       	brne	.+2      	; 0x520a <SetBit+0x3a0>
    5208:	b9 c6       	rjmp	.+3442   	; 0x5f7c <SetBit+0x1112>
    520a:	21 30       	cpi	r18, 0x01	; 1
    520c:	31 05       	cpc	r19, r1
    520e:	09 f0       	breq	.+2      	; 0x5212 <SetBit+0x3a8>
    5210:	a8 c6       	rjmp	.+3408   	; 0x5f62 <SetBit+0x10f8>
    5212:	4e bd       	out	0x2e, r20	; 46
    5214:	0d b4       	in	r0, 0x2d	; 45
    5216:	07 fe       	sbrs	r0, 7
    5218:	fd cf       	rjmp	.-6      	; 0x5214 <SetBit+0x3aa>
    521a:	2e b5       	in	r18, 0x2e	; 46
    521c:	01 96       	adiw	r24, 0x01	; 1
    521e:	31 97       	sbiw	r30, 0x01	; 1
    5220:	ef cf       	rjmp	.-34     	; 0x5200 <SetBit+0x396>
    5222:	2c 98       	cbi	0x05, 4	; 5
    5224:	fe 01       	movw	r30, r28
    5226:	7e 96       	adiw	r30, 0x1e	; 30
    5228:	81 e0       	ldi	r24, 0x01	; 1
    522a:	90 e0       	ldi	r25, 0x00	; 0
    522c:	5d e6       	ldi	r21, 0x6D	; 109
    522e:	4a e0       	ldi	r20, 0x0A	; 10
    5230:	9c 01       	movw	r18, r24
    5232:	21 50       	subi	r18, 0x01	; 1
    5234:	31 09       	sbc	r19, r1
    5236:	09 f4       	brne	.+2      	; 0x523a <SetBit+0x3d0>
    5238:	6b c6       	rjmp	.+3286   	; 0x5f10 <SetBit+0x10a6>
    523a:	21 30       	cpi	r18, 0x01	; 1
    523c:	31 05       	cpc	r19, r1
    523e:	09 f0       	breq	.+2      	; 0x5242 <SetBit+0x3d8>
    5240:	5a c6       	rjmp	.+3252   	; 0x5ef6 <SetBit+0x108c>
    5242:	4e bd       	out	0x2e, r20	; 46
    5244:	0d b4       	in	r0, 0x2d	; 45
    5246:	07 fe       	sbrs	r0, 7
    5248:	fd cf       	rjmp	.-6      	; 0x5244 <SetBit+0x3da>
    524a:	2e b5       	in	r18, 0x2e	; 46
    524c:	01 96       	adiw	r24, 0x01	; 1
    524e:	31 97       	sbiw	r30, 0x01	; 1
    5250:	ef cf       	rjmp	.-34     	; 0x5230 <SetBit+0x3c6>
    5252:	8e 01       	movw	r16, r28
    5254:	07 5f       	subi	r16, 0xF7	; 247
    5256:	1f 4f       	sbci	r17, 0xFF	; 255
    5258:	9e 01       	movw	r18, r28
    525a:	23 5f       	subi	r18, 0xF3	; 243
    525c:	3f 4f       	sbci	r19, 0xFF	; 255
    525e:	ae 01       	movw	r20, r28
    5260:	4f 5e       	subi	r20, 0xEF	; 239
    5262:	5f 4f       	sbci	r21, 0xFF	; 255
    5264:	be 01       	movw	r22, r28
    5266:	6b 5e       	subi	r22, 0xEB	; 235
    5268:	7f 4f       	sbci	r23, 0xFF	; 255
    526a:	ce 01       	movw	r24, r28
    526c:	49 96       	adiw	r24, 0x19	; 25
    526e:	0e 94 37 17 	call	0x2e6e	; 0x2e6e <Get_PowerManagementAndSystemControl>
    5272:	49 ce       	rjmp	.-878    	; 0x4f06 <SetBit+0x9c>
    5274:	2c 98       	cbi	0x05, 4	; 5
    5276:	fe 01       	movw	r30, r28
    5278:	7d 96       	adiw	r30, 0x1d	; 29
    527a:	81 e0       	ldi	r24, 0x01	; 1
    527c:	90 e0       	ldi	r25, 0x00	; 0
    527e:	34 e0       	ldi	r19, 0x04	; 4
    5280:	81 30       	cpi	r24, 0x01	; 1
    5282:	91 05       	cpc	r25, r1
    5284:	09 f0       	breq	.+2      	; 0x5288 <SetBit+0x41e>
    5286:	52 c5       	rjmp	.+2724   	; 0x5d2c <SetBit+0xec2>
    5288:	3e bd       	out	0x2e, r19	; 46
    528a:	0d b4       	in	r0, 0x2d	; 45
    528c:	07 fe       	sbrs	r0, 7
    528e:	fd cf       	rjmp	.-6      	; 0x528a <SetBit+0x420>
    5290:	2e b5       	in	r18, 0x2e	; 46
    5292:	01 96       	adiw	r24, 0x01	; 1
    5294:	31 97       	sbiw	r30, 0x01	; 1
    5296:	f4 cf       	rjmp	.-24     	; 0x5280 <SetBit+0x416>
    5298:	2c 98       	cbi	0x05, 4	; 5
    529a:	fe 01       	movw	r30, r28
    529c:	7d 96       	adiw	r30, 0x1d	; 29
    529e:	81 e0       	ldi	r24, 0x01	; 1
    52a0:	90 e0       	ldi	r25, 0x00	; 0
    52a2:	1e bc       	out	0x2e, r1	; 46
    52a4:	81 30       	cpi	r24, 0x01	; 1
    52a6:	91 05       	cpc	r25, r1
    52a8:	29 f4       	brne	.+10     	; 0x52b4 <SetBit+0x44a>
    52aa:	0d b4       	in	r0, 0x2d	; 45
    52ac:	07 fe       	sbrs	r0, 7
    52ae:	fd cf       	rjmp	.-6      	; 0x52aa <SetBit+0x440>
    52b0:	2e b5       	in	r18, 0x2e	; 46
    52b2:	09 c0       	rjmp	.+18     	; 0x52c6 <SetBit+0x45c>
    52b4:	0d b4       	in	r0, 0x2d	; 45
    52b6:	07 fe       	sbrs	r0, 7
    52b8:	fd cf       	rjmp	.-6      	; 0x52b4 <SetBit+0x44a>
    52ba:	2e b5       	in	r18, 0x2e	; 46
    52bc:	20 83       	st	Z, r18
    52be:	85 30       	cpi	r24, 0x05	; 5
    52c0:	91 05       	cpc	r25, r1
    52c2:	09 f4       	brne	.+2      	; 0x52c6 <SetBit+0x45c>
    52c4:	31 c5       	rjmp	.+2658   	; 0x5d28 <SetBit+0xebe>
    52c6:	01 96       	adiw	r24, 0x01	; 1
    52c8:	31 97       	sbiw	r30, 0x01	; 1
    52ca:	eb cf       	rjmp	.-42     	; 0x52a2 <SetBit+0x438>
    52cc:	2c 98       	cbi	0x05, 4	; 5
    52ce:	fe 01       	movw	r30, r28
    52d0:	7d 96       	adiw	r30, 0x1d	; 29
    52d2:	81 e0       	ldi	r24, 0x01	; 1
    52d4:	90 e0       	ldi	r25, 0x00	; 0
    52d6:	3e e0       	ldi	r19, 0x0E	; 14
    52d8:	81 30       	cpi	r24, 0x01	; 1
    52da:	91 05       	cpc	r25, r1
    52dc:	09 f0       	breq	.+2      	; 0x52e0 <SetBit+0x476>
    52de:	86 c5       	rjmp	.+2828   	; 0x5dec <SetBit+0xf82>
    52e0:	3e bd       	out	0x2e, r19	; 46
    52e2:	0d b4       	in	r0, 0x2d	; 45
    52e4:	07 fe       	sbrs	r0, 7
    52e6:	fd cf       	rjmp	.-6      	; 0x52e2 <SetBit+0x478>
    52e8:	2e b5       	in	r18, 0x2e	; 46
    52ea:	01 96       	adiw	r24, 0x01	; 1
    52ec:	31 97       	sbiw	r30, 0x01	; 1
    52ee:	f4 cf       	rjmp	.-24     	; 0x52d8 <SetBit+0x46e>
    52f0:	2c 98       	cbi	0x05, 4	; 5
    52f2:	fe 01       	movw	r30, r28
    52f4:	7d 96       	adiw	r30, 0x1d	; 29
    52f6:	81 e0       	ldi	r24, 0x01	; 1
    52f8:	90 e0       	ldi	r25, 0x00	; 0
    52fa:	3d e0       	ldi	r19, 0x0D	; 13
    52fc:	81 30       	cpi	r24, 0x01	; 1
    52fe:	91 05       	cpc	r25, r1
    5300:	09 f0       	breq	.+2      	; 0x5304 <SetBit+0x49a>
    5302:	68 c5       	rjmp	.+2768   	; 0x5dd4 <SetBit+0xf6a>
    5304:	3e bd       	out	0x2e, r19	; 46
    5306:	0d b4       	in	r0, 0x2d	; 45
    5308:	07 fe       	sbrs	r0, 7
    530a:	fd cf       	rjmp	.-6      	; 0x5306 <SetBit+0x49c>
    530c:	2e b5       	in	r18, 0x2e	; 46
    530e:	01 96       	adiw	r24, 0x01	; 1
    5310:	31 97       	sbiw	r30, 0x01	; 1
    5312:	f4 cf       	rjmp	.-24     	; 0x52fc <SetBit+0x492>
    5314:	be 01       	movw	r22, r28
    5316:	6b 5e       	subi	r22, 0xEB	; 235
    5318:	7f 4f       	sbci	r23, 0xFF	; 255
    531a:	ce 01       	movw	r24, r28
    531c:	49 96       	adiw	r24, 0x19	; 25
    531e:	0e 94 5c 09 	call	0x12b8	; 0x12b8 <Get_TransmitFrameControl>
    5322:	f1 cd       	rjmp	.-1054   	; 0x4f06 <SetBit+0x9c>
    5324:	be 01       	movw	r22, r28
    5326:	6b 5e       	subi	r22, 0xEB	; 235
    5328:	7f 4f       	sbci	r23, 0xFF	; 255
    532a:	ce 01       	movw	r24, r28
    532c:	49 96       	adiw	r24, 0x19	; 25
    532e:	0e 94 15 09 	call	0x122a	; 0x122a <Get_SystemTimeCounter>
    5332:	e9 cd       	rjmp	.-1070   	; 0x4f06 <SetBit+0x9c>
    5334:	2c 98       	cbi	0x05, 4	; 5
    5336:	fe 01       	movw	r30, r28
    5338:	7e 96       	adiw	r30, 0x1e	; 30
    533a:	81 e0       	ldi	r24, 0x01	; 1
    533c:	90 e0       	ldi	r25, 0x00	; 0
    533e:	56 e6       	ldi	r21, 0x66	; 102
    5340:	48 e2       	ldi	r20, 0x28	; 40
    5342:	9c 01       	movw	r18, r24
    5344:	21 50       	subi	r18, 0x01	; 1
    5346:	31 09       	sbc	r19, r1
    5348:	09 f4       	brne	.+2      	; 0x534c <SetBit+0x4e2>
    534a:	06 c6       	rjmp	.+3084   	; 0x5f58 <SetBit+0x10ee>
    534c:	21 30       	cpi	r18, 0x01	; 1
    534e:	31 05       	cpc	r19, r1
    5350:	09 f0       	breq	.+2      	; 0x5354 <SetBit+0x4ea>
    5352:	f5 c5       	rjmp	.+3050   	; 0x5f3e <SetBit+0x10d4>
    5354:	4e bd       	out	0x2e, r20	; 46
    5356:	0d b4       	in	r0, 0x2d	; 45
    5358:	07 fe       	sbrs	r0, 7
    535a:	fd cf       	rjmp	.-6      	; 0x5356 <SetBit+0x4ec>
    535c:	2e b5       	in	r18, 0x2e	; 46
    535e:	01 96       	adiw	r24, 0x01	; 1
    5360:	31 97       	sbiw	r30, 0x01	; 1
    5362:	ef cf       	rjmp	.-34     	; 0x5342 <SetBit+0x4d8>
    5364:	2c 98       	cbi	0x05, 4	; 5
    5366:	fe 01       	movw	r30, r28
    5368:	7e 96       	adiw	r30, 0x1e	; 30
    536a:	81 e0       	ldi	r24, 0x01	; 1
    536c:	90 e0       	ldi	r25, 0x00	; 0
    536e:	56 e6       	ldi	r21, 0x66	; 102
    5370:	44 e2       	ldi	r20, 0x24	; 36
    5372:	9c 01       	movw	r18, r24
    5374:	21 50       	subi	r18, 0x01	; 1
    5376:	31 09       	sbc	r19, r1
    5378:	09 f4       	brne	.+2      	; 0x537c <SetBit+0x512>
    537a:	dc c5       	rjmp	.+3000   	; 0x5f34 <SetBit+0x10ca>
    537c:	21 30       	cpi	r18, 0x01	; 1
    537e:	31 05       	cpc	r19, r1
    5380:	09 f0       	breq	.+2      	; 0x5384 <SetBit+0x51a>
    5382:	cb c5       	rjmp	.+2966   	; 0x5f1a <SetBit+0x10b0>
    5384:	4e bd       	out	0x2e, r20	; 46
    5386:	0d b4       	in	r0, 0x2d	; 45
    5388:	07 fe       	sbrs	r0, 7
    538a:	fd cf       	rjmp	.-6      	; 0x5386 <SetBit+0x51c>
    538c:	2e b5       	in	r18, 0x2e	; 46
    538e:	01 96       	adiw	r24, 0x01	; 1
    5390:	31 97       	sbiw	r30, 0x01	; 1
    5392:	ef cf       	rjmp	.-34     	; 0x5372 <SetBit+0x508>
    5394:	2c 98       	cbi	0x05, 4	; 5
    5396:	fe 01       	movw	r30, r28
    5398:	7e 96       	adiw	r30, 0x1e	; 30
    539a:	81 e0       	ldi	r24, 0x01	; 1
    539c:	90 e0       	ldi	r25, 0x00	; 0
    539e:	56 e6       	ldi	r21, 0x66	; 102
    53a0:	40 e2       	ldi	r20, 0x20	; 32
    53a2:	9c 01       	movw	r18, r24
    53a4:	21 50       	subi	r18, 0x01	; 1
    53a6:	31 09       	sbc	r19, r1
    53a8:	09 f4       	brne	.+2      	; 0x53ac <SetBit+0x542>
    53aa:	1e c6       	rjmp	.+3132   	; 0x5fe8 <SetBit+0x117e>
    53ac:	21 30       	cpi	r18, 0x01	; 1
    53ae:	31 05       	cpc	r19, r1
    53b0:	09 f0       	breq	.+2      	; 0x53b4 <SetBit+0x54a>
    53b2:	0d c6       	rjmp	.+3098   	; 0x5fce <SetBit+0x1164>
    53b4:	4e bd       	out	0x2e, r20	; 46
    53b6:	0d b4       	in	r0, 0x2d	; 45
    53b8:	07 fe       	sbrs	r0, 7
    53ba:	fd cf       	rjmp	.-6      	; 0x53b6 <SetBit+0x54c>
    53bc:	2e b5       	in	r18, 0x2e	; 46
    53be:	01 96       	adiw	r24, 0x01	; 1
    53c0:	31 97       	sbiw	r30, 0x01	; 1
    53c2:	ef cf       	rjmp	.-34     	; 0x53a2 <SetBit+0x538>
    53c4:	2c 98       	cbi	0x05, 4	; 5
    53c6:	fe 01       	movw	r30, r28
    53c8:	7e 96       	adiw	r30, 0x1e	; 30
    53ca:	81 e0       	ldi	r24, 0x01	; 1
    53cc:	90 e0       	ldi	r25, 0x00	; 0
    53ce:	56 e6       	ldi	r21, 0x66	; 102
    53d0:	4c e1       	ldi	r20, 0x1C	; 28
    53d2:	9c 01       	movw	r18, r24
    53d4:	21 50       	subi	r18, 0x01	; 1
    53d6:	31 09       	sbc	r19, r1
    53d8:	09 f4       	brne	.+2      	; 0x53dc <SetBit+0x572>
    53da:	72 c6       	rjmp	.+3300   	; 0x60c0 <SetBit+0x1256>
    53dc:	21 30       	cpi	r18, 0x01	; 1
    53de:	31 05       	cpc	r19, r1
    53e0:	09 f0       	breq	.+2      	; 0x53e4 <SetBit+0x57a>
    53e2:	61 c6       	rjmp	.+3266   	; 0x60a6 <SetBit+0x123c>
    53e4:	4e bd       	out	0x2e, r20	; 46
    53e6:	0d b4       	in	r0, 0x2d	; 45
    53e8:	07 fe       	sbrs	r0, 7
    53ea:	fd cf       	rjmp	.-6      	; 0x53e6 <SetBit+0x57c>
    53ec:	2e b5       	in	r18, 0x2e	; 46
    53ee:	01 96       	adiw	r24, 0x01	; 1
    53f0:	31 97       	sbiw	r30, 0x01	; 1
    53f2:	ef cf       	rjmp	.-34     	; 0x53d2 <SetBit+0x568>
    53f4:	2c 98       	cbi	0x05, 4	; 5
    53f6:	fe 01       	movw	r30, r28
    53f8:	7e 96       	adiw	r30, 0x1e	; 30
    53fa:	81 e0       	ldi	r24, 0x01	; 1
    53fc:	90 e0       	ldi	r25, 0x00	; 0
    53fe:	56 e6       	ldi	r21, 0x66	; 102
    5400:	48 e1       	ldi	r20, 0x18	; 24
    5402:	9c 01       	movw	r18, r24
    5404:	21 50       	subi	r18, 0x01	; 1
    5406:	31 09       	sbc	r19, r1
    5408:	09 f4       	brne	.+2      	; 0x540c <SetBit+0x5a2>
    540a:	12 c6       	rjmp	.+3108   	; 0x6030 <SetBit+0x11c6>
    540c:	21 30       	cpi	r18, 0x01	; 1
    540e:	31 05       	cpc	r19, r1
    5410:	09 f0       	breq	.+2      	; 0x5414 <SetBit+0x5aa>
    5412:	01 c6       	rjmp	.+3074   	; 0x6016 <SetBit+0x11ac>
    5414:	4e bd       	out	0x2e, r20	; 46
    5416:	0d b4       	in	r0, 0x2d	; 45
    5418:	07 fe       	sbrs	r0, 7
    541a:	fd cf       	rjmp	.-6      	; 0x5416 <SetBit+0x5ac>
    541c:	2e b5       	in	r18, 0x2e	; 46
    541e:	01 96       	adiw	r24, 0x01	; 1
    5420:	31 97       	sbiw	r30, 0x01	; 1
    5422:	ef cf       	rjmp	.-34     	; 0x5402 <SetBit+0x598>
    5424:	2c 98       	cbi	0x05, 4	; 5
    5426:	fe 01       	movw	r30, r28
    5428:	7e 96       	adiw	r30, 0x1e	; 30
    542a:	81 e0       	ldi	r24, 0x01	; 1
    542c:	90 e0       	ldi	r25, 0x00	; 0
    542e:	56 e6       	ldi	r21, 0x66	; 102
    5430:	44 e1       	ldi	r20, 0x14	; 20
    5432:	9c 01       	movw	r18, r24
    5434:	21 50       	subi	r18, 0x01	; 1
    5436:	31 09       	sbc	r19, r1
    5438:	09 f4       	brne	.+2      	; 0x543c <SetBit+0x5d2>
    543a:	e8 c5       	rjmp	.+3024   	; 0x600c <SetBit+0x11a2>
    543c:	21 30       	cpi	r18, 0x01	; 1
    543e:	31 05       	cpc	r19, r1
    5440:	09 f0       	breq	.+2      	; 0x5444 <SetBit+0x5da>
    5442:	d7 c5       	rjmp	.+2990   	; 0x5ff2 <SetBit+0x1188>
    5444:	4e bd       	out	0x2e, r20	; 46
    5446:	0d b4       	in	r0, 0x2d	; 45
    5448:	07 fe       	sbrs	r0, 7
    544a:	fd cf       	rjmp	.-6      	; 0x5446 <SetBit+0x5dc>
    544c:	2e b5       	in	r18, 0x2e	; 46
    544e:	01 96       	adiw	r24, 0x01	; 1
    5450:	31 97       	sbiw	r30, 0x01	; 1
    5452:	ef cf       	rjmp	.-34     	; 0x5432 <SetBit+0x5c8>
    5454:	2c 98       	cbi	0x05, 4	; 5
    5456:	fe 01       	movw	r30, r28
    5458:	7e 96       	adiw	r30, 0x1e	; 30
    545a:	81 e0       	ldi	r24, 0x01	; 1
    545c:	90 e0       	ldi	r25, 0x00	; 0
    545e:	56 e6       	ldi	r21, 0x66	; 102
    5460:	40 e1       	ldi	r20, 0x10	; 16
    5462:	9c 01       	movw	r18, r24
    5464:	21 50       	subi	r18, 0x01	; 1
    5466:	31 09       	sbc	r19, r1
    5468:	09 f4       	brne	.+2      	; 0x546c <SetBit+0x602>
    546a:	18 c6       	rjmp	.+3120   	; 0x609c <SetBit+0x1232>
    546c:	21 30       	cpi	r18, 0x01	; 1
    546e:	31 05       	cpc	r19, r1
    5470:	09 f0       	breq	.+2      	; 0x5474 <SetBit+0x60a>
    5472:	07 c6       	rjmp	.+3086   	; 0x6082 <SetBit+0x1218>
    5474:	4e bd       	out	0x2e, r20	; 46
    5476:	0d b4       	in	r0, 0x2d	; 45
    5478:	07 fe       	sbrs	r0, 7
    547a:	fd cf       	rjmp	.-6      	; 0x5476 <SetBit+0x60c>
    547c:	2e b5       	in	r18, 0x2e	; 46
    547e:	01 96       	adiw	r24, 0x01	; 1
    5480:	31 97       	sbiw	r30, 0x01	; 1
    5482:	ef cf       	rjmp	.-34     	; 0x5462 <SetBit+0x5f8>
    5484:	2c 98       	cbi	0x05, 4	; 5
    5486:	fe 01       	movw	r30, r28
    5488:	7e 96       	adiw	r30, 0x1e	; 30
    548a:	81 e0       	ldi	r24, 0x01	; 1
    548c:	90 e0       	ldi	r25, 0x00	; 0
    548e:	56 e6       	ldi	r21, 0x66	; 102
    5490:	4c e0       	ldi	r20, 0x0C	; 12
    5492:	9c 01       	movw	r18, r24
    5494:	21 50       	subi	r18, 0x01	; 1
    5496:	31 09       	sbc	r19, r1
    5498:	09 f4       	brne	.+2      	; 0x549c <SetBit+0x632>
    549a:	94 c5       	rjmp	.+2856   	; 0x5fc4 <SetBit+0x115a>
    549c:	21 30       	cpi	r18, 0x01	; 1
    549e:	31 05       	cpc	r19, r1
    54a0:	09 f0       	breq	.+2      	; 0x54a4 <SetBit+0x63a>
    54a2:	83 c5       	rjmp	.+2822   	; 0x5faa <SetBit+0x1140>
    54a4:	4e bd       	out	0x2e, r20	; 46
    54a6:	0d b4       	in	r0, 0x2d	; 45
    54a8:	07 fe       	sbrs	r0, 7
    54aa:	fd cf       	rjmp	.-6      	; 0x54a6 <SetBit+0x63c>
    54ac:	2e b5       	in	r18, 0x2e	; 46
    54ae:	01 96       	adiw	r24, 0x01	; 1
    54b0:	31 97       	sbiw	r30, 0x01	; 1
    54b2:	ef cf       	rjmp	.-34     	; 0x5492 <SetBit+0x628>
    54b4:	2c 98       	cbi	0x05, 4	; 5
    54b6:	fe 01       	movw	r30, r28
    54b8:	7e 96       	adiw	r30, 0x1e	; 30
    54ba:	81 e0       	ldi	r24, 0x01	; 1
    54bc:	90 e0       	ldi	r25, 0x00	; 0
    54be:	56 e6       	ldi	r21, 0x66	; 102
    54c0:	48 e0       	ldi	r20, 0x08	; 8
    54c2:	9c 01       	movw	r18, r24
    54c4:	21 50       	subi	r18, 0x01	; 1
    54c6:	31 09       	sbc	r19, r1
    54c8:	09 f4       	brne	.+2      	; 0x54cc <SetBit+0x662>
    54ca:	d6 c5       	rjmp	.+2988   	; 0x6078 <SetBit+0x120e>
    54cc:	21 30       	cpi	r18, 0x01	; 1
    54ce:	31 05       	cpc	r19, r1
    54d0:	09 f0       	breq	.+2      	; 0x54d4 <SetBit+0x66a>
    54d2:	c5 c5       	rjmp	.+2954   	; 0x605e <SetBit+0x11f4>
    54d4:	4e bd       	out	0x2e, r20	; 46
    54d6:	0d b4       	in	r0, 0x2d	; 45
    54d8:	07 fe       	sbrs	r0, 7
    54da:	fd cf       	rjmp	.-6      	; 0x54d6 <SetBit+0x66c>
    54dc:	2e b5       	in	r18, 0x2e	; 46
    54de:	01 96       	adiw	r24, 0x01	; 1
    54e0:	31 97       	sbiw	r30, 0x01	; 1
    54e2:	ef cf       	rjmp	.-34     	; 0x54c2 <SetBit+0x658>
    54e4:	2c 98       	cbi	0x05, 4	; 5
    54e6:	fe 01       	movw	r30, r28
    54e8:	7e 96       	adiw	r30, 0x1e	; 30
    54ea:	81 e0       	ldi	r24, 0x01	; 1
    54ec:	90 e0       	ldi	r25, 0x00	; 0
    54ee:	46 e6       	ldi	r20, 0x66	; 102
    54f0:	9c 01       	movw	r18, r24
    54f2:	21 50       	subi	r18, 0x01	; 1
    54f4:	31 09       	sbc	r19, r1
    54f6:	09 f4       	brne	.+2      	; 0x54fa <SetBit+0x690>
    54f8:	ad c5       	rjmp	.+2906   	; 0x6054 <SetBit+0x11ea>
    54fa:	21 30       	cpi	r18, 0x01	; 1
    54fc:	31 05       	cpc	r19, r1
    54fe:	09 f0       	breq	.+2      	; 0x5502 <SetBit+0x698>
    5500:	9c c5       	rjmp	.+2872   	; 0x603a <SetBit+0x11d0>
    5502:	1e bc       	out	0x2e, r1	; 46
    5504:	0d b4       	in	r0, 0x2d	; 45
    5506:	07 fe       	sbrs	r0, 7
    5508:	fd cf       	rjmp	.-6      	; 0x5504 <SetBit+0x69a>
    550a:	2e b5       	in	r18, 0x2e	; 46
    550c:	01 96       	adiw	r24, 0x01	; 1
    550e:	31 97       	sbiw	r30, 0x01	; 1
    5510:	ef cf       	rjmp	.-34     	; 0x54f0 <SetBit+0x686>
    5512:	ae 01       	movw	r20, r28
    5514:	4f 5e       	subi	r20, 0xEF	; 239
    5516:	5f 4f       	sbci	r21, 0xFF	; 255
    5518:	be 01       	movw	r22, r28
    551a:	6b 5e       	subi	r22, 0xEB	; 235
    551c:	7f 4f       	sbci	r23, 0xFF	; 255
    551e:	ce 01       	movw	r24, r28
    5520:	49 96       	adiw	r24, 0x19	; 25
    5522:	0e 94 1c 0e 	call	0x1c38	; 0x1c38 <Get_ExternalSynchronizationControl>
    5526:	ef cc       	rjmp	.-1570   	; 0x4f06 <SetBit+0x9c>
    5528:	8e 01       	movw	r16, r28
    552a:	07 5f       	subi	r16, 0xF7	; 247
    552c:	1f 4f       	sbci	r17, 0xFF	; 255
    552e:	9e 01       	movw	r18, r28
    5530:	23 5f       	subi	r18, 0xF3	; 243
    5532:	3f 4f       	sbci	r19, 0xFF	; 255
    5534:	ae 01       	movw	r20, r28
    5536:	4f 5e       	subi	r20, 0xEF	; 239
    5538:	5f 4f       	sbci	r21, 0xFF	; 255
    553a:	be 01       	movw	r22, r28
    553c:	6b 5e       	subi	r22, 0xEB	; 235
    553e:	7f 4f       	sbci	r23, 0xFF	; 255
    5540:	ce 01       	movw	r24, r28
    5542:	49 96       	adiw	r24, 0x19	; 25
    5544:	0e 94 4e 0d 	call	0x1a9c	; 0x1a9c <Get_AGCConfigurationAndControl>
    5548:	de cc       	rjmp	.-1604   	; 0x4f06 <SetBit+0x9c>
    554a:	2c 98       	cbi	0x05, 4	; 5
    554c:	fe 01       	movw	r30, r28
    554e:	7d 96       	adiw	r30, 0x1d	; 29
    5550:	81 e0       	ldi	r24, 0x01	; 1
    5552:	90 e0       	ldi	r25, 0x00	; 0
    5554:	3f e1       	ldi	r19, 0x1F	; 31
    5556:	81 30       	cpi	r24, 0x01	; 1
    5558:	91 05       	cpc	r25, r1
    555a:	09 f0       	breq	.+2      	; 0x555e <SetBit+0x6f4>
    555c:	2f c4       	rjmp	.+2142   	; 0x5dbc <SetBit+0xf52>
    555e:	3e bd       	out	0x2e, r19	; 46
    5560:	0d b4       	in	r0, 0x2d	; 45
    5562:	07 fe       	sbrs	r0, 7
    5564:	fd cf       	rjmp	.-6      	; 0x5560 <SetBit+0x6f6>
    5566:	2e b5       	in	r18, 0x2e	; 46
    5568:	01 96       	adiw	r24, 0x01	; 1
    556a:	31 97       	sbiw	r30, 0x01	; 1
    556c:	f4 cf       	rjmp	.-24     	; 0x5556 <SetBit+0x6ec>
    556e:	2c 98       	cbi	0x05, 4	; 5
    5570:	fe 01       	movw	r30, r28
    5572:	7d 96       	adiw	r30, 0x1d	; 29
    5574:	81 e0       	ldi	r24, 0x01	; 1
    5576:	90 e0       	ldi	r25, 0x00	; 0
    5578:	3e e1       	ldi	r19, 0x1E	; 30
    557a:	81 30       	cpi	r24, 0x01	; 1
    557c:	91 05       	cpc	r25, r1
    557e:	09 f0       	breq	.+2      	; 0x5582 <SetBit+0x718>
    5580:	11 c4       	rjmp	.+2082   	; 0x5da4 <SetBit+0xf3a>
    5582:	3e bd       	out	0x2e, r19	; 46
    5584:	0d b4       	in	r0, 0x2d	; 45
    5586:	07 fe       	sbrs	r0, 7
    5588:	fd cf       	rjmp	.-6      	; 0x5584 <SetBit+0x71a>
    558a:	2e b5       	in	r18, 0x2e	; 46
    558c:	01 96       	adiw	r24, 0x01	; 1
    558e:	31 97       	sbiw	r30, 0x01	; 1
    5590:	f4 cf       	rjmp	.-24     	; 0x557a <SetBit+0x710>
    5592:	2c 98       	cbi	0x05, 4	; 5
    5594:	fe 01       	movw	r30, r28
    5596:	7d 96       	adiw	r30, 0x1d	; 29
    5598:	81 e0       	ldi	r24, 0x01	; 1
    559a:	90 e0       	ldi	r25, 0x00	; 0
    559c:	3d e1       	ldi	r19, 0x1D	; 29
    559e:	81 30       	cpi	r24, 0x01	; 1
    55a0:	91 05       	cpc	r25, r1
    55a2:	09 f0       	breq	.+2      	; 0x55a6 <SetBit+0x73c>
    55a4:	e7 c3       	rjmp	.+1998   	; 0x5d74 <SetBit+0xf0a>
    55a6:	3e bd       	out	0x2e, r19	; 46
    55a8:	0d b4       	in	r0, 0x2d	; 45
    55aa:	07 fe       	sbrs	r0, 7
    55ac:	fd cf       	rjmp	.-6      	; 0x55a8 <SetBit+0x73e>
    55ae:	2e b5       	in	r18, 0x2e	; 46
    55b0:	01 96       	adiw	r24, 0x01	; 1
    55b2:	31 97       	sbiw	r30, 0x01	; 1
    55b4:	f4 cf       	rjmp	.-24     	; 0x559e <SetBit+0x734>
    55b6:	2c 98       	cbi	0x05, 4	; 5
    55b8:	fe 01       	movw	r30, r28
    55ba:	7d 96       	adiw	r30, 0x1d	; 29
    55bc:	81 e0       	ldi	r24, 0x01	; 1
    55be:	90 e0       	ldi	r25, 0x00	; 0
    55c0:	3a e1       	ldi	r19, 0x1A	; 26
    55c2:	81 30       	cpi	r24, 0x01	; 1
    55c4:	91 05       	cpc	r25, r1
    55c6:	09 f0       	breq	.+2      	; 0x55ca <SetBit+0x760>
    55c8:	c9 c3       	rjmp	.+1938   	; 0x5d5c <SetBit+0xef2>
    55ca:	3e bd       	out	0x2e, r19	; 46
    55cc:	0d b4       	in	r0, 0x2d	; 45
    55ce:	07 fe       	sbrs	r0, 7
    55d0:	fd cf       	rjmp	.-6      	; 0x55cc <SetBit+0x762>
    55d2:	2e b5       	in	r18, 0x2e	; 46
    55d4:	01 96       	adiw	r24, 0x01	; 1
    55d6:	31 97       	sbiw	r30, 0x01	; 1
    55d8:	f4 cf       	rjmp	.-24     	; 0x55c2 <SetBit+0x758>
    55da:	2c 98       	cbi	0x05, 4	; 5
    55dc:	fe 01       	movw	r30, r28
    55de:	7b 96       	adiw	r30, 0x1b	; 27
    55e0:	81 e0       	ldi	r24, 0x01	; 1
    55e2:	90 e0       	ldi	r25, 0x00	; 0
    55e4:	38 e1       	ldi	r19, 0x18	; 24
    55e6:	81 30       	cpi	r24, 0x01	; 1
    55e8:	91 05       	cpc	r25, r1
    55ea:	09 f0       	breq	.+2      	; 0x55ee <SetBit+0x784>
    55ec:	58 c6       	rjmp	.+3248   	; 0x629e <SetBit+0x1434>
    55ee:	3e bd       	out	0x2e, r19	; 46
    55f0:	0d b4       	in	r0, 0x2d	; 45
    55f2:	07 fe       	sbrs	r0, 7
    55f4:	fd cf       	rjmp	.-6      	; 0x55f0 <SetBit+0x786>
    55f6:	2e b5       	in	r18, 0x2e	; 46
    55f8:	01 96       	adiw	r24, 0x01	; 1
    55fa:	31 97       	sbiw	r30, 0x01	; 1
    55fc:	f4 cf       	rjmp	.-24     	; 0x55e6 <SetBit+0x77c>
    55fe:	ae 01       	movw	r20, r28
    5600:	4f 5e       	subi	r20, 0xEF	; 239
    5602:	5f 4f       	sbci	r21, 0xFF	; 255
    5604:	be 01       	movw	r22, r28
    5606:	6b 5e       	subi	r22, 0xEB	; 235
    5608:	7f 4f       	sbci	r23, 0xFF	; 255
    560a:	ce 01       	movw	r24, r28
    560c:	49 96       	adiw	r24, 0x19	; 25
    560e:	0e 94 44 0c 	call	0x1888	; 0x1888 <Get_TransmitTimeStamp>
    5612:	79 cc       	rjmp	.-1806   	; 0x4f06 <SetBit+0x9c>
    5614:	9e 01       	movw	r18, r28
    5616:	23 5f       	subi	r18, 0xF3	; 243
    5618:	3f 4f       	sbci	r19, 0xFF	; 255
    561a:	ae 01       	movw	r20, r28
    561c:	4f 5e       	subi	r20, 0xEF	; 239
    561e:	5f 4f       	sbci	r21, 0xFF	; 255
    5620:	be 01       	movw	r22, r28
    5622:	6b 5e       	subi	r22, 0xEB	; 235
    5624:	7f 4f       	sbci	r23, 0xFF	; 255
    5626:	ce 01       	movw	r24, r28
    5628:	49 96       	adiw	r24, 0x19	; 25
    562a:	0e 94 66 0b 	call	0x16cc	; 0x16cc <Get_ReceiveTimeStamp>
    562e:	6b cc       	rjmp	.-1834   	; 0x4f06 <SetBit+0x9c>
    5630:	be 01       	movw	r22, r28
    5632:	6b 5e       	subi	r22, 0xEB	; 235
    5634:	7f 4f       	sbci	r23, 0xFF	; 255
    5636:	ce 01       	movw	r24, r28
    5638:	49 96       	adiw	r24, 0x19	; 25
    563a:	0e 94 d6 0a 	call	0x15ac	; 0x15ac <Get_ReceiverTimeTrackingOffset>
    563e:	63 cc       	rjmp	.-1850   	; 0x4f06 <SetBit+0x9c>
    5640:	2c 98       	cbi	0x05, 4	; 5
    5642:	fe 01       	movw	r30, r28
    5644:	7d 96       	adiw	r30, 0x1d	; 29
    5646:	81 e0       	ldi	r24, 0x01	; 1
    5648:	90 e0       	ldi	r25, 0x00	; 0
    564a:	33 e1       	ldi	r19, 0x13	; 19
    564c:	81 30       	cpi	r24, 0x01	; 1
    564e:	91 05       	cpc	r25, r1
    5650:	09 f0       	breq	.+2      	; 0x5654 <SetBit+0x7ea>
    5652:	9c c3       	rjmp	.+1848   	; 0x5d8c <SetBit+0xf22>
    5654:	3e bd       	out	0x2e, r19	; 46
    5656:	0d b4       	in	r0, 0x2d	; 45
    5658:	07 fe       	sbrs	r0, 7
    565a:	fd cf       	rjmp	.-6      	; 0x5656 <SetBit+0x7ec>
    565c:	2e b5       	in	r18, 0x2e	; 46
    565e:	01 96       	adiw	r24, 0x01	; 1
    5660:	31 97       	sbiw	r30, 0x01	; 1
    5662:	f4 cf       	rjmp	.-24     	; 0x564c <SetBit+0x7e2>
    5664:	be 01       	movw	r22, r28
    5666:	6b 5e       	subi	r22, 0xEB	; 235
    5668:	7f 4f       	sbci	r23, 0xFF	; 255
    566a:	ce 01       	movw	r24, r28
    566c:	49 96       	adiw	r24, 0x19	; 25
    566e:	0e 94 70 0a 	call	0x14e0	; 0x14e0 <Get_RXFrameQualityInformation>
    5672:	49 cc       	rjmp	.-1902   	; 0x4f06 <SetBit+0x9c>
    5674:	2c 98       	cbi	0x05, 4	; 5
    5676:	fe 01       	movw	r30, r28
    5678:	7d 96       	adiw	r30, 0x1d	; 29
    567a:	81 e0       	ldi	r24, 0x01	; 1
    567c:	90 e0       	ldi	r25, 0x00	; 0
    567e:	30 e1       	ldi	r19, 0x10	; 16
    5680:	81 30       	cpi	r24, 0x01	; 1
    5682:	91 05       	cpc	r25, r1
    5684:	09 f0       	breq	.+2      	; 0x5688 <SetBit+0x81e>
    5686:	5e c3       	rjmp	.+1724   	; 0x5d44 <SetBit+0xeda>
    5688:	3e bd       	out	0x2e, r19	; 46
    568a:	0d b4       	in	r0, 0x2d	; 45
    568c:	07 fe       	sbrs	r0, 7
    568e:	fd cf       	rjmp	.-6      	; 0x568a <SetBit+0x820>
    5690:	2e b5       	in	r18, 0x2e	; 46
    5692:	01 96       	adiw	r24, 0x01	; 1
    5694:	31 97       	sbiw	r30, 0x01	; 1
    5696:	f4 cf       	rjmp	.-24     	; 0x5680 <SetBit+0x816>
    5698:	be 01       	movw	r22, r28
    569a:	6b 5e       	subi	r22, 0xEB	; 235
    569c:	7f 4f       	sbci	r23, 0xFF	; 255
    569e:	ce 01       	movw	r24, r28
    56a0:	49 96       	adiw	r24, 0x19	; 25
    56a2:	0e 94 0a 0a 	call	0x1414	; 0x1414 <Get_SystemEventStatusRegister>
    56a6:	2f cc       	rjmp	.-1954   	; 0x4f06 <SetBit+0x9c>
    56a8:	2c 98       	cbi	0x05, 4	; 5
    56aa:	fe 01       	movw	r30, r28
    56ac:	7d 96       	adiw	r30, 0x1d	; 29
    56ae:	81 e0       	ldi	r24, 0x01	; 1
    56b0:	90 e0       	ldi	r25, 0x00	; 0
    56b2:	30 e9       	ldi	r19, 0x90	; 144
    56b4:	81 30       	cpi	r24, 0x01	; 1
    56b6:	91 05       	cpc	r25, r1
    56b8:	09 f0       	breq	.+2      	; 0x56bc <SetBit+0x852>
    56ba:	d4 c3       	rjmp	.+1960   	; 0x5e64 <SetBit+0xffa>
    56bc:	3e bd       	out	0x2e, r19	; 46
    56be:	0d b4       	in	r0, 0x2d	; 45
    56c0:	07 fe       	sbrs	r0, 7
    56c2:	fd cf       	rjmp	.-6      	; 0x56be <SetBit+0x854>
    56c4:	2e b5       	in	r18, 0x2e	; 46
    56c6:	01 96       	adiw	r24, 0x01	; 1
    56c8:	31 97       	sbiw	r30, 0x01	; 1
    56ca:	f4 cf       	rjmp	.-24     	; 0x56b4 <SetBit+0x84a>
    56cc:	be 01       	movw	r22, r28
    56ce:	6b 5e       	subi	r22, 0xEB	; 235
    56d0:	7f 4f       	sbci	r23, 0xFF	; 255
    56d2:	ce 01       	movw	r24, r28
    56d4:	49 96       	adiw	r24, 0x19	; 25
    56d6:	0e 94 36 1a 	call	0x346c	; 0x346c <Set_RXFrameQualityInformation>
    56da:	4a cc       	rjmp	.-1900   	; 0x4f70 <SetBit+0x106>
    56dc:	2c 98       	cbi	0x05, 4	; 5
    56de:	fe 01       	movw	r30, r28
    56e0:	7d 96       	adiw	r30, 0x1d	; 29
    56e2:	81 e0       	ldi	r24, 0x01	; 1
    56e4:	90 e0       	ldi	r25, 0x00	; 0
    56e6:	33 e9       	ldi	r19, 0x93	; 147
    56e8:	81 30       	cpi	r24, 0x01	; 1
    56ea:	91 05       	cpc	r25, r1
    56ec:	09 f0       	breq	.+2      	; 0x56f0 <SetBit+0x886>
    56ee:	c6 c3       	rjmp	.+1932   	; 0x5e7c <SetBit+0x1012>
    56f0:	3e bd       	out	0x2e, r19	; 46
    56f2:	0d b4       	in	r0, 0x2d	; 45
    56f4:	07 fe       	sbrs	r0, 7
    56f6:	fd cf       	rjmp	.-6      	; 0x56f2 <SetBit+0x888>
    56f8:	2e b5       	in	r18, 0x2e	; 46
    56fa:	01 96       	adiw	r24, 0x01	; 1
    56fc:	31 97       	sbiw	r30, 0x01	; 1
    56fe:	f4 cf       	rjmp	.-24     	; 0x56e8 <SetBit+0x87e>
    5700:	be 01       	movw	r22, r28
    5702:	6b 5e       	subi	r22, 0xEB	; 235
    5704:	7f 4f       	sbci	r23, 0xFF	; 255
    5706:	ce 01       	movw	r24, r28
    5708:	49 96       	adiw	r24, 0x19	; 25
    570a:	0e 94 9c 1a 	call	0x3538	; 0x3538 <Set_ReceiverTimeTrackingOffset>
    570e:	30 cc       	rjmp	.-1952   	; 0x4f70 <SetBit+0x106>
    5710:	9e 01       	movw	r18, r28
    5712:	23 5f       	subi	r18, 0xF3	; 243
    5714:	3f 4f       	sbci	r19, 0xFF	; 255
    5716:	ae 01       	movw	r20, r28
    5718:	4f 5e       	subi	r20, 0xEF	; 239
    571a:	5f 4f       	sbci	r21, 0xFF	; 255
    571c:	be 01       	movw	r22, r28
    571e:	6b 5e       	subi	r22, 0xEB	; 235
    5720:	7f 4f       	sbci	r23, 0xFF	; 255
    5722:	ce 01       	movw	r24, r28
    5724:	49 96       	adiw	r24, 0x19	; 25
    5726:	0e 94 e3 1a 	call	0x35c6	; 0x35c6 <Set_ReceiveTimeStamp>
    572a:	22 cc       	rjmp	.-1980   	; 0x4f70 <SetBit+0x106>
    572c:	ae 01       	movw	r20, r28
    572e:	4f 5e       	subi	r20, 0xEF	; 239
    5730:	5f 4f       	sbci	r21, 0xFF	; 255
    5732:	be 01       	movw	r22, r28
    5734:	6b 5e       	subi	r22, 0xEB	; 235
    5736:	7f 4f       	sbci	r23, 0xFF	; 255
    5738:	ce 01       	movw	r24, r28
    573a:	49 96       	adiw	r24, 0x19	; 25
    573c:	0e 94 78 1b 	call	0x36f0	; 0x36f0 <Set_TransmitTimeStamp>
    5740:	17 cc       	rjmp	.-2002   	; 0x4f70 <SetBit+0x106>
    5742:	2c 98       	cbi	0x05, 4	; 5
    5744:	fe 01       	movw	r30, r28
    5746:	7b 96       	adiw	r30, 0x1b	; 27
    5748:	81 e0       	ldi	r24, 0x01	; 1
    574a:	90 e0       	ldi	r25, 0x00	; 0
    574c:	38 e9       	ldi	r19, 0x98	; 152
    574e:	81 30       	cpi	r24, 0x01	; 1
    5750:	91 05       	cpc	r25, r1
    5752:	09 f0       	breq	.+2      	; 0x5756 <SetBit+0x8ec>
    5754:	b1 c5       	rjmp	.+2914   	; 0x62b8 <SetBit+0x144e>
    5756:	3e bd       	out	0x2e, r19	; 46
    5758:	0d b4       	in	r0, 0x2d	; 45
    575a:	07 fe       	sbrs	r0, 7
    575c:	fd cf       	rjmp	.-6      	; 0x5758 <SetBit+0x8ee>
    575e:	2e b5       	in	r18, 0x2e	; 46
    5760:	01 96       	adiw	r24, 0x01	; 1
    5762:	31 97       	sbiw	r30, 0x01	; 1
    5764:	f4 cf       	rjmp	.-24     	; 0x574e <SetBit+0x8e4>
    5766:	2c 98       	cbi	0x05, 4	; 5
    5768:	fe 01       	movw	r30, r28
    576a:	7d 96       	adiw	r30, 0x1d	; 29
    576c:	81 e0       	ldi	r24, 0x01	; 1
    576e:	90 e0       	ldi	r25, 0x00	; 0
    5770:	3a e9       	ldi	r19, 0x9A	; 154
    5772:	81 30       	cpi	r24, 0x01	; 1
    5774:	91 05       	cpc	r25, r1
    5776:	09 f0       	breq	.+2      	; 0x577a <SetBit+0x910>
    5778:	69 c3       	rjmp	.+1746   	; 0x5e4c <SetBit+0xfe2>
    577a:	3e bd       	out	0x2e, r19	; 46
    577c:	0d b4       	in	r0, 0x2d	; 45
    577e:	07 fe       	sbrs	r0, 7
    5780:	fd cf       	rjmp	.-6      	; 0x577c <SetBit+0x912>
    5782:	2e b5       	in	r18, 0x2e	; 46
    5784:	01 96       	adiw	r24, 0x01	; 1
    5786:	31 97       	sbiw	r30, 0x01	; 1
    5788:	f4 cf       	rjmp	.-24     	; 0x5772 <SetBit+0x908>
    578a:	2c 98       	cbi	0x05, 4	; 5
    578c:	fe 01       	movw	r30, r28
    578e:	7d 96       	adiw	r30, 0x1d	; 29
    5790:	81 e0       	ldi	r24, 0x01	; 1
    5792:	90 e0       	ldi	r25, 0x00	; 0
    5794:	3d e9       	ldi	r19, 0x9D	; 157
    5796:	81 30       	cpi	r24, 0x01	; 1
    5798:	91 05       	cpc	r25, r1
    579a:	09 f0       	breq	.+2      	; 0x579e <SetBit+0x934>
    579c:	4b c3       	rjmp	.+1686   	; 0x5e34 <SetBit+0xfca>
    579e:	3e bd       	out	0x2e, r19	; 46
    57a0:	0d b4       	in	r0, 0x2d	; 45
    57a2:	07 fe       	sbrs	r0, 7
    57a4:	fd cf       	rjmp	.-6      	; 0x57a0 <SetBit+0x936>
    57a6:	2e b5       	in	r18, 0x2e	; 46
    57a8:	01 96       	adiw	r24, 0x01	; 1
    57aa:	31 97       	sbiw	r30, 0x01	; 1
    57ac:	f4 cf       	rjmp	.-24     	; 0x5796 <SetBit+0x92c>
    57ae:	2c 98       	cbi	0x05, 4	; 5
    57b0:	fe 01       	movw	r30, r28
    57b2:	7d 96       	adiw	r30, 0x1d	; 29
    57b4:	81 e0       	ldi	r24, 0x01	; 1
    57b6:	90 e0       	ldi	r25, 0x00	; 0
    57b8:	3e e9       	ldi	r19, 0x9E	; 158
    57ba:	81 30       	cpi	r24, 0x01	; 1
    57bc:	91 05       	cpc	r25, r1
    57be:	09 f0       	breq	.+2      	; 0x57c2 <SetBit+0x958>
    57c0:	2d c3       	rjmp	.+1626   	; 0x5e1c <SetBit+0xfb2>
    57c2:	3e bd       	out	0x2e, r19	; 46
    57c4:	0d b4       	in	r0, 0x2d	; 45
    57c6:	07 fe       	sbrs	r0, 7
    57c8:	fd cf       	rjmp	.-6      	; 0x57c4 <SetBit+0x95a>
    57ca:	2e b5       	in	r18, 0x2e	; 46
    57cc:	01 96       	adiw	r24, 0x01	; 1
    57ce:	31 97       	sbiw	r30, 0x01	; 1
    57d0:	f4 cf       	rjmp	.-24     	; 0x57ba <SetBit+0x950>
    57d2:	2c 98       	cbi	0x05, 4	; 5
    57d4:	fe 01       	movw	r30, r28
    57d6:	7d 96       	adiw	r30, 0x1d	; 29
    57d8:	81 e0       	ldi	r24, 0x01	; 1
    57da:	90 e0       	ldi	r25, 0x00	; 0
    57dc:	3f e9       	ldi	r19, 0x9F	; 159
    57de:	81 30       	cpi	r24, 0x01	; 1
    57e0:	91 05       	cpc	r25, r1
    57e2:	09 f0       	breq	.+2      	; 0x57e6 <SetBit+0x97c>
    57e4:	0f c3       	rjmp	.+1566   	; 0x5e04 <SetBit+0xf9a>
    57e6:	3e bd       	out	0x2e, r19	; 46
    57e8:	0d b4       	in	r0, 0x2d	; 45
    57ea:	07 fe       	sbrs	r0, 7
    57ec:	fd cf       	rjmp	.-6      	; 0x57e8 <SetBit+0x97e>
    57ee:	2e b5       	in	r18, 0x2e	; 46
    57f0:	01 96       	adiw	r24, 0x01	; 1
    57f2:	31 97       	sbiw	r30, 0x01	; 1
    57f4:	f4 cf       	rjmp	.-24     	; 0x57de <SetBit+0x974>
    57f6:	8e 01       	movw	r16, r28
    57f8:	07 5f       	subi	r16, 0xF7	; 247
    57fa:	1f 4f       	sbci	r17, 0xFF	; 255
    57fc:	9e 01       	movw	r18, r28
    57fe:	23 5f       	subi	r18, 0xF3	; 243
    5800:	3f 4f       	sbci	r19, 0xFF	; 255
    5802:	ae 01       	movw	r20, r28
    5804:	4f 5e       	subi	r20, 0xEF	; 239
    5806:	5f 4f       	sbci	r21, 0xFF	; 255
    5808:	be 01       	movw	r22, r28
    580a:	6b 5e       	subi	r22, 0xEB	; 235
    580c:	7f 4f       	sbci	r23, 0xFF	; 255
    580e:	ce 01       	movw	r24, r28
    5810:	49 96       	adiw	r24, 0x19	; 25
    5812:	0e 94 82 1c 	call	0x3904	; 0x3904 <Set_AGCConfigurationAndControl>
    5816:	ac cb       	rjmp	.-2216   	; 0x4f70 <SetBit+0x106>
    5818:	ae 01       	movw	r20, r28
    581a:	4f 5e       	subi	r20, 0xEF	; 239
    581c:	5f 4f       	sbci	r21, 0xFF	; 255
    581e:	be 01       	movw	r22, r28
    5820:	6b 5e       	subi	r22, 0xEB	; 235
    5822:	7f 4f       	sbci	r23, 0xFF	; 255
    5824:	ce 01       	movw	r24, r28
    5826:	49 96       	adiw	r24, 0x19	; 25
    5828:	0e 94 50 1d 	call	0x3aa0	; 0x3aa0 <Set_ExternalSynchronizationControl>
    582c:	a1 cb       	rjmp	.-2238   	; 0x4f70 <SetBit+0x106>
    582e:	2c 98       	cbi	0x05, 4	; 5
    5830:	fe 01       	movw	r30, r28
    5832:	7e 96       	adiw	r30, 0x1e	; 30
    5834:	81 e0       	ldi	r24, 0x01	; 1
    5836:	90 e0       	ldi	r25, 0x00	; 0
    5838:	46 ee       	ldi	r20, 0xE6	; 230
    583a:	9c 01       	movw	r18, r24
    583c:	21 50       	subi	r18, 0x01	; 1
    583e:	31 09       	sbc	r19, r1
    5840:	09 f4       	brne	.+2      	; 0x5844 <SetBit+0x9da>
    5842:	aa c4       	rjmp	.+2388   	; 0x6198 <SetBit+0x132e>
    5844:	21 30       	cpi	r18, 0x01	; 1
    5846:	31 05       	cpc	r19, r1
    5848:	09 f0       	breq	.+2      	; 0x584c <SetBit+0x9e2>
    584a:	99 c4       	rjmp	.+2354   	; 0x617e <SetBit+0x1314>
    584c:	1e bc       	out	0x2e, r1	; 46
    584e:	0d b4       	in	r0, 0x2d	; 45
    5850:	07 fe       	sbrs	r0, 7
    5852:	fd cf       	rjmp	.-6      	; 0x584e <SetBit+0x9e4>
    5854:	2e b5       	in	r18, 0x2e	; 46
    5856:	01 96       	adiw	r24, 0x01	; 1
    5858:	31 97       	sbiw	r30, 0x01	; 1
    585a:	ef cf       	rjmp	.-34     	; 0x583a <SetBit+0x9d0>
    585c:	2c 98       	cbi	0x05, 4	; 5
    585e:	fe 01       	movw	r30, r28
    5860:	7e 96       	adiw	r30, 0x1e	; 30
    5862:	81 e0       	ldi	r24, 0x01	; 1
    5864:	90 e0       	ldi	r25, 0x00	; 0
    5866:	56 ee       	ldi	r21, 0xE6	; 230
    5868:	48 e0       	ldi	r20, 0x08	; 8
    586a:	9c 01       	movw	r18, r24
    586c:	21 50       	subi	r18, 0x01	; 1
    586e:	31 09       	sbc	r19, r1
    5870:	09 f4       	brne	.+2      	; 0x5874 <SetBit+0xa0a>
    5872:	80 c4       	rjmp	.+2304   	; 0x6174 <SetBit+0x130a>
    5874:	21 30       	cpi	r18, 0x01	; 1
    5876:	31 05       	cpc	r19, r1
    5878:	09 f0       	breq	.+2      	; 0x587c <SetBit+0xa12>
    587a:	6f c4       	rjmp	.+2270   	; 0x615a <SetBit+0x12f0>
    587c:	4e bd       	out	0x2e, r20	; 46
    587e:	0d b4       	in	r0, 0x2d	; 45
    5880:	07 fe       	sbrs	r0, 7
    5882:	fd cf       	rjmp	.-6      	; 0x587e <SetBit+0xa14>
    5884:	2e b5       	in	r18, 0x2e	; 46
    5886:	01 96       	adiw	r24, 0x01	; 1
    5888:	31 97       	sbiw	r30, 0x01	; 1
    588a:	ef cf       	rjmp	.-34     	; 0x586a <SetBit+0xa00>
    588c:	2c 98       	cbi	0x05, 4	; 5
    588e:	fe 01       	movw	r30, r28
    5890:	7e 96       	adiw	r30, 0x1e	; 30
    5892:	81 e0       	ldi	r24, 0x01	; 1
    5894:	90 e0       	ldi	r25, 0x00	; 0
    5896:	56 ee       	ldi	r21, 0xE6	; 230
    5898:	4c e0       	ldi	r20, 0x0C	; 12
    589a:	9c 01       	movw	r18, r24
    589c:	21 50       	subi	r18, 0x01	; 1
    589e:	31 09       	sbc	r19, r1
    58a0:	09 f4       	brne	.+2      	; 0x58a4 <SetBit+0xa3a>
    58a2:	20 c4       	rjmp	.+2112   	; 0x60e4 <SetBit+0x127a>
    58a4:	21 30       	cpi	r18, 0x01	; 1
    58a6:	31 05       	cpc	r19, r1
    58a8:	09 f0       	breq	.+2      	; 0x58ac <SetBit+0xa42>
    58aa:	0f c4       	rjmp	.+2078   	; 0x60ca <SetBit+0x1260>
    58ac:	4e bd       	out	0x2e, r20	; 46
    58ae:	0d b4       	in	r0, 0x2d	; 45
    58b0:	07 fe       	sbrs	r0, 7
    58b2:	fd cf       	rjmp	.-6      	; 0x58ae <SetBit+0xa44>
    58b4:	2e b5       	in	r18, 0x2e	; 46
    58b6:	01 96       	adiw	r24, 0x01	; 1
    58b8:	31 97       	sbiw	r30, 0x01	; 1
    58ba:	ef cf       	rjmp	.-34     	; 0x589a <SetBit+0xa30>
    58bc:	2c 98       	cbi	0x05, 4	; 5
    58be:	fe 01       	movw	r30, r28
    58c0:	7e 96       	adiw	r30, 0x1e	; 30
    58c2:	81 e0       	ldi	r24, 0x01	; 1
    58c4:	90 e0       	ldi	r25, 0x00	; 0
    58c6:	5d ee       	ldi	r21, 0xED	; 237
    58c8:	4e e0       	ldi	r20, 0x0E	; 14
    58ca:	9c 01       	movw	r18, r24
    58cc:	21 50       	subi	r18, 0x01	; 1
    58ce:	31 09       	sbc	r19, r1
    58d0:	09 f4       	brne	.+2      	; 0x58d4 <SetBit+0xa6a>
    58d2:	3e c4       	rjmp	.+2172   	; 0x6150 <SetBit+0x12e6>
    58d4:	21 30       	cpi	r18, 0x01	; 1
    58d6:	31 05       	cpc	r19, r1
    58d8:	09 f0       	breq	.+2      	; 0x58dc <SetBit+0xa72>
    58da:	2d c4       	rjmp	.+2138   	; 0x6136 <SetBit+0x12cc>
    58dc:	4e bd       	out	0x2e, r20	; 46
    58de:	0d b4       	in	r0, 0x2d	; 45
    58e0:	07 fe       	sbrs	r0, 7
    58e2:	fd cf       	rjmp	.-6      	; 0x58de <SetBit+0xa74>
    58e4:	2e b5       	in	r18, 0x2e	; 46
    58e6:	01 96       	adiw	r24, 0x01	; 1
    58e8:	31 97       	sbiw	r30, 0x01	; 1
    58ea:	ef cf       	rjmp	.-34     	; 0x58ca <SetBit+0xa60>
    58ec:	2c 98       	cbi	0x05, 4	; 5
    58ee:	fe 01       	movw	r30, r28
    58f0:	7b 96       	adiw	r30, 0x1b	; 27
    58f2:	81 e0       	ldi	r24, 0x01	; 1
    58f4:	90 e0       	ldi	r25, 0x00	; 0
    58f6:	5d ee       	ldi	r21, 0xED	; 237
    58f8:	42 e1       	ldi	r20, 0x12	; 18
    58fa:	9c 01       	movw	r18, r24
    58fc:	21 50       	subi	r18, 0x01	; 1
    58fe:	31 09       	sbc	r19, r1
    5900:	09 f4       	brne	.+2      	; 0x5904 <SetBit+0xa9a>
    5902:	6c c5       	rjmp	.+2776   	; 0x63dc <SetBit+0x1572>
    5904:	21 30       	cpi	r18, 0x01	; 1
    5906:	31 05       	cpc	r19, r1
    5908:	09 f0       	breq	.+2      	; 0x590c <SetBit+0xaa2>
    590a:	5b c5       	rjmp	.+2742   	; 0x63c2 <SetBit+0x1558>
    590c:	4e bd       	out	0x2e, r20	; 46
    590e:	0d b4       	in	r0, 0x2d	; 45
    5910:	07 fe       	sbrs	r0, 7
    5912:	fd cf       	rjmp	.-6      	; 0x590e <SetBit+0xaa4>
    5914:	2e b5       	in	r18, 0x2e	; 46
    5916:	01 96       	adiw	r24, 0x01	; 1
    5918:	31 97       	sbiw	r30, 0x01	; 1
    591a:	ef cf       	rjmp	.-34     	; 0x58fa <SetBit+0xa90>
    591c:	ce 01       	movw	r24, r28
    591e:	01 96       	adiw	r24, 0x01	; 1
    5920:	6c 01       	movw	r12, r24
    5922:	04 96       	adiw	r24, 0x04	; 4
    5924:	7c 01       	movw	r14, r24
    5926:	8e 01       	movw	r16, r28
    5928:	07 5f       	subi	r16, 0xF7	; 247
    592a:	1f 4f       	sbci	r17, 0xFF	; 255
    592c:	9e 01       	movw	r18, r28
    592e:	23 5f       	subi	r18, 0xF3	; 243
    5930:	3f 4f       	sbci	r19, 0xFF	; 255
    5932:	ae 01       	movw	r20, r28
    5934:	4f 5e       	subi	r20, 0xEF	; 239
    5936:	5f 4f       	sbci	r21, 0xFF	; 255
    5938:	be 01       	movw	r22, r28
    593a:	6b 5e       	subi	r22, 0xEB	; 235
    593c:	7f 4f       	sbci	r23, 0xFF	; 255
    593e:	44 96       	adiw	r24, 0x14	; 20
    5940:	0e 94 e6 23 	call	0x47cc	; 0x47cc <Set_LeadingEdgeDetectionInterface>
    5944:	15 cb       	rjmp	.-2518   	; 0x4f70 <SetBit+0x106>
    5946:	8e 01       	movw	r16, r28
    5948:	07 5f       	subi	r16, 0xF7	; 247
    594a:	1f 4f       	sbci	r17, 0xFF	; 255
    594c:	9e 01       	movw	r18, r28
    594e:	23 5f       	subi	r18, 0xF3	; 243
    5950:	3f 4f       	sbci	r19, 0xFF	; 255
    5952:	ae 01       	movw	r20, r28
    5954:	4f 5e       	subi	r20, 0xEF	; 239
    5956:	5f 4f       	sbci	r21, 0xFF	; 255
    5958:	be 01       	movw	r22, r28
    595a:	6b 5e       	subi	r22, 0xEB	; 235
    595c:	7f 4f       	sbci	r23, 0xFF	; 255
    595e:	ce 01       	movw	r24, r28
    5960:	49 96       	adiw	r24, 0x19	; 25
    5962:	0e 94 75 25 	call	0x4aea	; 0x4aea <Set_PowerManagementAndSystemControl>
    5966:	04 cb       	rjmp	.-2552   	; 0x4f70 <SetBit+0x106>
    5968:	ce 01       	movw	r24, r28
    596a:	05 96       	adiw	r24, 0x05	; 5
    596c:	7c 01       	movw	r14, r24
    596e:	8e 01       	movw	r16, r28
    5970:	07 5f       	subi	r16, 0xF7	; 247
    5972:	1f 4f       	sbci	r17, 0xFF	; 255
    5974:	9e 01       	movw	r18, r28
    5976:	23 5f       	subi	r18, 0xF3	; 243
    5978:	3f 4f       	sbci	r19, 0xFF	; 255
    597a:	ae 01       	movw	r20, r28
    597c:	4f 5e       	subi	r20, 0xEF	; 239
    597e:	5f 4f       	sbci	r21, 0xFF	; 255
    5980:	be 01       	movw	r22, r28
    5982:	6b 5e       	subi	r22, 0xEB	; 235
    5984:	7f 4f       	sbci	r23, 0xFF	; 255
    5986:	44 96       	adiw	r24, 0x14	; 20
    5988:	0e 94 3f 26 	call	0x4c7e	; 0x4c7e <Set_AlwaysONSystemControlInterface>
    598c:	f1 ca       	rjmp	.-2590   	; 0x4f70 <SetBit+0x106>
    598e:	2c 98       	cbi	0x05, 4	; 5
    5990:	fe 01       	movw	r30, r28
    5992:	7d 96       	adiw	r30, 0x1d	; 29
    5994:	81 e0       	ldi	r24, 0x01	; 1
    5996:	90 e0       	ldi	r25, 0x00	; 0
    5998:	30 e8       	ldi	r19, 0x80	; 128
    599a:	81 30       	cpi	r24, 0x01	; 1
    599c:	91 05       	cpc	r25, r1
    599e:	09 f0       	breq	.+2      	; 0x59a2 <SetBit+0xb38>
    59a0:	9d c2       	rjmp	.+1338   	; 0x5edc <SetBit+0x1072>
    59a2:	3e bd       	out	0x2e, r19	; 46
    59a4:	0d b4       	in	r0, 0x2d	; 45
    59a6:	07 fe       	sbrs	r0, 7
    59a8:	fd cf       	rjmp	.-6      	; 0x59a4 <SetBit+0xb3a>
    59aa:	2e b5       	in	r18, 0x2e	; 46
    59ac:	01 96       	adiw	r24, 0x01	; 1
    59ae:	31 97       	sbiw	r30, 0x01	; 1
    59b0:	f4 cf       	rjmp	.-24     	; 0x599a <SetBit+0xb30>
    59b2:	2c 98       	cbi	0x05, 4	; 5
    59b4:	fe 01       	movw	r30, r28
    59b6:	7d 96       	adiw	r30, 0x1d	; 29
    59b8:	81 e0       	ldi	r24, 0x01	; 1
    59ba:	90 e0       	ldi	r25, 0x00	; 0
    59bc:	34 e8       	ldi	r19, 0x84	; 132
    59be:	81 30       	cpi	r24, 0x01	; 1
    59c0:	91 05       	cpc	r25, r1
    59c2:	09 f0       	breq	.+2      	; 0x59c6 <SetBit+0xb5c>
    59c4:	7f c2       	rjmp	.+1278   	; 0x5ec4 <SetBit+0x105a>
    59c6:	3e bd       	out	0x2e, r19	; 46
    59c8:	0d b4       	in	r0, 0x2d	; 45
    59ca:	07 fe       	sbrs	r0, 7
    59cc:	fd cf       	rjmp	.-6      	; 0x59c8 <SetBit+0xb5e>
    59ce:	2e b5       	in	r18, 0x2e	; 46
    59d0:	01 96       	adiw	r24, 0x01	; 1
    59d2:	31 97       	sbiw	r30, 0x01	; 1
    59d4:	f4 cf       	rjmp	.-24     	; 0x59be <SetBit+0xb54>
    59d6:	be 01       	movw	r22, r28
    59d8:	6b 5e       	subi	r22, 0xEB	; 235
    59da:	7f 4f       	sbci	r23, 0xFF	; 255
    59dc:	ce 01       	movw	r24, r28
    59de:	49 96       	adiw	r24, 0x19	; 25
    59e0:	0e 94 77 18 	call	0x30ee	; 0x30ee <Set_SystemTimeCounter>
    59e4:	c5 ca       	rjmp	.-2678   	; 0x4f70 <SetBit+0x106>
    59e6:	be 01       	movw	r22, r28
    59e8:	6b 5e       	subi	r22, 0xEB	; 235
    59ea:	7f 4f       	sbci	r23, 0xFF	; 255
    59ec:	ce 01       	movw	r24, r28
    59ee:	49 96       	adiw	r24, 0x19	; 25
    59f0:	0e 94 be 18 	call	0x317c	; 0x317c <Set_TransmitFrameControl>
    59f4:	bd ca       	rjmp	.-2694   	; 0x4f70 <SetBit+0x106>
    59f6:	2c 98       	cbi	0x05, 4	; 5
    59f8:	fe 01       	movw	r30, r28
    59fa:	7d 96       	adiw	r30, 0x1d	; 29
    59fc:	81 e0       	ldi	r24, 0x01	; 1
    59fe:	90 e0       	ldi	r25, 0x00	; 0
    5a00:	3d e8       	ldi	r19, 0x8D	; 141
    5a02:	81 30       	cpi	r24, 0x01	; 1
    5a04:	91 05       	cpc	r25, r1
    5a06:	09 f0       	breq	.+2      	; 0x5a0a <SetBit+0xba0>
    5a08:	51 c2       	rjmp	.+1186   	; 0x5eac <SetBit+0x1042>
    5a0a:	3e bd       	out	0x2e, r19	; 46
    5a0c:	0d b4       	in	r0, 0x2d	; 45
    5a0e:	07 fe       	sbrs	r0, 7
    5a10:	fd cf       	rjmp	.-6      	; 0x5a0c <SetBit+0xba2>
    5a12:	2e b5       	in	r18, 0x2e	; 46
    5a14:	01 96       	adiw	r24, 0x01	; 1
    5a16:	31 97       	sbiw	r30, 0x01	; 1
    5a18:	f4 cf       	rjmp	.-24     	; 0x5a02 <SetBit+0xb98>
    5a1a:	2c 98       	cbi	0x05, 4	; 5
    5a1c:	fe 01       	movw	r30, r28
    5a1e:	7d 96       	adiw	r30, 0x1d	; 29
    5a20:	81 e0       	ldi	r24, 0x01	; 1
    5a22:	90 e0       	ldi	r25, 0x00	; 0
    5a24:	3e e8       	ldi	r19, 0x8E	; 142
    5a26:	81 30       	cpi	r24, 0x01	; 1
    5a28:	91 05       	cpc	r25, r1
    5a2a:	09 f0       	breq	.+2      	; 0x5a2e <SetBit+0xbc4>
    5a2c:	33 c2       	rjmp	.+1126   	; 0x5e94 <SetBit+0x102a>
    5a2e:	3e bd       	out	0x2e, r19	; 46
    5a30:	0d b4       	in	r0, 0x2d	; 45
    5a32:	07 fe       	sbrs	r0, 7
    5a34:	fd cf       	rjmp	.-6      	; 0x5a30 <SetBit+0xbc6>
    5a36:	2e b5       	in	r18, 0x2e	; 46
    5a38:	01 96       	adiw	r24, 0x01	; 1
    5a3a:	31 97       	sbiw	r30, 0x01	; 1
    5a3c:	f4 cf       	rjmp	.-24     	; 0x5a26 <SetBit+0xbbc>
    5a3e:	be 01       	movw	r22, r28
    5a40:	6b 5e       	subi	r22, 0xEB	; 235
    5a42:	7f 4f       	sbci	r23, 0xFF	; 255
    5a44:	ce 01       	movw	r24, r28
    5a46:	49 96       	adiw	r24, 0x19	; 25
    5a48:	0e 94 d0 19 	call	0x33a0	; 0x33a0 <Set_SystemEventStatusRegister>
    5a4c:	91 ca       	rjmp	.-2782   	; 0x4f70 <SetBit+0x106>
    5a4e:	2c 98       	cbi	0x05, 4	; 5
    5a50:	fe 01       	movw	r30, r28
    5a52:	7e 96       	adiw	r30, 0x1e	; 30
    5a54:	81 e0       	ldi	r24, 0x01	; 1
    5a56:	90 e0       	ldi	r25, 0x00	; 0
    5a58:	56 ee       	ldi	r21, 0xE6	; 230
    5a5a:	40 e1       	ldi	r20, 0x10	; 16
    5a5c:	9c 01       	movw	r18, r24
    5a5e:	21 50       	subi	r18, 0x01	; 1
    5a60:	31 09       	sbc	r19, r1
    5a62:	09 f4       	brne	.+2      	; 0x5a66 <SetBit+0xbfc>
    5a64:	17 c4       	rjmp	.+2094   	; 0x6294 <SetBit+0x142a>
    5a66:	21 30       	cpi	r18, 0x01	; 1
    5a68:	31 05       	cpc	r19, r1
    5a6a:	09 f0       	breq	.+2      	; 0x5a6e <SetBit+0xc04>
    5a6c:	06 c4       	rjmp	.+2060   	; 0x627a <SetBit+0x1410>
    5a6e:	4e bd       	out	0x2e, r20	; 46
    5a70:	0d b4       	in	r0, 0x2d	; 45
    5a72:	07 fe       	sbrs	r0, 7
    5a74:	fd cf       	rjmp	.-6      	; 0x5a70 <SetBit+0xc06>
    5a76:	2e b5       	in	r18, 0x2e	; 46
    5a78:	01 96       	adiw	r24, 0x01	; 1
    5a7a:	31 97       	sbiw	r30, 0x01	; 1
    5a7c:	ef cf       	rjmp	.-34     	; 0x5a5c <SetBit+0xbf2>
    5a7e:	2c 98       	cbi	0x05, 4	; 5
    5a80:	fe 01       	movw	r30, r28
    5a82:	7e 96       	adiw	r30, 0x1e	; 30
    5a84:	81 e0       	ldi	r24, 0x01	; 1
    5a86:	90 e0       	ldi	r25, 0x00	; 0
    5a88:	56 ee       	ldi	r21, 0xE6	; 230
    5a8a:	44 e1       	ldi	r20, 0x14	; 20
    5a8c:	9c 01       	movw	r18, r24
    5a8e:	21 50       	subi	r18, 0x01	; 1
    5a90:	31 09       	sbc	r19, r1
    5a92:	09 f4       	brne	.+2      	; 0x5a96 <SetBit+0xc2c>
    5a94:	ed c3       	rjmp	.+2010   	; 0x6270 <SetBit+0x1406>
    5a96:	21 30       	cpi	r18, 0x01	; 1
    5a98:	31 05       	cpc	r19, r1
    5a9a:	09 f0       	breq	.+2      	; 0x5a9e <SetBit+0xc34>
    5a9c:	dc c3       	rjmp	.+1976   	; 0x6256 <SetBit+0x13ec>
    5a9e:	4e bd       	out	0x2e, r20	; 46
    5aa0:	0d b4       	in	r0, 0x2d	; 45
    5aa2:	07 fe       	sbrs	r0, 7
    5aa4:	fd cf       	rjmp	.-6      	; 0x5aa0 <SetBit+0xc36>
    5aa6:	2e b5       	in	r18, 0x2e	; 46
    5aa8:	01 96       	adiw	r24, 0x01	; 1
    5aaa:	31 97       	sbiw	r30, 0x01	; 1
    5aac:	ef cf       	rjmp	.-34     	; 0x5a8c <SetBit+0xc22>
    5aae:	2c 98       	cbi	0x05, 4	; 5
    5ab0:	fe 01       	movw	r30, r28
    5ab2:	7e 96       	adiw	r30, 0x1e	; 30
    5ab4:	81 e0       	ldi	r24, 0x01	; 1
    5ab6:	90 e0       	ldi	r25, 0x00	; 0
    5ab8:	56 ee       	ldi	r21, 0xE6	; 230
    5aba:	48 e1       	ldi	r20, 0x18	; 24
    5abc:	9c 01       	movw	r18, r24
    5abe:	21 50       	subi	r18, 0x01	; 1
    5ac0:	31 09       	sbc	r19, r1
    5ac2:	09 f4       	brne	.+2      	; 0x5ac6 <SetBit+0xc5c>
    5ac4:	7b c3       	rjmp	.+1782   	; 0x61bc <SetBit+0x1352>
    5ac6:	21 30       	cpi	r18, 0x01	; 1
    5ac8:	31 05       	cpc	r19, r1
    5aca:	09 f0       	breq	.+2      	; 0x5ace <SetBit+0xc64>
    5acc:	6a c3       	rjmp	.+1748   	; 0x61a2 <SetBit+0x1338>
    5ace:	4e bd       	out	0x2e, r20	; 46
    5ad0:	0d b4       	in	r0, 0x2d	; 45
    5ad2:	07 fe       	sbrs	r0, 7
    5ad4:	fd cf       	rjmp	.-6      	; 0x5ad0 <SetBit+0xc66>
    5ad6:	2e b5       	in	r18, 0x2e	; 46
    5ad8:	01 96       	adiw	r24, 0x01	; 1
    5ada:	31 97       	sbiw	r30, 0x01	; 1
    5adc:	ef cf       	rjmp	.-34     	; 0x5abc <SetBit+0xc52>
    5ade:	2c 98       	cbi	0x05, 4	; 5
    5ae0:	fe 01       	movw	r30, r28
    5ae2:	7e 96       	adiw	r30, 0x1e	; 30
    5ae4:	81 e0       	ldi	r24, 0x01	; 1
    5ae6:	90 e0       	ldi	r25, 0x00	; 0
    5ae8:	56 ee       	ldi	r21, 0xE6	; 230
    5aea:	4c e1       	ldi	r20, 0x1C	; 28
    5aec:	9c 01       	movw	r18, r24
    5aee:	21 50       	subi	r18, 0x01	; 1
    5af0:	31 09       	sbc	r19, r1
    5af2:	09 f4       	brne	.+2      	; 0x5af6 <SetBit+0xc8c>
    5af4:	ab c3       	rjmp	.+1878   	; 0x624c <SetBit+0x13e2>
    5af6:	21 30       	cpi	r18, 0x01	; 1
    5af8:	31 05       	cpc	r19, r1
    5afa:	09 f0       	breq	.+2      	; 0x5afe <SetBit+0xc94>
    5afc:	9a c3       	rjmp	.+1844   	; 0x6232 <SetBit+0x13c8>
    5afe:	4e bd       	out	0x2e, r20	; 46
    5b00:	0d b4       	in	r0, 0x2d	; 45
    5b02:	07 fe       	sbrs	r0, 7
    5b04:	fd cf       	rjmp	.-6      	; 0x5b00 <SetBit+0xc96>
    5b06:	2e b5       	in	r18, 0x2e	; 46
    5b08:	01 96       	adiw	r24, 0x01	; 1
    5b0a:	31 97       	sbiw	r30, 0x01	; 1
    5b0c:	ef cf       	rjmp	.-34     	; 0x5aec <SetBit+0xc82>
    5b0e:	2c 98       	cbi	0x05, 4	; 5
    5b10:	fe 01       	movw	r30, r28
    5b12:	7e 96       	adiw	r30, 0x1e	; 30
    5b14:	81 e0       	ldi	r24, 0x01	; 1
    5b16:	90 e0       	ldi	r25, 0x00	; 0
    5b18:	56 ee       	ldi	r21, 0xE6	; 230
    5b1a:	40 e2       	ldi	r20, 0x20	; 32
    5b1c:	9c 01       	movw	r18, r24
    5b1e:	21 50       	subi	r18, 0x01	; 1
    5b20:	31 09       	sbc	r19, r1
    5b22:	09 f4       	brne	.+2      	; 0x5b26 <SetBit+0xcbc>
    5b24:	6f c3       	rjmp	.+1758   	; 0x6204 <SetBit+0x139a>
    5b26:	21 30       	cpi	r18, 0x01	; 1
    5b28:	31 05       	cpc	r19, r1
    5b2a:	09 f0       	breq	.+2      	; 0x5b2e <SetBit+0xcc4>
    5b2c:	5e c3       	rjmp	.+1724   	; 0x61ea <SetBit+0x1380>
    5b2e:	4e bd       	out	0x2e, r20	; 46
    5b30:	0d b4       	in	r0, 0x2d	; 45
    5b32:	07 fe       	sbrs	r0, 7
    5b34:	fd cf       	rjmp	.-6      	; 0x5b30 <SetBit+0xcc6>
    5b36:	2e b5       	in	r18, 0x2e	; 46
    5b38:	01 96       	adiw	r24, 0x01	; 1
    5b3a:	31 97       	sbiw	r30, 0x01	; 1
    5b3c:	ef cf       	rjmp	.-34     	; 0x5b1c <SetBit+0xcb2>
    5b3e:	2c 98       	cbi	0x05, 4	; 5
    5b40:	fe 01       	movw	r30, r28
    5b42:	7e 96       	adiw	r30, 0x1e	; 30
    5b44:	81 e0       	ldi	r24, 0x01	; 1
    5b46:	90 e0       	ldi	r25, 0x00	; 0
    5b48:	56 ee       	ldi	r21, 0xE6	; 230
    5b4a:	44 e2       	ldi	r20, 0x24	; 36
    5b4c:	9c 01       	movw	r18, r24
    5b4e:	21 50       	subi	r18, 0x01	; 1
    5b50:	31 09       	sbc	r19, r1
    5b52:	09 f4       	brne	.+2      	; 0x5b56 <SetBit+0xcec>
    5b54:	45 c3       	rjmp	.+1674   	; 0x61e0 <SetBit+0x1376>
    5b56:	21 30       	cpi	r18, 0x01	; 1
    5b58:	31 05       	cpc	r19, r1
    5b5a:	09 f0       	breq	.+2      	; 0x5b5e <SetBit+0xcf4>
    5b5c:	34 c3       	rjmp	.+1640   	; 0x61c6 <SetBit+0x135c>
    5b5e:	4e bd       	out	0x2e, r20	; 46
    5b60:	0d b4       	in	r0, 0x2d	; 45
    5b62:	07 fe       	sbrs	r0, 7
    5b64:	fd cf       	rjmp	.-6      	; 0x5b60 <SetBit+0xcf6>
    5b66:	2e b5       	in	r18, 0x2e	; 46
    5b68:	01 96       	adiw	r24, 0x01	; 1
    5b6a:	31 97       	sbiw	r30, 0x01	; 1
    5b6c:	ef cf       	rjmp	.-34     	; 0x5b4c <SetBit+0xce2>
    5b6e:	2c 98       	cbi	0x05, 4	; 5
    5b70:	fe 01       	movw	r30, r28
    5b72:	7e 96       	adiw	r30, 0x1e	; 30
    5b74:	81 e0       	ldi	r24, 0x01	; 1
    5b76:	90 e0       	ldi	r25, 0x00	; 0
    5b78:	56 ee       	ldi	r21, 0xE6	; 230
    5b7a:	48 e2       	ldi	r20, 0x28	; 40
    5b7c:	9c 01       	movw	r18, r24
    5b7e:	21 50       	subi	r18, 0x01	; 1
    5b80:	31 09       	sbc	r19, r1
    5b82:	09 f4       	brne	.+2      	; 0x5b86 <SetBit+0xd1c>
    5b84:	51 c3       	rjmp	.+1698   	; 0x6228 <SetBit+0x13be>
    5b86:	21 30       	cpi	r18, 0x01	; 1
    5b88:	31 05       	cpc	r19, r1
    5b8a:	09 f0       	breq	.+2      	; 0x5b8e <SetBit+0xd24>
    5b8c:	40 c3       	rjmp	.+1664   	; 0x620e <SetBit+0x13a4>
    5b8e:	4e bd       	out	0x2e, r20	; 46
    5b90:	0d b4       	in	r0, 0x2d	; 45
    5b92:	07 fe       	sbrs	r0, 7
    5b94:	fd cf       	rjmp	.-6      	; 0x5b90 <SetBit+0xd26>
    5b96:	2e b5       	in	r18, 0x2e	; 46
    5b98:	01 96       	adiw	r24, 0x01	; 1
    5b9a:	31 97       	sbiw	r30, 0x01	; 1
    5b9c:	ef cf       	rjmp	.-34     	; 0x5b7c <SetBit+0xd12>
    5b9e:	ce 01       	movw	r24, r28
    5ba0:	01 96       	adiw	r24, 0x01	; 1
    5ba2:	6c 01       	movw	r12, r24
    5ba4:	04 96       	adiw	r24, 0x04	; 4
    5ba6:	7c 01       	movw	r14, r24
    5ba8:	8e 01       	movw	r16, r28
    5baa:	07 5f       	subi	r16, 0xF7	; 247
    5bac:	1f 4f       	sbci	r17, 0xFF	; 255
    5bae:	9e 01       	movw	r18, r28
    5bb0:	23 5f       	subi	r18, 0xF3	; 243
    5bb2:	3f 4f       	sbci	r19, 0xFF	; 255
    5bb4:	ae 01       	movw	r20, r28
    5bb6:	4f 5e       	subi	r20, 0xEF	; 239
    5bb8:	5f 4f       	sbci	r21, 0xFF	; 255
    5bba:	be 01       	movw	r22, r28
    5bbc:	6b 5e       	subi	r22, 0xEB	; 235
    5bbe:	7f 4f       	sbci	r23, 0xFF	; 255
    5bc0:	44 96       	adiw	r24, 0x14	; 20
    5bc2:	0e 94 62 1f 	call	0x3ec4	; 0x3ec4 <Set_DigitalReceiverConfiguration>
    5bc6:	d4 c9       	rjmp	.-3160   	; 0x4f70 <SetBit+0x106>
    5bc8:	ce 01       	movw	r24, r28
    5bca:	05 96       	adiw	r24, 0x05	; 5
    5bcc:	7c 01       	movw	r14, r24
    5bce:	8e 01       	movw	r16, r28
    5bd0:	07 5f       	subi	r16, 0xF7	; 247
    5bd2:	1f 4f       	sbci	r17, 0xFF	; 255
    5bd4:	9e 01       	movw	r18, r28
    5bd6:	23 5f       	subi	r18, 0xF3	; 243
    5bd8:	3f 4f       	sbci	r19, 0xFF	; 255
    5bda:	ae 01       	movw	r20, r28
    5bdc:	4f 5e       	subi	r20, 0xEF	; 239
    5bde:	5f 4f       	sbci	r21, 0xFF	; 255
    5be0:	be 01       	movw	r22, r28
    5be2:	6b 5e       	subi	r22, 0xEB	; 235
    5be4:	7f 4f       	sbci	r23, 0xFF	; 255
    5be6:	44 96       	adiw	r24, 0x14	; 20
    5be8:	0e 94 88 20 	call	0x4110	; 0x4110 <Set_AnalogRFConfigurationBlock>
    5bec:	c1 c9       	rjmp	.-3198   	; 0x4f70 <SetBit+0x106>
    5bee:	8e 01       	movw	r16, r28
    5bf0:	07 5f       	subi	r16, 0xF7	; 247
    5bf2:	1f 4f       	sbci	r17, 0xFF	; 255
    5bf4:	9e 01       	movw	r18, r28
    5bf6:	23 5f       	subi	r18, 0xF3	; 243
    5bf8:	3f 4f       	sbci	r19, 0xFF	; 255
    5bfa:	ae 01       	movw	r20, r28
    5bfc:	4f 5e       	subi	r20, 0xEF	; 239
    5bfe:	5f 4f       	sbci	r21, 0xFF	; 255
    5c00:	be 01       	movw	r22, r28
    5c02:	6b 5e       	subi	r22, 0xEB	; 235
    5c04:	7f 4f       	sbci	r23, 0xFF	; 255
    5c06:	ce 01       	movw	r24, r28
    5c08:	49 96       	adiw	r24, 0x19	; 25
    5c0a:	0e 94 7e 21 	call	0x42fc	; 0x42fc <Set_TransimtterCalibrationBlock>
    5c0e:	b0 c9       	rjmp	.-3232   	; 0x4f70 <SetBit+0x106>
    5c10:	ae 01       	movw	r20, r28
    5c12:	4f 5e       	subi	r20, 0xEF	; 239
    5c14:	5f 4f       	sbci	r21, 0xFF	; 255
    5c16:	be 01       	movw	r22, r28
    5c18:	6b 5e       	subi	r22, 0xEB	; 235
    5c1a:	7f 4f       	sbci	r23, 0xFF	; 255
    5c1c:	ce 01       	movw	r24, r28
    5c1e:	49 96       	adiw	r24, 0x19	; 25
    5c20:	0e 94 48 22 	call	0x4490	; 0x4490 <Set_FrequencySynthesiserControlBlock>
    5c24:	a5 c9       	rjmp	.-3254   	; 0x4f70 <SetBit+0x106>
    5c26:	2c 98       	cbi	0x05, 4	; 5
    5c28:	fe 01       	movw	r30, r28
    5c2a:	7e 96       	adiw	r30, 0x1e	; 30
    5c2c:	81 e0       	ldi	r24, 0x01	; 1
    5c2e:	90 e0       	ldi	r25, 0x00	; 0
    5c30:	4d ee       	ldi	r20, 0xED	; 237
    5c32:	9c 01       	movw	r18, r24
    5c34:	21 50       	subi	r18, 0x01	; 1
    5c36:	31 09       	sbc	r19, r1
    5c38:	09 f4       	brne	.+2      	; 0x5c3c <SetBit+0xdd2>
    5c3a:	78 c2       	rjmp	.+1264   	; 0x612c <SetBit+0x12c2>
    5c3c:	21 30       	cpi	r18, 0x01	; 1
    5c3e:	31 05       	cpc	r19, r1
    5c40:	09 f0       	breq	.+2      	; 0x5c44 <SetBit+0xdda>
    5c42:	67 c2       	rjmp	.+1230   	; 0x6112 <SetBit+0x12a8>
    5c44:	1e bc       	out	0x2e, r1	; 46
    5c46:	0d b4       	in	r0, 0x2d	; 45
    5c48:	07 fe       	sbrs	r0, 7
    5c4a:	fd cf       	rjmp	.-6      	; 0x5c46 <SetBit+0xddc>
    5c4c:	2e b5       	in	r18, 0x2e	; 46
    5c4e:	01 96       	adiw	r24, 0x01	; 1
    5c50:	31 97       	sbiw	r30, 0x01	; 1
    5c52:	ef cf       	rjmp	.-34     	; 0x5c32 <SetBit+0xdc8>
    5c54:	2c 98       	cbi	0x05, 4	; 5
    5c56:	fe 01       	movw	r30, r28
    5c58:	7c 96       	adiw	r30, 0x1c	; 28
    5c5a:	81 e0       	ldi	r24, 0x01	; 1
    5c5c:	90 e0       	ldi	r25, 0x00	; 0
    5c5e:	5d ee       	ldi	r21, 0xED	; 237
    5c60:	44 e0       	ldi	r20, 0x04	; 4
    5c62:	9c 01       	movw	r18, r24
    5c64:	21 50       	subi	r18, 0x01	; 1
    5c66:	31 09       	sbc	r19, r1
    5c68:	09 f4       	brne	.+2      	; 0x5c6c <SetBit+0xe02>
    5c6a:	8e c3       	rjmp	.+1820   	; 0x6388 <SetBit+0x151e>
    5c6c:	21 30       	cpi	r18, 0x01	; 1
    5c6e:	31 05       	cpc	r19, r1
    5c70:	09 f0       	breq	.+2      	; 0x5c74 <SetBit+0xe0a>
    5c72:	7d c3       	rjmp	.+1786   	; 0x636e <SetBit+0x1504>
    5c74:	4e bd       	out	0x2e, r20	; 46
    5c76:	0d b4       	in	r0, 0x2d	; 45
    5c78:	07 fe       	sbrs	r0, 7
    5c7a:	fd cf       	rjmp	.-6      	; 0x5c76 <SetBit+0xe0c>
    5c7c:	2e b5       	in	r18, 0x2e	; 46
    5c7e:	01 96       	adiw	r24, 0x01	; 1
    5c80:	31 97       	sbiw	r30, 0x01	; 1
    5c82:	ef cf       	rjmp	.-34     	; 0x5c62 <SetBit+0xdf8>
    5c84:	2c 98       	cbi	0x05, 4	; 5
    5c86:	fe 01       	movw	r30, r28
    5c88:	7c 96       	adiw	r30, 0x1c	; 28
    5c8a:	81 e0       	ldi	r24, 0x01	; 1
    5c8c:	90 e0       	ldi	r25, 0x00	; 0
    5c8e:	5d ee       	ldi	r21, 0xED	; 237
    5c90:	46 e0       	ldi	r20, 0x06	; 6
    5c92:	9c 01       	movw	r18, r24
    5c94:	21 50       	subi	r18, 0x01	; 1
    5c96:	31 09       	sbc	r19, r1
    5c98:	09 f4       	brne	.+2      	; 0x5c9c <SetBit+0xe32>
    5c9a:	64 c3       	rjmp	.+1736   	; 0x6364 <SetBit+0x14fa>
    5c9c:	21 30       	cpi	r18, 0x01	; 1
    5c9e:	31 05       	cpc	r19, r1
    5ca0:	09 f0       	breq	.+2      	; 0x5ca4 <SetBit+0xe3a>
    5ca2:	53 c3       	rjmp	.+1702   	; 0x634a <SetBit+0x14e0>
    5ca4:	4e bd       	out	0x2e, r20	; 46
    5ca6:	0d b4       	in	r0, 0x2d	; 45
    5ca8:	07 fe       	sbrs	r0, 7
    5caa:	fd cf       	rjmp	.-6      	; 0x5ca6 <SetBit+0xe3c>
    5cac:	2e b5       	in	r18, 0x2e	; 46
    5cae:	01 96       	adiw	r24, 0x01	; 1
    5cb0:	31 97       	sbiw	r30, 0x01	; 1
    5cb2:	ef cf       	rjmp	.-34     	; 0x5c92 <SetBit+0xe28>
    5cb4:	2c 98       	cbi	0x05, 4	; 5
    5cb6:	fe 01       	movw	r30, r28
    5cb8:	7c 96       	adiw	r30, 0x1c	; 28
    5cba:	81 e0       	ldi	r24, 0x01	; 1
    5cbc:	90 e0       	ldi	r25, 0x00	; 0
    5cbe:	5d ee       	ldi	r21, 0xED	; 237
    5cc0:	48 e0       	ldi	r20, 0x08	; 8
    5cc2:	9c 01       	movw	r18, r24
    5cc4:	21 50       	subi	r18, 0x01	; 1
    5cc6:	31 09       	sbc	r19, r1
    5cc8:	09 f4       	brne	.+2      	; 0x5ccc <SetBit+0xe62>
    5cca:	70 c3       	rjmp	.+1760   	; 0x63ac <SetBit+0x1542>
    5ccc:	21 30       	cpi	r18, 0x01	; 1
    5cce:	31 05       	cpc	r19, r1
    5cd0:	09 f0       	breq	.+2      	; 0x5cd4 <SetBit+0xe6a>
    5cd2:	5f c3       	rjmp	.+1726   	; 0x6392 <SetBit+0x1528>
    5cd4:	4e bd       	out	0x2e, r20	; 46
    5cd6:	0d b4       	in	r0, 0x2d	; 45
    5cd8:	07 fe       	sbrs	r0, 7
    5cda:	fd cf       	rjmp	.-6      	; 0x5cd6 <SetBit+0xe6c>
    5cdc:	2e b5       	in	r18, 0x2e	; 46
    5cde:	01 96       	adiw	r24, 0x01	; 1
    5ce0:	31 97       	sbiw	r30, 0x01	; 1
    5ce2:	ef cf       	rjmp	.-34     	; 0x5cc2 <SetBit+0xe58>
    5ce4:	2c 98       	cbi	0x05, 4	; 5
    5ce6:	fe 01       	movw	r30, r28
    5ce8:	7e 96       	adiw	r30, 0x1e	; 30
    5cea:	81 e0       	ldi	r24, 0x01	; 1
    5cec:	90 e0       	ldi	r25, 0x00	; 0
    5cee:	5d ee       	ldi	r21, 0xED	; 237
    5cf0:	4a e0       	ldi	r20, 0x0A	; 10
    5cf2:	9c 01       	movw	r18, r24
    5cf4:	21 50       	subi	r18, 0x01	; 1
    5cf6:	31 09       	sbc	r19, r1
    5cf8:	09 f4       	brne	.+2      	; 0x5cfc <SetBit+0xe92>
    5cfa:	06 c2       	rjmp	.+1036   	; 0x6108 <SetBit+0x129e>
    5cfc:	21 30       	cpi	r18, 0x01	; 1
    5cfe:	31 05       	cpc	r19, r1
    5d00:	09 f0       	breq	.+2      	; 0x5d04 <SetBit+0xe9a>
    5d02:	f5 c1       	rjmp	.+1002   	; 0x60ee <SetBit+0x1284>
    5d04:	4e bd       	out	0x2e, r20	; 46
    5d06:	0d b4       	in	r0, 0x2d	; 45
    5d08:	07 fe       	sbrs	r0, 7
    5d0a:	fd cf       	rjmp	.-6      	; 0x5d06 <SetBit+0xe9c>
    5d0c:	2e b5       	in	r18, 0x2e	; 46
    5d0e:	01 96       	adiw	r24, 0x01	; 1
    5d10:	31 97       	sbiw	r30, 0x01	; 1
    5d12:	ef cf       	rjmp	.-34     	; 0x5cf2 <SetBit+0xe88>
    5d14:	1e bc       	out	0x2e, r1	; 46
    5d16:	0d b4       	in	r0, 0x2d	; 45
    5d18:	07 fe       	sbrs	r0, 7
    5d1a:	fd cf       	rjmp	.-6      	; 0x5d16 <SetBit+0xeac>
    5d1c:	2e b5       	in	r18, 0x2e	; 46
    5d1e:	20 83       	st	Z, r18
    5d20:	83 30       	cpi	r24, 0x03	; 3
    5d22:	91 05       	cpc	r25, r1
    5d24:	09 f0       	breq	.+2      	; 0x5d28 <SetBit+0xebe>
    5d26:	62 ca       	rjmp	.-2876   	; 0x51ec <SetBit+0x382>
    5d28:	2c 9a       	sbi	0x05, 4	; 5
    5d2a:	ed c8       	rjmp	.-3622   	; 0x4f06 <SetBit+0x9c>
    5d2c:	1e bc       	out	0x2e, r1	; 46
    5d2e:	0d b4       	in	r0, 0x2d	; 45
    5d30:	07 fe       	sbrs	r0, 7
    5d32:	fd cf       	rjmp	.-6      	; 0x5d2e <SetBit+0xec4>
    5d34:	2e b5       	in	r18, 0x2e	; 46
    5d36:	20 83       	st	Z, r18
    5d38:	85 30       	cpi	r24, 0x05	; 5
    5d3a:	91 05       	cpc	r25, r1
    5d3c:	09 f0       	breq	.+2      	; 0x5d40 <SetBit+0xed6>
    5d3e:	a9 ca       	rjmp	.-2734   	; 0x5292 <SetBit+0x428>
    5d40:	2c 9a       	sbi	0x05, 4	; 5
    5d42:	e1 c8       	rjmp	.-3646   	; 0x4f06 <SetBit+0x9c>
    5d44:	1e bc       	out	0x2e, r1	; 46
    5d46:	0d b4       	in	r0, 0x2d	; 45
    5d48:	07 fe       	sbrs	r0, 7
    5d4a:	fd cf       	rjmp	.-6      	; 0x5d46 <SetBit+0xedc>
    5d4c:	2e b5       	in	r18, 0x2e	; 46
    5d4e:	20 83       	st	Z, r18
    5d50:	85 30       	cpi	r24, 0x05	; 5
    5d52:	91 05       	cpc	r25, r1
    5d54:	09 f0       	breq	.+2      	; 0x5d58 <SetBit+0xeee>
    5d56:	9d cc       	rjmp	.-1734   	; 0x5692 <SetBit+0x828>
    5d58:	2c 9a       	sbi	0x05, 4	; 5
    5d5a:	d5 c8       	rjmp	.-3670   	; 0x4f06 <SetBit+0x9c>
    5d5c:	1e bc       	out	0x2e, r1	; 46
    5d5e:	0d b4       	in	r0, 0x2d	; 45
    5d60:	07 fe       	sbrs	r0, 7
    5d62:	fd cf       	rjmp	.-6      	; 0x5d5e <SetBit+0xef4>
    5d64:	2e b5       	in	r18, 0x2e	; 46
    5d66:	20 83       	st	Z, r18
    5d68:	85 30       	cpi	r24, 0x05	; 5
    5d6a:	91 05       	cpc	r25, r1
    5d6c:	09 f0       	breq	.+2      	; 0x5d70 <SetBit+0xf06>
    5d6e:	32 cc       	rjmp	.-1948   	; 0x55d4 <SetBit+0x76a>
    5d70:	2c 9a       	sbi	0x05, 4	; 5
    5d72:	c9 c8       	rjmp	.-3694   	; 0x4f06 <SetBit+0x9c>
    5d74:	1e bc       	out	0x2e, r1	; 46
    5d76:	0d b4       	in	r0, 0x2d	; 45
    5d78:	07 fe       	sbrs	r0, 7
    5d7a:	fd cf       	rjmp	.-6      	; 0x5d76 <SetBit+0xf0c>
    5d7c:	2e b5       	in	r18, 0x2e	; 46
    5d7e:	20 83       	st	Z, r18
    5d80:	85 30       	cpi	r24, 0x05	; 5
    5d82:	91 05       	cpc	r25, r1
    5d84:	09 f0       	breq	.+2      	; 0x5d88 <SetBit+0xf1e>
    5d86:	14 cc       	rjmp	.-2008   	; 0x55b0 <SetBit+0x746>
    5d88:	2c 9a       	sbi	0x05, 4	; 5
    5d8a:	bd c8       	rjmp	.-3718   	; 0x4f06 <SetBit+0x9c>
    5d8c:	1e bc       	out	0x2e, r1	; 46
    5d8e:	0d b4       	in	r0, 0x2d	; 45
    5d90:	07 fe       	sbrs	r0, 7
    5d92:	fd cf       	rjmp	.-6      	; 0x5d8e <SetBit+0xf24>
    5d94:	2e b5       	in	r18, 0x2e	; 46
    5d96:	20 83       	st	Z, r18
    5d98:	85 30       	cpi	r24, 0x05	; 5
    5d9a:	91 05       	cpc	r25, r1
    5d9c:	09 f0       	breq	.+2      	; 0x5da0 <SetBit+0xf36>
    5d9e:	5f cc       	rjmp	.-1858   	; 0x565e <SetBit+0x7f4>
    5da0:	2c 9a       	sbi	0x05, 4	; 5
    5da2:	b1 c8       	rjmp	.-3742   	; 0x4f06 <SetBit+0x9c>
    5da4:	1e bc       	out	0x2e, r1	; 46
    5da6:	0d b4       	in	r0, 0x2d	; 45
    5da8:	07 fe       	sbrs	r0, 7
    5daa:	fd cf       	rjmp	.-6      	; 0x5da6 <SetBit+0xf3c>
    5dac:	2e b5       	in	r18, 0x2e	; 46
    5dae:	20 83       	st	Z, r18
    5db0:	85 30       	cpi	r24, 0x05	; 5
    5db2:	91 05       	cpc	r25, r1
    5db4:	09 f0       	breq	.+2      	; 0x5db8 <SetBit+0xf4e>
    5db6:	ea cb       	rjmp	.-2092   	; 0x558c <SetBit+0x722>
    5db8:	2c 9a       	sbi	0x05, 4	; 5
    5dba:	a5 c8       	rjmp	.-3766   	; 0x4f06 <SetBit+0x9c>
    5dbc:	1e bc       	out	0x2e, r1	; 46
    5dbe:	0d b4       	in	r0, 0x2d	; 45
    5dc0:	07 fe       	sbrs	r0, 7
    5dc2:	fd cf       	rjmp	.-6      	; 0x5dbe <SetBit+0xf54>
    5dc4:	2e b5       	in	r18, 0x2e	; 46
    5dc6:	20 83       	st	Z, r18
    5dc8:	85 30       	cpi	r24, 0x05	; 5
    5dca:	91 05       	cpc	r25, r1
    5dcc:	09 f0       	breq	.+2      	; 0x5dd0 <SetBit+0xf66>
    5dce:	cc cb       	rjmp	.-2152   	; 0x5568 <SetBit+0x6fe>
    5dd0:	2c 9a       	sbi	0x05, 4	; 5
    5dd2:	99 c8       	rjmp	.-3790   	; 0x4f06 <SetBit+0x9c>
    5dd4:	1e bc       	out	0x2e, r1	; 46
    5dd6:	0d b4       	in	r0, 0x2d	; 45
    5dd8:	07 fe       	sbrs	r0, 7
    5dda:	fd cf       	rjmp	.-6      	; 0x5dd6 <SetBit+0xf6c>
    5ddc:	2e b5       	in	r18, 0x2e	; 46
    5dde:	20 83       	st	Z, r18
    5de0:	85 30       	cpi	r24, 0x05	; 5
    5de2:	91 05       	cpc	r25, r1
    5de4:	09 f0       	breq	.+2      	; 0x5de8 <SetBit+0xf7e>
    5de6:	93 ca       	rjmp	.-2778   	; 0x530e <SetBit+0x4a4>
    5de8:	2c 9a       	sbi	0x05, 4	; 5
    5dea:	8d c8       	rjmp	.-3814   	; 0x4f06 <SetBit+0x9c>
    5dec:	1e bc       	out	0x2e, r1	; 46
    5dee:	0d b4       	in	r0, 0x2d	; 45
    5df0:	07 fe       	sbrs	r0, 7
    5df2:	fd cf       	rjmp	.-6      	; 0x5dee <SetBit+0xf84>
    5df4:	2e b5       	in	r18, 0x2e	; 46
    5df6:	20 83       	st	Z, r18
    5df8:	85 30       	cpi	r24, 0x05	; 5
    5dfa:	91 05       	cpc	r25, r1
    5dfc:	09 f0       	breq	.+2      	; 0x5e00 <SetBit+0xf96>
    5dfe:	75 ca       	rjmp	.-2838   	; 0x52ea <SetBit+0x480>
    5e00:	2c 9a       	sbi	0x05, 4	; 5
    5e02:	81 c8       	rjmp	.-3838   	; 0x4f06 <SetBit+0x9c>
    5e04:	20 81       	ld	r18, Z
    5e06:	2e bd       	out	0x2e, r18	; 46
    5e08:	0d b4       	in	r0, 0x2d	; 45
    5e0a:	07 fe       	sbrs	r0, 7
    5e0c:	fd cf       	rjmp	.-6      	; 0x5e08 <SetBit+0xf9e>
    5e0e:	2e b5       	in	r18, 0x2e	; 46
    5e10:	85 30       	cpi	r24, 0x05	; 5
    5e12:	91 05       	cpc	r25, r1
    5e14:	09 f0       	breq	.+2      	; 0x5e18 <SetBit+0xfae>
    5e16:	ec cc       	rjmp	.-1576   	; 0x57f0 <SetBit+0x986>
    5e18:	2c 9a       	sbi	0x05, 4	; 5
    5e1a:	aa c8       	rjmp	.-3756   	; 0x4f70 <SetBit+0x106>
    5e1c:	20 81       	ld	r18, Z
    5e1e:	2e bd       	out	0x2e, r18	; 46
    5e20:	0d b4       	in	r0, 0x2d	; 45
    5e22:	07 fe       	sbrs	r0, 7
    5e24:	fd cf       	rjmp	.-6      	; 0x5e20 <SetBit+0xfb6>
    5e26:	2e b5       	in	r18, 0x2e	; 46
    5e28:	85 30       	cpi	r24, 0x05	; 5
    5e2a:	91 05       	cpc	r25, r1
    5e2c:	09 f0       	breq	.+2      	; 0x5e30 <SetBit+0xfc6>
    5e2e:	ce cc       	rjmp	.-1636   	; 0x57cc <SetBit+0x962>
    5e30:	2c 9a       	sbi	0x05, 4	; 5
    5e32:	9e c8       	rjmp	.-3780   	; 0x4f70 <SetBit+0x106>
    5e34:	20 81       	ld	r18, Z
    5e36:	2e bd       	out	0x2e, r18	; 46
    5e38:	0d b4       	in	r0, 0x2d	; 45
    5e3a:	07 fe       	sbrs	r0, 7
    5e3c:	fd cf       	rjmp	.-6      	; 0x5e38 <SetBit+0xfce>
    5e3e:	2e b5       	in	r18, 0x2e	; 46
    5e40:	85 30       	cpi	r24, 0x05	; 5
    5e42:	91 05       	cpc	r25, r1
    5e44:	09 f0       	breq	.+2      	; 0x5e48 <SetBit+0xfde>
    5e46:	b0 cc       	rjmp	.-1696   	; 0x57a8 <SetBit+0x93e>
    5e48:	2c 9a       	sbi	0x05, 4	; 5
    5e4a:	92 c8       	rjmp	.-3804   	; 0x4f70 <SetBit+0x106>
    5e4c:	20 81       	ld	r18, Z
    5e4e:	2e bd       	out	0x2e, r18	; 46
    5e50:	0d b4       	in	r0, 0x2d	; 45
    5e52:	07 fe       	sbrs	r0, 7
    5e54:	fd cf       	rjmp	.-6      	; 0x5e50 <SetBit+0xfe6>
    5e56:	2e b5       	in	r18, 0x2e	; 46
    5e58:	85 30       	cpi	r24, 0x05	; 5
    5e5a:	91 05       	cpc	r25, r1
    5e5c:	09 f0       	breq	.+2      	; 0x5e60 <SetBit+0xff6>
    5e5e:	92 cc       	rjmp	.-1756   	; 0x5784 <SetBit+0x91a>
    5e60:	2c 9a       	sbi	0x05, 4	; 5
    5e62:	86 c8       	rjmp	.-3828   	; 0x4f70 <SetBit+0x106>
    5e64:	20 81       	ld	r18, Z
    5e66:	2e bd       	out	0x2e, r18	; 46
    5e68:	0d b4       	in	r0, 0x2d	; 45
    5e6a:	07 fe       	sbrs	r0, 7
    5e6c:	fd cf       	rjmp	.-6      	; 0x5e68 <SetBit+0xffe>
    5e6e:	2e b5       	in	r18, 0x2e	; 46
    5e70:	85 30       	cpi	r24, 0x05	; 5
    5e72:	91 05       	cpc	r25, r1
    5e74:	09 f0       	breq	.+2      	; 0x5e78 <SetBit+0x100e>
    5e76:	27 cc       	rjmp	.-1970   	; 0x56c6 <SetBit+0x85c>
    5e78:	2c 9a       	sbi	0x05, 4	; 5
    5e7a:	7a c8       	rjmp	.-3852   	; 0x4f70 <SetBit+0x106>
    5e7c:	20 81       	ld	r18, Z
    5e7e:	2e bd       	out	0x2e, r18	; 46
    5e80:	0d b4       	in	r0, 0x2d	; 45
    5e82:	07 fe       	sbrs	r0, 7
    5e84:	fd cf       	rjmp	.-6      	; 0x5e80 <SetBit+0x1016>
    5e86:	2e b5       	in	r18, 0x2e	; 46
    5e88:	85 30       	cpi	r24, 0x05	; 5
    5e8a:	91 05       	cpc	r25, r1
    5e8c:	09 f0       	breq	.+2      	; 0x5e90 <SetBit+0x1026>
    5e8e:	35 cc       	rjmp	.-1942   	; 0x56fa <SetBit+0x890>
    5e90:	2c 9a       	sbi	0x05, 4	; 5
    5e92:	6e c8       	rjmp	.-3876   	; 0x4f70 <SetBit+0x106>
    5e94:	20 81       	ld	r18, Z
    5e96:	2e bd       	out	0x2e, r18	; 46
    5e98:	0d b4       	in	r0, 0x2d	; 45
    5e9a:	07 fe       	sbrs	r0, 7
    5e9c:	fd cf       	rjmp	.-6      	; 0x5e98 <SetBit+0x102e>
    5e9e:	2e b5       	in	r18, 0x2e	; 46
    5ea0:	85 30       	cpi	r24, 0x05	; 5
    5ea2:	91 05       	cpc	r25, r1
    5ea4:	09 f0       	breq	.+2      	; 0x5ea8 <SetBit+0x103e>
    5ea6:	c8 cd       	rjmp	.-1136   	; 0x5a38 <SetBit+0xbce>
    5ea8:	2c 9a       	sbi	0x05, 4	; 5
    5eaa:	62 c8       	rjmp	.-3900   	; 0x4f70 <SetBit+0x106>
    5eac:	20 81       	ld	r18, Z
    5eae:	2e bd       	out	0x2e, r18	; 46
    5eb0:	0d b4       	in	r0, 0x2d	; 45
    5eb2:	07 fe       	sbrs	r0, 7
    5eb4:	fd cf       	rjmp	.-6      	; 0x5eb0 <SetBit+0x1046>
    5eb6:	2e b5       	in	r18, 0x2e	; 46
    5eb8:	85 30       	cpi	r24, 0x05	; 5
    5eba:	91 05       	cpc	r25, r1
    5ebc:	09 f0       	breq	.+2      	; 0x5ec0 <SetBit+0x1056>
    5ebe:	aa cd       	rjmp	.-1196   	; 0x5a14 <SetBit+0xbaa>
    5ec0:	2c 9a       	sbi	0x05, 4	; 5
    5ec2:	56 c8       	rjmp	.-3924   	; 0x4f70 <SetBit+0x106>
    5ec4:	20 81       	ld	r18, Z
    5ec6:	2e bd       	out	0x2e, r18	; 46
    5ec8:	0d b4       	in	r0, 0x2d	; 45
    5eca:	07 fe       	sbrs	r0, 7
    5ecc:	fd cf       	rjmp	.-6      	; 0x5ec8 <SetBit+0x105e>
    5ece:	2e b5       	in	r18, 0x2e	; 46
    5ed0:	85 30       	cpi	r24, 0x05	; 5
    5ed2:	91 05       	cpc	r25, r1
    5ed4:	09 f0       	breq	.+2      	; 0x5ed8 <SetBit+0x106e>
    5ed6:	7c cd       	rjmp	.-1288   	; 0x59d0 <SetBit+0xb66>
    5ed8:	2c 9a       	sbi	0x05, 4	; 5
    5eda:	4a c8       	rjmp	.-3948   	; 0x4f70 <SetBit+0x106>
    5edc:	20 81       	ld	r18, Z
    5ede:	2e bd       	out	0x2e, r18	; 46
    5ee0:	0d b4       	in	r0, 0x2d	; 45
    5ee2:	07 fe       	sbrs	r0, 7
    5ee4:	fd cf       	rjmp	.-6      	; 0x5ee0 <SetBit+0x1076>
    5ee6:	2e b5       	in	r18, 0x2e	; 46
    5ee8:	85 30       	cpi	r24, 0x05	; 5
    5eea:	91 05       	cpc	r25, r1
    5eec:	09 f0       	breq	.+2      	; 0x5ef0 <SetBit+0x1086>
    5eee:	5e cd       	rjmp	.-1348   	; 0x59ac <SetBit+0xb42>
    5ef0:	2c 9a       	sbi	0x05, 4	; 5
    5ef2:	0c 94 b8 27 	jmp	0x4f70	; 0x4f70 <SetBit+0x106>
    5ef6:	1e bc       	out	0x2e, r1	; 46
    5ef8:	0d b4       	in	r0, 0x2d	; 45
    5efa:	07 fe       	sbrs	r0, 7
    5efc:	fd cf       	rjmp	.-6      	; 0x5ef8 <SetBit+0x108e>
    5efe:	2e b5       	in	r18, 0x2e	; 46
    5f00:	20 83       	st	Z, r18
    5f02:	86 30       	cpi	r24, 0x06	; 6
    5f04:	91 05       	cpc	r25, r1
    5f06:	09 f0       	breq	.+2      	; 0x5f0a <SetBit+0x10a0>
    5f08:	a1 c9       	rjmp	.-3262   	; 0x524c <SetBit+0x3e2>
    5f0a:	2c 9a       	sbi	0x05, 4	; 5
    5f0c:	0c 94 83 27 	jmp	0x4f06	; 0x4f06 <SetBit+0x9c>
    5f10:	5e bd       	out	0x2e, r21	; 46
    5f12:	0d b4       	in	r0, 0x2d	; 45
    5f14:	07 fe       	sbrs	r0, 7
    5f16:	fd cf       	rjmp	.-6      	; 0x5f12 <SetBit+0x10a8>
    5f18:	98 c9       	rjmp	.-3280   	; 0x524a <SetBit+0x3e0>
    5f1a:	1e bc       	out	0x2e, r1	; 46
    5f1c:	0d b4       	in	r0, 0x2d	; 45
    5f1e:	07 fe       	sbrs	r0, 7
    5f20:	fd cf       	rjmp	.-6      	; 0x5f1c <SetBit+0x10b2>
    5f22:	2e b5       	in	r18, 0x2e	; 46
    5f24:	20 83       	st	Z, r18
    5f26:	86 30       	cpi	r24, 0x06	; 6
    5f28:	91 05       	cpc	r25, r1
    5f2a:	09 f0       	breq	.+2      	; 0x5f2e <SetBit+0x10c4>
    5f2c:	30 ca       	rjmp	.-2976   	; 0x538e <SetBit+0x524>
    5f2e:	2c 9a       	sbi	0x05, 4	; 5
    5f30:	0c 94 83 27 	jmp	0x4f06	; 0x4f06 <SetBit+0x9c>
    5f34:	5e bd       	out	0x2e, r21	; 46
    5f36:	0d b4       	in	r0, 0x2d	; 45
    5f38:	07 fe       	sbrs	r0, 7
    5f3a:	fd cf       	rjmp	.-6      	; 0x5f36 <SetBit+0x10cc>
    5f3c:	27 ca       	rjmp	.-2994   	; 0x538c <SetBit+0x522>
    5f3e:	1e bc       	out	0x2e, r1	; 46
    5f40:	0d b4       	in	r0, 0x2d	; 45
    5f42:	07 fe       	sbrs	r0, 7
    5f44:	fd cf       	rjmp	.-6      	; 0x5f40 <SetBit+0x10d6>
    5f46:	2e b5       	in	r18, 0x2e	; 46
    5f48:	20 83       	st	Z, r18
    5f4a:	86 30       	cpi	r24, 0x06	; 6
    5f4c:	91 05       	cpc	r25, r1
    5f4e:	09 f0       	breq	.+2      	; 0x5f52 <SetBit+0x10e8>
    5f50:	06 ca       	rjmp	.-3060   	; 0x535e <SetBit+0x4f4>
    5f52:	2c 9a       	sbi	0x05, 4	; 5
    5f54:	0c 94 83 27 	jmp	0x4f06	; 0x4f06 <SetBit+0x9c>
    5f58:	5e bd       	out	0x2e, r21	; 46
    5f5a:	0d b4       	in	r0, 0x2d	; 45
    5f5c:	07 fe       	sbrs	r0, 7
    5f5e:	fd cf       	rjmp	.-6      	; 0x5f5a <SetBit+0x10f0>
    5f60:	fd c9       	rjmp	.-3078   	; 0x535c <SetBit+0x4f2>
    5f62:	1e bc       	out	0x2e, r1	; 46
    5f64:	0d b4       	in	r0, 0x2d	; 45
    5f66:	07 fe       	sbrs	r0, 7
    5f68:	fd cf       	rjmp	.-6      	; 0x5f64 <SetBit+0x10fa>
    5f6a:	2e b5       	in	r18, 0x2e	; 46
    5f6c:	20 83       	st	Z, r18
    5f6e:	86 30       	cpi	r24, 0x06	; 6
    5f70:	91 05       	cpc	r25, r1
    5f72:	09 f0       	breq	.+2      	; 0x5f76 <SetBit+0x110c>
    5f74:	53 c9       	rjmp	.-3418   	; 0x521c <SetBit+0x3b2>
    5f76:	2c 9a       	sbi	0x05, 4	; 5
    5f78:	0c 94 83 27 	jmp	0x4f06	; 0x4f06 <SetBit+0x9c>
    5f7c:	5e bd       	out	0x2e, r21	; 46
    5f7e:	0d b4       	in	r0, 0x2d	; 45
    5f80:	07 fe       	sbrs	r0, 7
    5f82:	fd cf       	rjmp	.-6      	; 0x5f7e <SetBit+0x1114>
    5f84:	4a c9       	rjmp	.-3436   	; 0x521a <SetBit+0x3b0>
    5f86:	1e bc       	out	0x2e, r1	; 46
    5f88:	0d b4       	in	r0, 0x2d	; 45
    5f8a:	07 fe       	sbrs	r0, 7
    5f8c:	fd cf       	rjmp	.-6      	; 0x5f88 <SetBit+0x111e>
    5f8e:	2e b5       	in	r18, 0x2e	; 46
    5f90:	20 83       	st	Z, r18
    5f92:	86 30       	cpi	r24, 0x06	; 6
    5f94:	91 05       	cpc	r25, r1
    5f96:	09 f0       	breq	.+2      	; 0x5f9a <SetBit+0x1130>
    5f98:	b7 c8       	rjmp	.-3730   	; 0x5108 <SetBit+0x29e>
    5f9a:	2c 9a       	sbi	0x05, 4	; 5
    5f9c:	0c 94 83 27 	jmp	0x4f06	; 0x4f06 <SetBit+0x9c>
    5fa0:	4e bd       	out	0x2e, r20	; 46
    5fa2:	0d b4       	in	r0, 0x2d	; 45
    5fa4:	07 fe       	sbrs	r0, 7
    5fa6:	fd cf       	rjmp	.-6      	; 0x5fa2 <SetBit+0x1138>
    5fa8:	ae c8       	rjmp	.-3748   	; 0x5106 <SetBit+0x29c>
    5faa:	1e bc       	out	0x2e, r1	; 46
    5fac:	0d b4       	in	r0, 0x2d	; 45
    5fae:	07 fe       	sbrs	r0, 7
    5fb0:	fd cf       	rjmp	.-6      	; 0x5fac <SetBit+0x1142>
    5fb2:	2e b5       	in	r18, 0x2e	; 46
    5fb4:	20 83       	st	Z, r18
    5fb6:	86 30       	cpi	r24, 0x06	; 6
    5fb8:	91 05       	cpc	r25, r1
    5fba:	09 f0       	breq	.+2      	; 0x5fbe <SetBit+0x1154>
    5fbc:	78 ca       	rjmp	.-2832   	; 0x54ae <SetBit+0x644>
    5fbe:	2c 9a       	sbi	0x05, 4	; 5
    5fc0:	0c 94 83 27 	jmp	0x4f06	; 0x4f06 <SetBit+0x9c>
    5fc4:	5e bd       	out	0x2e, r21	; 46
    5fc6:	0d b4       	in	r0, 0x2d	; 45
    5fc8:	07 fe       	sbrs	r0, 7
    5fca:	fd cf       	rjmp	.-6      	; 0x5fc6 <SetBit+0x115c>
    5fcc:	6f ca       	rjmp	.-2850   	; 0x54ac <SetBit+0x642>
    5fce:	1e bc       	out	0x2e, r1	; 46
    5fd0:	0d b4       	in	r0, 0x2d	; 45
    5fd2:	07 fe       	sbrs	r0, 7
    5fd4:	fd cf       	rjmp	.-6      	; 0x5fd0 <SetBit+0x1166>
    5fd6:	2e b5       	in	r18, 0x2e	; 46
    5fd8:	20 83       	st	Z, r18
    5fda:	86 30       	cpi	r24, 0x06	; 6
    5fdc:	91 05       	cpc	r25, r1
    5fde:	09 f0       	breq	.+2      	; 0x5fe2 <SetBit+0x1178>
    5fe0:	ee c9       	rjmp	.-3108   	; 0x53be <SetBit+0x554>
    5fe2:	2c 9a       	sbi	0x05, 4	; 5
    5fe4:	0c 94 83 27 	jmp	0x4f06	; 0x4f06 <SetBit+0x9c>
    5fe8:	5e bd       	out	0x2e, r21	; 46
    5fea:	0d b4       	in	r0, 0x2d	; 45
    5fec:	07 fe       	sbrs	r0, 7
    5fee:	fd cf       	rjmp	.-6      	; 0x5fea <SetBit+0x1180>
    5ff0:	e5 c9       	rjmp	.-3126   	; 0x53bc <SetBit+0x552>
    5ff2:	1e bc       	out	0x2e, r1	; 46
    5ff4:	0d b4       	in	r0, 0x2d	; 45
    5ff6:	07 fe       	sbrs	r0, 7
    5ff8:	fd cf       	rjmp	.-6      	; 0x5ff4 <SetBit+0x118a>
    5ffa:	2e b5       	in	r18, 0x2e	; 46
    5ffc:	20 83       	st	Z, r18
    5ffe:	86 30       	cpi	r24, 0x06	; 6
    6000:	91 05       	cpc	r25, r1
    6002:	09 f0       	breq	.+2      	; 0x6006 <SetBit+0x119c>
    6004:	24 ca       	rjmp	.-3000   	; 0x544e <SetBit+0x5e4>
    6006:	2c 9a       	sbi	0x05, 4	; 5
    6008:	0c 94 83 27 	jmp	0x4f06	; 0x4f06 <SetBit+0x9c>
    600c:	5e bd       	out	0x2e, r21	; 46
    600e:	0d b4       	in	r0, 0x2d	; 45
    6010:	07 fe       	sbrs	r0, 7
    6012:	fd cf       	rjmp	.-6      	; 0x600e <SetBit+0x11a4>
    6014:	1b ca       	rjmp	.-3018   	; 0x544c <SetBit+0x5e2>
    6016:	1e bc       	out	0x2e, r1	; 46
    6018:	0d b4       	in	r0, 0x2d	; 45
    601a:	07 fe       	sbrs	r0, 7
    601c:	fd cf       	rjmp	.-6      	; 0x6018 <SetBit+0x11ae>
    601e:	2e b5       	in	r18, 0x2e	; 46
    6020:	20 83       	st	Z, r18
    6022:	86 30       	cpi	r24, 0x06	; 6
    6024:	91 05       	cpc	r25, r1
    6026:	09 f0       	breq	.+2      	; 0x602a <SetBit+0x11c0>
    6028:	fa c9       	rjmp	.-3084   	; 0x541e <SetBit+0x5b4>
    602a:	2c 9a       	sbi	0x05, 4	; 5
    602c:	0c 94 83 27 	jmp	0x4f06	; 0x4f06 <SetBit+0x9c>
    6030:	5e bd       	out	0x2e, r21	; 46
    6032:	0d b4       	in	r0, 0x2d	; 45
    6034:	07 fe       	sbrs	r0, 7
    6036:	fd cf       	rjmp	.-6      	; 0x6032 <SetBit+0x11c8>
    6038:	f1 c9       	rjmp	.-3102   	; 0x541c <SetBit+0x5b2>
    603a:	1e bc       	out	0x2e, r1	; 46
    603c:	0d b4       	in	r0, 0x2d	; 45
    603e:	07 fe       	sbrs	r0, 7
    6040:	fd cf       	rjmp	.-6      	; 0x603c <SetBit+0x11d2>
    6042:	2e b5       	in	r18, 0x2e	; 46
    6044:	20 83       	st	Z, r18
    6046:	86 30       	cpi	r24, 0x06	; 6
    6048:	91 05       	cpc	r25, r1
    604a:	09 f0       	breq	.+2      	; 0x604e <SetBit+0x11e4>
    604c:	5f ca       	rjmp	.-2882   	; 0x550c <SetBit+0x6a2>
    604e:	2c 9a       	sbi	0x05, 4	; 5
    6050:	0c 94 83 27 	jmp	0x4f06	; 0x4f06 <SetBit+0x9c>
    6054:	4e bd       	out	0x2e, r20	; 46
    6056:	0d b4       	in	r0, 0x2d	; 45
    6058:	07 fe       	sbrs	r0, 7
    605a:	fd cf       	rjmp	.-6      	; 0x6056 <SetBit+0x11ec>
    605c:	56 ca       	rjmp	.-2900   	; 0x550a <SetBit+0x6a0>
    605e:	1e bc       	out	0x2e, r1	; 46
    6060:	0d b4       	in	r0, 0x2d	; 45
    6062:	07 fe       	sbrs	r0, 7
    6064:	fd cf       	rjmp	.-6      	; 0x6060 <SetBit+0x11f6>
    6066:	2e b5       	in	r18, 0x2e	; 46
    6068:	20 83       	st	Z, r18
    606a:	86 30       	cpi	r24, 0x06	; 6
    606c:	91 05       	cpc	r25, r1
    606e:	09 f0       	breq	.+2      	; 0x6072 <SetBit+0x1208>
    6070:	36 ca       	rjmp	.-2964   	; 0x54de <SetBit+0x674>
    6072:	2c 9a       	sbi	0x05, 4	; 5
    6074:	0c 94 83 27 	jmp	0x4f06	; 0x4f06 <SetBit+0x9c>
    6078:	5e bd       	out	0x2e, r21	; 46
    607a:	0d b4       	in	r0, 0x2d	; 45
    607c:	07 fe       	sbrs	r0, 7
    607e:	fd cf       	rjmp	.-6      	; 0x607a <SetBit+0x1210>
    6080:	2d ca       	rjmp	.-2982   	; 0x54dc <SetBit+0x672>
    6082:	1e bc       	out	0x2e, r1	; 46
    6084:	0d b4       	in	r0, 0x2d	; 45
    6086:	07 fe       	sbrs	r0, 7
    6088:	fd cf       	rjmp	.-6      	; 0x6084 <SetBit+0x121a>
    608a:	2e b5       	in	r18, 0x2e	; 46
    608c:	20 83       	st	Z, r18
    608e:	86 30       	cpi	r24, 0x06	; 6
    6090:	91 05       	cpc	r25, r1
    6092:	09 f0       	breq	.+2      	; 0x6096 <SetBit+0x122c>
    6094:	f4 c9       	rjmp	.-3096   	; 0x547e <SetBit+0x614>
    6096:	2c 9a       	sbi	0x05, 4	; 5
    6098:	0c 94 83 27 	jmp	0x4f06	; 0x4f06 <SetBit+0x9c>
    609c:	5e bd       	out	0x2e, r21	; 46
    609e:	0d b4       	in	r0, 0x2d	; 45
    60a0:	07 fe       	sbrs	r0, 7
    60a2:	fd cf       	rjmp	.-6      	; 0x609e <SetBit+0x1234>
    60a4:	eb c9       	rjmp	.-3114   	; 0x547c <SetBit+0x612>
    60a6:	1e bc       	out	0x2e, r1	; 46
    60a8:	0d b4       	in	r0, 0x2d	; 45
    60aa:	07 fe       	sbrs	r0, 7
    60ac:	fd cf       	rjmp	.-6      	; 0x60a8 <SetBit+0x123e>
    60ae:	2e b5       	in	r18, 0x2e	; 46
    60b0:	20 83       	st	Z, r18
    60b2:	86 30       	cpi	r24, 0x06	; 6
    60b4:	91 05       	cpc	r25, r1
    60b6:	09 f0       	breq	.+2      	; 0x60ba <SetBit+0x1250>
    60b8:	9a c9       	rjmp	.-3276   	; 0x53ee <SetBit+0x584>
    60ba:	2c 9a       	sbi	0x05, 4	; 5
    60bc:	0c 94 83 27 	jmp	0x4f06	; 0x4f06 <SetBit+0x9c>
    60c0:	5e bd       	out	0x2e, r21	; 46
    60c2:	0d b4       	in	r0, 0x2d	; 45
    60c4:	07 fe       	sbrs	r0, 7
    60c6:	fd cf       	rjmp	.-6      	; 0x60c2 <SetBit+0x1258>
    60c8:	91 c9       	rjmp	.-3294   	; 0x53ec <SetBit+0x582>
    60ca:	20 81       	ld	r18, Z
    60cc:	2e bd       	out	0x2e, r18	; 46
    60ce:	0d b4       	in	r0, 0x2d	; 45
    60d0:	07 fe       	sbrs	r0, 7
    60d2:	fd cf       	rjmp	.-6      	; 0x60ce <SetBit+0x1264>
    60d4:	2e b5       	in	r18, 0x2e	; 46
    60d6:	86 30       	cpi	r24, 0x06	; 6
    60d8:	91 05       	cpc	r25, r1
    60da:	09 f0       	breq	.+2      	; 0x60de <SetBit+0x1274>
    60dc:	ec cb       	rjmp	.-2088   	; 0x58b6 <SetBit+0xa4c>
    60de:	2c 9a       	sbi	0x05, 4	; 5
    60e0:	0c 94 b8 27 	jmp	0x4f70	; 0x4f70 <SetBit+0x106>
    60e4:	5e bd       	out	0x2e, r21	; 46
    60e6:	0d b4       	in	r0, 0x2d	; 45
    60e8:	07 fe       	sbrs	r0, 7
    60ea:	fd cf       	rjmp	.-6      	; 0x60e6 <SetBit+0x127c>
    60ec:	e3 cb       	rjmp	.-2106   	; 0x58b4 <SetBit+0xa4a>
    60ee:	20 81       	ld	r18, Z
    60f0:	2e bd       	out	0x2e, r18	; 46
    60f2:	0d b4       	in	r0, 0x2d	; 45
    60f4:	07 fe       	sbrs	r0, 7
    60f6:	fd cf       	rjmp	.-6      	; 0x60f2 <SetBit+0x1288>
    60f8:	2e b5       	in	r18, 0x2e	; 46
    60fa:	86 30       	cpi	r24, 0x06	; 6
    60fc:	91 05       	cpc	r25, r1
    60fe:	09 f0       	breq	.+2      	; 0x6102 <SetBit+0x1298>
    6100:	06 ce       	rjmp	.-1012   	; 0x5d0e <SetBit+0xea4>
    6102:	2c 9a       	sbi	0x05, 4	; 5
    6104:	0c 94 b8 27 	jmp	0x4f70	; 0x4f70 <SetBit+0x106>
    6108:	5e bd       	out	0x2e, r21	; 46
    610a:	0d b4       	in	r0, 0x2d	; 45
    610c:	07 fe       	sbrs	r0, 7
    610e:	fd cf       	rjmp	.-6      	; 0x610a <SetBit+0x12a0>
    6110:	fd cd       	rjmp	.-1030   	; 0x5d0c <SetBit+0xea2>
    6112:	20 81       	ld	r18, Z
    6114:	2e bd       	out	0x2e, r18	; 46
    6116:	0d b4       	in	r0, 0x2d	; 45
    6118:	07 fe       	sbrs	r0, 7
    611a:	fd cf       	rjmp	.-6      	; 0x6116 <SetBit+0x12ac>
    611c:	2e b5       	in	r18, 0x2e	; 46
    611e:	86 30       	cpi	r24, 0x06	; 6
    6120:	91 05       	cpc	r25, r1
    6122:	09 f0       	breq	.+2      	; 0x6126 <SetBit+0x12bc>
    6124:	94 cd       	rjmp	.-1240   	; 0x5c4e <SetBit+0xde4>
    6126:	2c 9a       	sbi	0x05, 4	; 5
    6128:	0c 94 b8 27 	jmp	0x4f70	; 0x4f70 <SetBit+0x106>
    612c:	4e bd       	out	0x2e, r20	; 46
    612e:	0d b4       	in	r0, 0x2d	; 45
    6130:	07 fe       	sbrs	r0, 7
    6132:	fd cf       	rjmp	.-6      	; 0x612e <SetBit+0x12c4>
    6134:	8b cd       	rjmp	.-1258   	; 0x5c4c <SetBit+0xde2>
    6136:	20 81       	ld	r18, Z
    6138:	2e bd       	out	0x2e, r18	; 46
    613a:	0d b4       	in	r0, 0x2d	; 45
    613c:	07 fe       	sbrs	r0, 7
    613e:	fd cf       	rjmp	.-6      	; 0x613a <SetBit+0x12d0>
    6140:	2e b5       	in	r18, 0x2e	; 46
    6142:	86 30       	cpi	r24, 0x06	; 6
    6144:	91 05       	cpc	r25, r1
    6146:	09 f0       	breq	.+2      	; 0x614a <SetBit+0x12e0>
    6148:	ce cb       	rjmp	.-2148   	; 0x58e6 <SetBit+0xa7c>
    614a:	2c 9a       	sbi	0x05, 4	; 5
    614c:	0c 94 b8 27 	jmp	0x4f70	; 0x4f70 <SetBit+0x106>
    6150:	5e bd       	out	0x2e, r21	; 46
    6152:	0d b4       	in	r0, 0x2d	; 45
    6154:	07 fe       	sbrs	r0, 7
    6156:	fd cf       	rjmp	.-6      	; 0x6152 <SetBit+0x12e8>
    6158:	c5 cb       	rjmp	.-2166   	; 0x58e4 <SetBit+0xa7a>
    615a:	20 81       	ld	r18, Z
    615c:	2e bd       	out	0x2e, r18	; 46
    615e:	0d b4       	in	r0, 0x2d	; 45
    6160:	07 fe       	sbrs	r0, 7
    6162:	fd cf       	rjmp	.-6      	; 0x615e <SetBit+0x12f4>
    6164:	2e b5       	in	r18, 0x2e	; 46
    6166:	86 30       	cpi	r24, 0x06	; 6
    6168:	91 05       	cpc	r25, r1
    616a:	09 f0       	breq	.+2      	; 0x616e <SetBit+0x1304>
    616c:	8c cb       	rjmp	.-2280   	; 0x5886 <SetBit+0xa1c>
    616e:	2c 9a       	sbi	0x05, 4	; 5
    6170:	0c 94 b8 27 	jmp	0x4f70	; 0x4f70 <SetBit+0x106>
    6174:	5e bd       	out	0x2e, r21	; 46
    6176:	0d b4       	in	r0, 0x2d	; 45
    6178:	07 fe       	sbrs	r0, 7
    617a:	fd cf       	rjmp	.-6      	; 0x6176 <SetBit+0x130c>
    617c:	83 cb       	rjmp	.-2298   	; 0x5884 <SetBit+0xa1a>
    617e:	20 81       	ld	r18, Z
    6180:	2e bd       	out	0x2e, r18	; 46
    6182:	0d b4       	in	r0, 0x2d	; 45
    6184:	07 fe       	sbrs	r0, 7
    6186:	fd cf       	rjmp	.-6      	; 0x6182 <SetBit+0x1318>
    6188:	2e b5       	in	r18, 0x2e	; 46
    618a:	86 30       	cpi	r24, 0x06	; 6
    618c:	91 05       	cpc	r25, r1
    618e:	09 f0       	breq	.+2      	; 0x6192 <SetBit+0x1328>
    6190:	62 cb       	rjmp	.-2364   	; 0x5856 <SetBit+0x9ec>
    6192:	2c 9a       	sbi	0x05, 4	; 5
    6194:	0c 94 b8 27 	jmp	0x4f70	; 0x4f70 <SetBit+0x106>
    6198:	4e bd       	out	0x2e, r20	; 46
    619a:	0d b4       	in	r0, 0x2d	; 45
    619c:	07 fe       	sbrs	r0, 7
    619e:	fd cf       	rjmp	.-6      	; 0x619a <SetBit+0x1330>
    61a0:	59 cb       	rjmp	.-2382   	; 0x5854 <SetBit+0x9ea>
    61a2:	20 81       	ld	r18, Z
    61a4:	2e bd       	out	0x2e, r18	; 46
    61a6:	0d b4       	in	r0, 0x2d	; 45
    61a8:	07 fe       	sbrs	r0, 7
    61aa:	fd cf       	rjmp	.-6      	; 0x61a6 <SetBit+0x133c>
    61ac:	2e b5       	in	r18, 0x2e	; 46
    61ae:	86 30       	cpi	r24, 0x06	; 6
    61b0:	91 05       	cpc	r25, r1
    61b2:	09 f0       	breq	.+2      	; 0x61b6 <SetBit+0x134c>
    61b4:	91 cc       	rjmp	.-1758   	; 0x5ad8 <SetBit+0xc6e>
    61b6:	2c 9a       	sbi	0x05, 4	; 5
    61b8:	0c 94 b8 27 	jmp	0x4f70	; 0x4f70 <SetBit+0x106>
    61bc:	5e bd       	out	0x2e, r21	; 46
    61be:	0d b4       	in	r0, 0x2d	; 45
    61c0:	07 fe       	sbrs	r0, 7
    61c2:	fd cf       	rjmp	.-6      	; 0x61be <SetBit+0x1354>
    61c4:	88 cc       	rjmp	.-1776   	; 0x5ad6 <SetBit+0xc6c>
    61c6:	20 81       	ld	r18, Z
    61c8:	2e bd       	out	0x2e, r18	; 46
    61ca:	0d b4       	in	r0, 0x2d	; 45
    61cc:	07 fe       	sbrs	r0, 7
    61ce:	fd cf       	rjmp	.-6      	; 0x61ca <SetBit+0x1360>
    61d0:	2e b5       	in	r18, 0x2e	; 46
    61d2:	86 30       	cpi	r24, 0x06	; 6
    61d4:	91 05       	cpc	r25, r1
    61d6:	09 f0       	breq	.+2      	; 0x61da <SetBit+0x1370>
    61d8:	c7 cc       	rjmp	.-1650   	; 0x5b68 <SetBit+0xcfe>
    61da:	2c 9a       	sbi	0x05, 4	; 5
    61dc:	0c 94 b8 27 	jmp	0x4f70	; 0x4f70 <SetBit+0x106>
    61e0:	5e bd       	out	0x2e, r21	; 46
    61e2:	0d b4       	in	r0, 0x2d	; 45
    61e4:	07 fe       	sbrs	r0, 7
    61e6:	fd cf       	rjmp	.-6      	; 0x61e2 <SetBit+0x1378>
    61e8:	be cc       	rjmp	.-1668   	; 0x5b66 <SetBit+0xcfc>
    61ea:	20 81       	ld	r18, Z
    61ec:	2e bd       	out	0x2e, r18	; 46
    61ee:	0d b4       	in	r0, 0x2d	; 45
    61f0:	07 fe       	sbrs	r0, 7
    61f2:	fd cf       	rjmp	.-6      	; 0x61ee <SetBit+0x1384>
    61f4:	2e b5       	in	r18, 0x2e	; 46
    61f6:	86 30       	cpi	r24, 0x06	; 6
    61f8:	91 05       	cpc	r25, r1
    61fa:	09 f0       	breq	.+2      	; 0x61fe <SetBit+0x1394>
    61fc:	9d cc       	rjmp	.-1734   	; 0x5b38 <SetBit+0xcce>
    61fe:	2c 9a       	sbi	0x05, 4	; 5
    6200:	0c 94 b8 27 	jmp	0x4f70	; 0x4f70 <SetBit+0x106>
    6204:	5e bd       	out	0x2e, r21	; 46
    6206:	0d b4       	in	r0, 0x2d	; 45
    6208:	07 fe       	sbrs	r0, 7
    620a:	fd cf       	rjmp	.-6      	; 0x6206 <SetBit+0x139c>
    620c:	94 cc       	rjmp	.-1752   	; 0x5b36 <SetBit+0xccc>
    620e:	20 81       	ld	r18, Z
    6210:	2e bd       	out	0x2e, r18	; 46
    6212:	0d b4       	in	r0, 0x2d	; 45
    6214:	07 fe       	sbrs	r0, 7
    6216:	fd cf       	rjmp	.-6      	; 0x6212 <SetBit+0x13a8>
    6218:	2e b5       	in	r18, 0x2e	; 46
    621a:	86 30       	cpi	r24, 0x06	; 6
    621c:	91 05       	cpc	r25, r1
    621e:	09 f0       	breq	.+2      	; 0x6222 <SetBit+0x13b8>
    6220:	bb cc       	rjmp	.-1674   	; 0x5b98 <SetBit+0xd2e>
    6222:	2c 9a       	sbi	0x05, 4	; 5
    6224:	0c 94 b8 27 	jmp	0x4f70	; 0x4f70 <SetBit+0x106>
    6228:	5e bd       	out	0x2e, r21	; 46
    622a:	0d b4       	in	r0, 0x2d	; 45
    622c:	07 fe       	sbrs	r0, 7
    622e:	fd cf       	rjmp	.-6      	; 0x622a <SetBit+0x13c0>
    6230:	b2 cc       	rjmp	.-1692   	; 0x5b96 <SetBit+0xd2c>
    6232:	20 81       	ld	r18, Z
    6234:	2e bd       	out	0x2e, r18	; 46
    6236:	0d b4       	in	r0, 0x2d	; 45
    6238:	07 fe       	sbrs	r0, 7
    623a:	fd cf       	rjmp	.-6      	; 0x6236 <SetBit+0x13cc>
    623c:	2e b5       	in	r18, 0x2e	; 46
    623e:	86 30       	cpi	r24, 0x06	; 6
    6240:	91 05       	cpc	r25, r1
    6242:	09 f0       	breq	.+2      	; 0x6246 <SetBit+0x13dc>
    6244:	61 cc       	rjmp	.-1854   	; 0x5b08 <SetBit+0xc9e>
    6246:	2c 9a       	sbi	0x05, 4	; 5
    6248:	0c 94 b8 27 	jmp	0x4f70	; 0x4f70 <SetBit+0x106>
    624c:	5e bd       	out	0x2e, r21	; 46
    624e:	0d b4       	in	r0, 0x2d	; 45
    6250:	07 fe       	sbrs	r0, 7
    6252:	fd cf       	rjmp	.-6      	; 0x624e <SetBit+0x13e4>
    6254:	58 cc       	rjmp	.-1872   	; 0x5b06 <SetBit+0xc9c>
    6256:	20 81       	ld	r18, Z
    6258:	2e bd       	out	0x2e, r18	; 46
    625a:	0d b4       	in	r0, 0x2d	; 45
    625c:	07 fe       	sbrs	r0, 7
    625e:	fd cf       	rjmp	.-6      	; 0x625a <SetBit+0x13f0>
    6260:	2e b5       	in	r18, 0x2e	; 46
    6262:	86 30       	cpi	r24, 0x06	; 6
    6264:	91 05       	cpc	r25, r1
    6266:	09 f0       	breq	.+2      	; 0x626a <SetBit+0x1400>
    6268:	1f cc       	rjmp	.-1986   	; 0x5aa8 <SetBit+0xc3e>
    626a:	2c 9a       	sbi	0x05, 4	; 5
    626c:	0c 94 b8 27 	jmp	0x4f70	; 0x4f70 <SetBit+0x106>
    6270:	5e bd       	out	0x2e, r21	; 46
    6272:	0d b4       	in	r0, 0x2d	; 45
    6274:	07 fe       	sbrs	r0, 7
    6276:	fd cf       	rjmp	.-6      	; 0x6272 <SetBit+0x1408>
    6278:	16 cc       	rjmp	.-2004   	; 0x5aa6 <SetBit+0xc3c>
    627a:	20 81       	ld	r18, Z
    627c:	2e bd       	out	0x2e, r18	; 46
    627e:	0d b4       	in	r0, 0x2d	; 45
    6280:	07 fe       	sbrs	r0, 7
    6282:	fd cf       	rjmp	.-6      	; 0x627e <SetBit+0x1414>
    6284:	2e b5       	in	r18, 0x2e	; 46
    6286:	86 30       	cpi	r24, 0x06	; 6
    6288:	91 05       	cpc	r25, r1
    628a:	09 f0       	breq	.+2      	; 0x628e <SetBit+0x1424>
    628c:	f5 cb       	rjmp	.-2070   	; 0x5a78 <SetBit+0xc0e>
    628e:	2c 9a       	sbi	0x05, 4	; 5
    6290:	0c 94 b8 27 	jmp	0x4f70	; 0x4f70 <SetBit+0x106>
    6294:	5e bd       	out	0x2e, r21	; 46
    6296:	0d b4       	in	r0, 0x2d	; 45
    6298:	07 fe       	sbrs	r0, 7
    629a:	fd cf       	rjmp	.-6      	; 0x6296 <SetBit+0x142c>
    629c:	ec cb       	rjmp	.-2088   	; 0x5a76 <SetBit+0xc0c>
    629e:	1e bc       	out	0x2e, r1	; 46
    62a0:	0d b4       	in	r0, 0x2d	; 45
    62a2:	07 fe       	sbrs	r0, 7
    62a4:	fd cf       	rjmp	.-6      	; 0x62a0 <SetBit+0x1436>
    62a6:	2e b5       	in	r18, 0x2e	; 46
    62a8:	20 83       	st	Z, r18
    62aa:	83 30       	cpi	r24, 0x03	; 3
    62ac:	91 05       	cpc	r25, r1
    62ae:	09 f0       	breq	.+2      	; 0x62b2 <SetBit+0x1448>
    62b0:	a3 c9       	rjmp	.-3258   	; 0x55f8 <SetBit+0x78e>
    62b2:	2c 9a       	sbi	0x05, 4	; 5
    62b4:	0c 94 83 27 	jmp	0x4f06	; 0x4f06 <SetBit+0x9c>
    62b8:	20 81       	ld	r18, Z
    62ba:	2e bd       	out	0x2e, r18	; 46
    62bc:	0d b4       	in	r0, 0x2d	; 45
    62be:	07 fe       	sbrs	r0, 7
    62c0:	fd cf       	rjmp	.-6      	; 0x62bc <SetBit+0x1452>
    62c2:	2e b5       	in	r18, 0x2e	; 46
    62c4:	83 30       	cpi	r24, 0x03	; 3
    62c6:	91 05       	cpc	r25, r1
    62c8:	09 f0       	breq	.+2      	; 0x62cc <SetBit+0x1462>
    62ca:	4a ca       	rjmp	.-2924   	; 0x5760 <SetBit+0x8f6>
    62cc:	2c 9a       	sbi	0x05, 4	; 5
    62ce:	0c 94 b8 27 	jmp	0x4f70	; 0x4f70 <SetBit+0x106>
    62d2:	1e bc       	out	0x2e, r1	; 46
    62d4:	0d b4       	in	r0, 0x2d	; 45
    62d6:	07 fe       	sbrs	r0, 7
    62d8:	fd cf       	rjmp	.-6      	; 0x62d4 <SetBit+0x146a>
    62da:	2e b5       	in	r18, 0x2e	; 46
    62dc:	20 83       	st	Z, r18
    62de:	84 30       	cpi	r24, 0x04	; 4
    62e0:	91 05       	cpc	r25, r1
    62e2:	11 f0       	breq	.+4      	; 0x62e8 <SetBit+0x147e>
    62e4:	0c 94 6d 28 	jmp	0x50da	; 0x50da <SetBit+0x270>
    62e8:	2c 9a       	sbi	0x05, 4	; 5
    62ea:	0c 94 83 27 	jmp	0x4f06	; 0x4f06 <SetBit+0x9c>
    62ee:	5e bd       	out	0x2e, r21	; 46
    62f0:	0d b4       	in	r0, 0x2d	; 45
    62f2:	07 fe       	sbrs	r0, 7
    62f4:	fd cf       	rjmp	.-6      	; 0x62f0 <SetBit+0x1486>
    62f6:	0c 94 6c 28 	jmp	0x50d8	; 0x50d8 <SetBit+0x26e>
    62fa:	1e bc       	out	0x2e, r1	; 46
    62fc:	0d b4       	in	r0, 0x2d	; 45
    62fe:	07 fe       	sbrs	r0, 7
    6300:	fd cf       	rjmp	.-6      	; 0x62fc <SetBit+0x1492>
    6302:	2e b5       	in	r18, 0x2e	; 46
    6304:	20 83       	st	Z, r18
    6306:	84 30       	cpi	r24, 0x04	; 4
    6308:	91 05       	cpc	r25, r1
    630a:	11 f0       	breq	.+4      	; 0x6310 <SetBit+0x14a6>
    630c:	0c 94 53 28 	jmp	0x50a6	; 0x50a6 <SetBit+0x23c>
    6310:	2c 9a       	sbi	0x05, 4	; 5
    6312:	0c 94 83 27 	jmp	0x4f06	; 0x4f06 <SetBit+0x9c>
    6316:	5e bd       	out	0x2e, r21	; 46
    6318:	0d b4       	in	r0, 0x2d	; 45
    631a:	07 fe       	sbrs	r0, 7
    631c:	fd cf       	rjmp	.-6      	; 0x6318 <SetBit+0x14ae>
    631e:	0c 94 52 28 	jmp	0x50a4	; 0x50a4 <SetBit+0x23a>
    6322:	1e bc       	out	0x2e, r1	; 46
    6324:	0d b4       	in	r0, 0x2d	; 45
    6326:	07 fe       	sbrs	r0, 7
    6328:	fd cf       	rjmp	.-6      	; 0x6324 <SetBit+0x14ba>
    632a:	2e b5       	in	r18, 0x2e	; 46
    632c:	20 83       	st	Z, r18
    632e:	84 30       	cpi	r24, 0x04	; 4
    6330:	91 05       	cpc	r25, r1
    6332:	11 f0       	breq	.+4      	; 0x6338 <SetBit+0x14ce>
    6334:	0c 94 39 28 	jmp	0x5072	; 0x5072 <SetBit+0x208>
    6338:	2c 9a       	sbi	0x05, 4	; 5
    633a:	0c 94 83 27 	jmp	0x4f06	; 0x4f06 <SetBit+0x9c>
    633e:	5e bd       	out	0x2e, r21	; 46
    6340:	0d b4       	in	r0, 0x2d	; 45
    6342:	07 fe       	sbrs	r0, 7
    6344:	fd cf       	rjmp	.-6      	; 0x6340 <SetBit+0x14d6>
    6346:	0c 94 38 28 	jmp	0x5070	; 0x5070 <SetBit+0x206>
    634a:	20 81       	ld	r18, Z
    634c:	2e bd       	out	0x2e, r18	; 46
    634e:	0d b4       	in	r0, 0x2d	; 45
    6350:	07 fe       	sbrs	r0, 7
    6352:	fd cf       	rjmp	.-6      	; 0x634e <SetBit+0x14e4>
    6354:	2e b5       	in	r18, 0x2e	; 46
    6356:	84 30       	cpi	r24, 0x04	; 4
    6358:	91 05       	cpc	r25, r1
    635a:	09 f0       	breq	.+2      	; 0x635e <SetBit+0x14f4>
    635c:	a8 cc       	rjmp	.-1712   	; 0x5cae <SetBit+0xe44>
    635e:	2c 9a       	sbi	0x05, 4	; 5
    6360:	0c 94 b8 27 	jmp	0x4f70	; 0x4f70 <SetBit+0x106>
    6364:	5e bd       	out	0x2e, r21	; 46
    6366:	0d b4       	in	r0, 0x2d	; 45
    6368:	07 fe       	sbrs	r0, 7
    636a:	fd cf       	rjmp	.-6      	; 0x6366 <SetBit+0x14fc>
    636c:	9f cc       	rjmp	.-1730   	; 0x5cac <SetBit+0xe42>
    636e:	20 81       	ld	r18, Z
    6370:	2e bd       	out	0x2e, r18	; 46
    6372:	0d b4       	in	r0, 0x2d	; 45
    6374:	07 fe       	sbrs	r0, 7
    6376:	fd cf       	rjmp	.-6      	; 0x6372 <SetBit+0x1508>
    6378:	2e b5       	in	r18, 0x2e	; 46
    637a:	84 30       	cpi	r24, 0x04	; 4
    637c:	91 05       	cpc	r25, r1
    637e:	09 f0       	breq	.+2      	; 0x6382 <SetBit+0x1518>
    6380:	7e cc       	rjmp	.-1796   	; 0x5c7e <SetBit+0xe14>
    6382:	2c 9a       	sbi	0x05, 4	; 5
    6384:	0c 94 b8 27 	jmp	0x4f70	; 0x4f70 <SetBit+0x106>
    6388:	5e bd       	out	0x2e, r21	; 46
    638a:	0d b4       	in	r0, 0x2d	; 45
    638c:	07 fe       	sbrs	r0, 7
    638e:	fd cf       	rjmp	.-6      	; 0x638a <SetBit+0x1520>
    6390:	75 cc       	rjmp	.-1814   	; 0x5c7c <SetBit+0xe12>
    6392:	20 81       	ld	r18, Z
    6394:	2e bd       	out	0x2e, r18	; 46
    6396:	0d b4       	in	r0, 0x2d	; 45
    6398:	07 fe       	sbrs	r0, 7
    639a:	fd cf       	rjmp	.-6      	; 0x6396 <SetBit+0x152c>
    639c:	2e b5       	in	r18, 0x2e	; 46
    639e:	84 30       	cpi	r24, 0x04	; 4
    63a0:	91 05       	cpc	r25, r1
    63a2:	09 f0       	breq	.+2      	; 0x63a6 <SetBit+0x153c>
    63a4:	9c cc       	rjmp	.-1736   	; 0x5cde <SetBit+0xe74>
    63a6:	2c 9a       	sbi	0x05, 4	; 5
    63a8:	0c 94 b8 27 	jmp	0x4f70	; 0x4f70 <SetBit+0x106>
    63ac:	5e bd       	out	0x2e, r21	; 46
    63ae:	0d b4       	in	r0, 0x2d	; 45
    63b0:	07 fe       	sbrs	r0, 7
    63b2:	fd cf       	rjmp	.-6      	; 0x63ae <SetBit+0x1544>
    63b4:	93 cc       	rjmp	.-1754   	; 0x5cdc <SetBit+0xe72>
    63b6:	5e bd       	out	0x2e, r21	; 46
    63b8:	0d b4       	in	r0, 0x2d	; 45
    63ba:	07 fe       	sbrs	r0, 7
    63bc:	fd cf       	rjmp	.-6      	; 0x63b8 <SetBit+0x154e>
    63be:	0c 94 f5 28 	jmp	0x51ea	; 0x51ea <SetBit+0x380>
    63c2:	20 81       	ld	r18, Z
    63c4:	2e bd       	out	0x2e, r18	; 46
    63c6:	0d b4       	in	r0, 0x2d	; 45
    63c8:	07 fe       	sbrs	r0, 7
    63ca:	fd cf       	rjmp	.-6      	; 0x63c6 <SetBit+0x155c>
    63cc:	2e b5       	in	r18, 0x2e	; 46
    63ce:	83 30       	cpi	r24, 0x03	; 3
    63d0:	91 05       	cpc	r25, r1
    63d2:	09 f0       	breq	.+2      	; 0x63d6 <SetBit+0x156c>
    63d4:	a0 ca       	rjmp	.-2752   	; 0x5916 <SetBit+0xaac>
    63d6:	2c 9a       	sbi	0x05, 4	; 5
    63d8:	0c 94 b8 27 	jmp	0x4f70	; 0x4f70 <SetBit+0x106>
    63dc:	5e bd       	out	0x2e, r21	; 46
    63de:	0d b4       	in	r0, 0x2d	; 45
    63e0:	07 fe       	sbrs	r0, 7
    63e2:	fd cf       	rjmp	.-6      	; 0x63de <SetBit+0x1574>
    63e4:	97 ca       	rjmp	.-2770   	; 0x5914 <SetBit+0xaaa>

000063e6 <Set_TransmitBuffer>:
    63e6:	2c 98       	cbi	0x05, 4	; 5
    63e8:	fc 01       	movw	r30, r24
    63ea:	3a 96       	adiw	r30, 0x0a	; 10
    63ec:	21 e0       	ldi	r18, 0x01	; 1
    63ee:	30 e0       	ldi	r19, 0x00	; 0
    63f0:	99 e8       	ldi	r25, 0x89	; 137
    63f2:	21 30       	cpi	r18, 0x01	; 1
    63f4:	31 05       	cpc	r19, r1
    63f6:	59 f4       	brne	.+22     	; 0x640e <Set_TransmitBuffer+0x28>
    63f8:	9e bd       	out	0x2e, r25	; 46
    63fa:	0d b4       	in	r0, 0x2d	; 45
    63fc:	07 fe       	sbrs	r0, 7
    63fe:	fd cf       	rjmp	.-6      	; 0x63fa <Set_TransmitBuffer+0x14>
    6400:	8e b5       	in	r24, 0x2e	; 46
    6402:	2f 5f       	subi	r18, 0xFF	; 255
    6404:	3f 4f       	sbci	r19, 0xFF	; 255
    6406:	31 97       	sbiw	r30, 0x01	; 1
    6408:	21 30       	cpi	r18, 0x01	; 1
    640a:	31 05       	cpc	r19, r1
    640c:	a9 f3       	breq	.-22     	; 0x63f8 <Set_TransmitBuffer+0x12>
    640e:	80 81       	ld	r24, Z
    6410:	8e bd       	out	0x2e, r24	; 46
    6412:	0d b4       	in	r0, 0x2d	; 45
    6414:	07 fe       	sbrs	r0, 7
    6416:	fd cf       	rjmp	.-6      	; 0x6412 <Set_TransmitBuffer+0x2c>
    6418:	8e b5       	in	r24, 0x2e	; 46
    641a:	2b 30       	cpi	r18, 0x0B	; 11
    641c:	31 05       	cpc	r19, r1
    641e:	89 f7       	brne	.-30     	; 0x6402 <Set_TransmitBuffer+0x1c>
    6420:	2c 9a       	sbi	0x05, 4	; 5
    6422:	08 95       	ret

00006424 <Set_ReceiveFrameWaitTimeoutPeriod>:
    6424:	2c 98       	cbi	0x05, 4	; 5
    6426:	fc 01       	movw	r30, r24
    6428:	33 96       	adiw	r30, 0x03	; 3
    642a:	21 e0       	ldi	r18, 0x01	; 1
    642c:	30 e0       	ldi	r19, 0x00	; 0
    642e:	9c ec       	ldi	r25, 0xCC	; 204
    6430:	a9 01       	movw	r20, r18
    6432:	41 50       	subi	r20, 0x01	; 1
    6434:	51 09       	sbc	r21, r1
    6436:	79 f0       	breq	.+30     	; 0x6456 <Set_ReceiveFrameWaitTimeoutPeriod+0x32>
    6438:	41 30       	cpi	r20, 0x01	; 1
    643a:	51 05       	cpc	r21, r1
    643c:	89 f4       	brne	.+34     	; 0x6460 <Set_ReceiveFrameWaitTimeoutPeriod+0x3c>
    643e:	1e bc       	out	0x2e, r1	; 46
    6440:	0d b4       	in	r0, 0x2d	; 45
    6442:	07 fe       	sbrs	r0, 7
    6444:	fd cf       	rjmp	.-6      	; 0x6440 <Set_ReceiveFrameWaitTimeoutPeriod+0x1c>
    6446:	8e b5       	in	r24, 0x2e	; 46
    6448:	2f 5f       	subi	r18, 0xFF	; 255
    644a:	3f 4f       	sbci	r19, 0xFF	; 255
    644c:	31 97       	sbiw	r30, 0x01	; 1
    644e:	a9 01       	movw	r20, r18
    6450:	41 50       	subi	r20, 0x01	; 1
    6452:	51 09       	sbc	r21, r1
    6454:	89 f7       	brne	.-30     	; 0x6438 <Set_ReceiveFrameWaitTimeoutPeriod+0x14>
    6456:	9e bd       	out	0x2e, r25	; 46
    6458:	0d b4       	in	r0, 0x2d	; 45
    645a:	07 fe       	sbrs	r0, 7
    645c:	fd cf       	rjmp	.-6      	; 0x6458 <Set_ReceiveFrameWaitTimeoutPeriod+0x34>
    645e:	f3 cf       	rjmp	.-26     	; 0x6446 <Set_ReceiveFrameWaitTimeoutPeriod+0x22>
    6460:	80 81       	ld	r24, Z
    6462:	8e bd       	out	0x2e, r24	; 46
    6464:	0d b4       	in	r0, 0x2d	; 45
    6466:	07 fe       	sbrs	r0, 7
    6468:	fd cf       	rjmp	.-6      	; 0x6464 <Set_ReceiveFrameWaitTimeoutPeriod+0x40>
    646a:	8e b5       	in	r24, 0x2e	; 46
    646c:	24 30       	cpi	r18, 0x04	; 4
    646e:	31 05       	cpc	r19, r1
    6470:	59 f7       	brne	.-42     	; 0x6448 <Set_ReceiveFrameWaitTimeoutPeriod+0x24>
    6472:	2c 9a       	sbi	0x05, 4	; 5
    6474:	08 95       	ret

00006476 <TIMER_Init>:
    6476:	85 b5       	in	r24, 0x25	; 37
    6478:	85 60       	ori	r24, 0x05	; 5
    647a:	85 bd       	out	0x25, r24	; 37
    647c:	e1 eb       	ldi	r30, 0xB1	; 177
    647e:	f0 e0       	ldi	r31, 0x00	; 0
    6480:	80 81       	ld	r24, Z
    6482:	81 60       	ori	r24, 0x01	; 1
    6484:	80 83       	st	Z, r24
    6486:	08 95       	ret

00006488 <Usart_Init>:
    6488:	8a e0       	ldi	r24, 0x0A	; 10
    648a:	80 93 c4 00 	sts	0x00C4, r24	; 0x8000c4 <__TEXT_REGION_LENGTH__+0x7e00c4>
    648e:	e1 ec       	ldi	r30, 0xC1	; 193
    6490:	f0 e0       	ldi	r31, 0x00	; 0
    6492:	80 81       	ld	r24, Z
    6494:	88 61       	ori	r24, 0x18	; 24
    6496:	80 83       	st	Z, r24
    6498:	e2 ec       	ldi	r30, 0xC2	; 194
    649a:	f0 e0       	ldi	r31, 0x00	; 0
    649c:	80 81       	ld	r24, Z
    649e:	86 60       	ori	r24, 0x06	; 6
    64a0:	80 83       	st	Z, r24
    64a2:	08 95       	ret

000064a4 <ESP8266_Init>:
    64a4:	83 e0       	ldi	r24, 0x03	; 3
    64a6:	90 e0       	ldi	r25, 0x00	; 0
    64a8:	0e 94 d1 03 	call	0x7a2	; 0x7a2 <AT_CWMODE>
    64ac:	81 e0       	ldi	r24, 0x01	; 1
    64ae:	90 e0       	ldi	r25, 0x00	; 0
    64b0:	0e 94 66 04 	call	0x8cc	; 0x8cc <AT_CIPMUX>
    64b4:	63 eb       	ldi	r22, 0xB3	; 179
    64b6:	75 e0       	ldi	r23, 0x05	; 5
    64b8:	cb 01       	movw	r24, r22
    64ba:	0e 94 f6 02 	call	0x5ec	; 0x5ec <AT_CWJAP>
    64be:	2f eb       	ldi	r18, 0xBF	; 191
    64c0:	35 e0       	ldi	r19, 0x05	; 5
    64c2:	42 ec       	ldi	r20, 0xC2	; 194
    64c4:	55 e0       	ldi	r21, 0x05	; 5
    64c6:	60 ed       	ldi	r22, 0xD0	; 208
    64c8:	75 e0       	ldi	r23, 0x05	; 5
    64ca:	81 e0       	ldi	r24, 0x01	; 1
    64cc:	90 e0       	ldi	r25, 0x00	; 0
    64ce:	0e 94 e9 04 	call	0x9d2	; 0x9d2 <AT_CIPSTART>
    64d2:	2f e7       	ldi	r18, 0x7F	; 127
    64d4:	8f e9       	ldi	r24, 0x9F	; 159
    64d6:	95 ed       	ldi	r25, 0xD5	; 213
    64d8:	21 50       	subi	r18, 0x01	; 1
    64da:	80 40       	sbci	r24, 0x00	; 0
    64dc:	90 40       	sbci	r25, 0x00	; 0
    64de:	e1 f7       	brne	.-8      	; 0x64d8 <ESP8266_Init+0x34>
    64e0:	00 c0       	rjmp	.+0      	; 0x64e2 <ESP8266_Init+0x3e>
    64e2:	00 00       	nop
    64e4:	2f eb       	ldi	r18, 0xBF	; 191
    64e6:	35 e0       	ldi	r19, 0x05	; 5
    64e8:	44 ed       	ldi	r20, 0xD4	; 212
    64ea:	55 e0       	ldi	r21, 0x05	; 5
    64ec:	60 ed       	ldi	r22, 0xD0	; 208
    64ee:	75 e0       	ldi	r23, 0x05	; 5
    64f0:	81 e0       	ldi	r24, 0x01	; 1
    64f2:	90 e0       	ldi	r25, 0x00	; 0
    64f4:	0e 94 e9 04 	call	0x9d2	; 0x9d2 <AT_CIPSTART>
    64f8:	2f e7       	ldi	r18, 0x7F	; 127
    64fa:	8f e9       	ldi	r24, 0x9F	; 159
    64fc:	95 ed       	ldi	r25, 0xD5	; 213
    64fe:	21 50       	subi	r18, 0x01	; 1
    6500:	80 40       	sbci	r24, 0x00	; 0
    6502:	90 40       	sbci	r25, 0x00	; 0
    6504:	e1 f7       	brne	.-8      	; 0x64fe <ESP8266_Init+0x5a>
    6506:	00 c0       	rjmp	.+0      	; 0x6508 <ESP8266_Init+0x64>
    6508:	00 00       	nop
    650a:	2f eb       	ldi	r18, 0xBF	; 191
    650c:	35 e0       	ldi	r19, 0x05	; 5
    650e:	42 ee       	ldi	r20, 0xE2	; 226
    6510:	55 e0       	ldi	r21, 0x05	; 5
    6512:	60 ed       	ldi	r22, 0xD0	; 208
    6514:	75 e0       	ldi	r23, 0x05	; 5
    6516:	81 e0       	ldi	r24, 0x01	; 1
    6518:	90 e0       	ldi	r25, 0x00	; 0
    651a:	0e 94 e9 04 	call	0x9d2	; 0x9d2 <AT_CIPSTART>
    651e:	2f e7       	ldi	r18, 0x7F	; 127
    6520:	8f e9       	ldi	r24, 0x9F	; 159
    6522:	95 ed       	ldi	r25, 0xD5	; 213
    6524:	21 50       	subi	r18, 0x01	; 1
    6526:	80 40       	sbci	r24, 0x00	; 0
    6528:	90 40       	sbci	r25, 0x00	; 0
    652a:	e1 f7       	brne	.-8      	; 0x6524 <ESP8266_Init+0x80>
    652c:	00 c0       	rjmp	.+0      	; 0x652e <ESP8266_Init+0x8a>
    652e:	00 00       	nop
    6530:	2f eb       	ldi	r18, 0xBF	; 191
    6532:	35 e0       	ldi	r19, 0x05	; 5
    6534:	40 ef       	ldi	r20, 0xF0	; 240
    6536:	55 e0       	ldi	r21, 0x05	; 5
    6538:	60 ed       	ldi	r22, 0xD0	; 208
    653a:	75 e0       	ldi	r23, 0x05	; 5
    653c:	81 e0       	ldi	r24, 0x01	; 1
    653e:	90 e0       	ldi	r25, 0x00	; 0
    6540:	0e 94 e9 04 	call	0x9d2	; 0x9d2 <AT_CIPSTART>
    6544:	2f e7       	ldi	r18, 0x7F	; 127
    6546:	8f e9       	ldi	r24, 0x9F	; 159
    6548:	95 ed       	ldi	r25, 0xD5	; 213
    654a:	21 50       	subi	r18, 0x01	; 1
    654c:	80 40       	sbci	r24, 0x00	; 0
    654e:	90 40       	sbci	r25, 0x00	; 0
    6550:	e1 f7       	brne	.-8      	; 0x654a <ESP8266_Init+0xa6>
    6552:	00 c0       	rjmp	.+0      	; 0x6554 <ESP8266_Init+0xb0>
    6554:	00 00       	nop
    6556:	2f eb       	ldi	r18, 0xBF	; 191
    6558:	35 e0       	ldi	r19, 0x05	; 5
    655a:	4e ef       	ldi	r20, 0xFE	; 254
    655c:	55 e0       	ldi	r21, 0x05	; 5
    655e:	60 ed       	ldi	r22, 0xD0	; 208
    6560:	75 e0       	ldi	r23, 0x05	; 5
    6562:	81 e0       	ldi	r24, 0x01	; 1
    6564:	90 e0       	ldi	r25, 0x00	; 0
    6566:	0e 94 e9 04 	call	0x9d2	; 0x9d2 <AT_CIPSTART>
    656a:	2f e7       	ldi	r18, 0x7F	; 127
    656c:	8f e9       	ldi	r24, 0x9F	; 159
    656e:	95 ed       	ldi	r25, 0xD5	; 213
    6570:	21 50       	subi	r18, 0x01	; 1
    6572:	80 40       	sbci	r24, 0x00	; 0
    6574:	90 40       	sbci	r25, 0x00	; 0
    6576:	e1 f7       	brne	.-8      	; 0x6570 <ESP8266_Init+0xcc>
    6578:	00 c0       	rjmp	.+0      	; 0x657a <ESP8266_Init+0xd6>
    657a:	00 00       	nop
    657c:	2f eb       	ldi	r18, 0xBF	; 191
    657e:	35 e0       	ldi	r19, 0x05	; 5
    6580:	4c e0       	ldi	r20, 0x0C	; 12
    6582:	56 e0       	ldi	r21, 0x06	; 6
    6584:	60 ed       	ldi	r22, 0xD0	; 208
    6586:	75 e0       	ldi	r23, 0x05	; 5
    6588:	81 e0       	ldi	r24, 0x01	; 1
    658a:	90 e0       	ldi	r25, 0x00	; 0
    658c:	0e 94 e9 04 	call	0x9d2	; 0x9d2 <AT_CIPSTART>
    6590:	80 e0       	ldi	r24, 0x00	; 0
    6592:	90 e0       	ldi	r25, 0x00	; 0
    6594:	08 95       	ret

00006596 <Reset_timeout>:
    6596:	10 92 21 06 	sts	0x0621, r1	; 0x800621 <Break_time+0x1>
    659a:	10 92 20 06 	sts	0x0620, r1	; 0x800620 <Break_time>
    659e:	10 92 1b 06 	sts	0x061B, r1	; 0x80061b <Break_flag>
    65a2:	16 bc       	out	0x26, r1	; 38
    65a4:	08 95       	ret

000065a6 <Delay>:
    65a6:	80 91 70 00 	lds	r24, 0x0070	; 0x800070 <__TEXT_REGION_LENGTH__+0x7e0070>
    65aa:	81 60       	ori	r24, 0x01	; 1
    65ac:	80 93 70 00 	sts	0x0070, r24	; 0x800070 <__TEXT_REGION_LENGTH__+0x7e0070>
    65b0:	10 92 b2 00 	sts	0x00B2, r1	; 0x8000b2 <__TEXT_REGION_LENGTH__+0x7e00b2>
    65b4:	80 91 1c 06 	lds	r24, 0x061C	; 0x80061c <Delay_time>
    65b8:	90 91 1d 06 	lds	r25, 0x061D	; 0x80061d <Delay_time+0x1>
    65bc:	02 97       	sbiw	r24, 0x02	; 2
    65be:	d1 f7       	brne	.-12     	; 0x65b4 <Delay+0xe>
    65c0:	10 92 1d 06 	sts	0x061D, r1	; 0x80061d <Delay_time+0x1>
    65c4:	10 92 1c 06 	sts	0x061C, r1	; 0x80061c <Delay_time>
    65c8:	80 91 70 00 	lds	r24, 0x0070	; 0x800070 <__TEXT_REGION_LENGTH__+0x7e0070>
    65cc:	8e 7f       	andi	r24, 0xFE	; 254
    65ce:	80 93 70 00 	sts	0x0070, r24	; 0x800070 <__TEXT_REGION_LENGTH__+0x7e0070>
    65d2:	08 95       	ret

000065d4 <Distance_Measure>:
    65d4:	6f 92       	push	r6
    65d6:	7f 92       	push	r7
    65d8:	8f 92       	push	r8
    65da:	9f 92       	push	r9
    65dc:	af 92       	push	r10
    65de:	bf 92       	push	r11
    65e0:	cf 92       	push	r12
    65e2:	df 92       	push	r13
    65e4:	ef 92       	push	r14
    65e6:	ff 92       	push	r15
    65e8:	0f 93       	push	r16
    65ea:	1f 93       	push	r17
    65ec:	cf 93       	push	r28
    65ee:	df 93       	push	r29
    65f0:	ec 01       	movw	r28, r24
    65f2:	4b 01       	movw	r8, r22
    65f4:	5a 01       	movw	r10, r20
    65f6:	39 01       	movw	r6, r18
    65f8:	0e 94 05 19 	call	0x320a	; 0x320a <Stop_Transmiter>
    65fc:	8a e2       	ldi	r24, 0x2A	; 42
    65fe:	91 e0       	ldi	r25, 0x01	; 1
    6600:	0e 94 f3 31 	call	0x63e6	; 0x63e6 <Set_TransmitBuffer>
    6604:	c5 01       	movw	r24, r10
    6606:	0e 94 1d 0b 	call	0x163a	; 0x163a <Get_FastReceiveTimeStamp>
    660a:	f5 01       	movw	r30, r10
    660c:	80 81       	ld	r24, Z
    660e:	f3 01       	movw	r30, r6
    6610:	80 83       	st	Z, r24
    6612:	f5 01       	movw	r30, r10
    6614:	81 81       	ldd	r24, Z+1	; 0x01
    6616:	f3 01       	movw	r30, r6
    6618:	81 83       	std	Z+1, r24	; 0x01
    661a:	f5 01       	movw	r30, r10
    661c:	82 81       	ldd	r24, Z+2	; 0x02
    661e:	f3 01       	movw	r30, r6
    6620:	82 83       	std	Z+2, r24	; 0x02
    6622:	f5 01       	movw	r30, r10
    6624:	83 81       	ldd	r24, Z+3	; 0x03
    6626:	f3 01       	movw	r30, r6
    6628:	83 83       	std	Z+3, r24	; 0x03
    662a:	f5 01       	movw	r30, r10
    662c:	84 81       	ldd	r24, Z+4	; 0x04
    662e:	f3 01       	movw	r30, r6
    6630:	84 83       	std	Z+4, r24	; 0x04
    6632:	ce 01       	movw	r24, r28
    6634:	0e 94 fb 0b 	call	0x17f6	; 0x17f6 <Get_FastTransmitTimeStamp>
    6638:	88 81       	ld	r24, Y
    663a:	f8 01       	movw	r30, r16
    663c:	80 83       	st	Z, r24
    663e:	88 81       	ld	r24, Y
    6640:	f4 01       	movw	r30, r8
    6642:	80 83       	st	Z, r24
    6644:	89 81       	ldd	r24, Y+1	; 0x01
    6646:	f8 01       	movw	r30, r16
    6648:	81 83       	std	Z+1, r24	; 0x01
    664a:	89 81       	ldd	r24, Y+1	; 0x01
    664c:	f4 01       	movw	r30, r8
    664e:	81 83       	std	Z+1, r24	; 0x01
    6650:	8a 81       	ldd	r24, Y+2	; 0x02
    6652:	f8 01       	movw	r30, r16
    6654:	82 83       	std	Z+2, r24	; 0x02
    6656:	8a 81       	ldd	r24, Y+2	; 0x02
    6658:	f4 01       	movw	r30, r8
    665a:	82 83       	std	Z+2, r24	; 0x02
    665c:	8b 81       	ldd	r24, Y+3	; 0x03
    665e:	f8 01       	movw	r30, r16
    6660:	83 83       	std	Z+3, r24	; 0x03
    6662:	8b 81       	ldd	r24, Y+3	; 0x03
    6664:	f4 01       	movw	r30, r8
    6666:	83 83       	std	Z+3, r24	; 0x03
    6668:	8c 81       	ldd	r24, Y+4	; 0x04
    666a:	f8 01       	movw	r30, r16
    666c:	84 83       	std	Z+4, r24	; 0x04
    666e:	8c 81       	ldd	r24, Y+4	; 0x04
    6670:	f4 01       	movw	r30, r8
    6672:	84 83       	std	Z+4, r24	; 0x04
    6674:	10 92 21 06 	sts	0x0621, r1	; 0x800621 <Break_time+0x1>
    6678:	10 92 20 06 	sts	0x0620, r1	; 0x800620 <Break_time>
    667c:	10 92 1b 06 	sts	0x061B, r1	; 0x80061b <Break_flag>
    6680:	16 bc       	out	0x26, r1	; 38
    6682:	80 91 6e 00 	lds	r24, 0x006E	; 0x80006e <__TEXT_REGION_LENGTH__+0x7e006e>
    6686:	81 60       	ori	r24, 0x01	; 1
    6688:	80 93 6e 00 	sts	0x006E, r24	; 0x80006e <__TEXT_REGION_LENGTH__+0x7e006e>
    668c:	0e 94 34 19 	call	0x3268	; 0x3268 <Start_Transmit>
    6690:	08 c0       	rjmp	.+16     	; 0x66a2 <Distance_Measure+0xce>
    6692:	ce 01       	movw	r24, r28
    6694:	0e 94 fb 0b 	call	0x17f6	; 0x17f6 <Get_FastTransmitTimeStamp>
    6698:	80 91 1b 06 	lds	r24, 0x061B	; 0x80061b <Break_flag>
    669c:	81 30       	cpi	r24, 0x01	; 1
    669e:	09 f4       	brne	.+2      	; 0x66a2 <Distance_Measure+0xce>
    66a0:	9d c0       	rjmp	.+314    	; 0x67dc <Distance_Measure+0x208>
    66a2:	be 01       	movw	r22, r28
    66a4:	c8 01       	movw	r24, r16
    66a6:	0e 94 0f 07 	call	0xe1e	; 0xe1e <ArrayEqual>
    66aa:	81 11       	cpse	r24, r1
    66ac:	f2 cf       	rjmp	.-28     	; 0x6692 <Distance_Measure+0xbe>
    66ae:	0e 94 63 19 	call	0x32c6	; 0x32c6 <Start_Receiving>
    66b2:	08 c0       	rjmp	.+16     	; 0x66c4 <Distance_Measure+0xf0>
    66b4:	c5 01       	movw	r24, r10
    66b6:	0e 94 1d 0b 	call	0x163a	; 0x163a <Get_FastReceiveTimeStamp>
    66ba:	80 91 1b 06 	lds	r24, 0x061B	; 0x80061b <Break_flag>
    66be:	81 30       	cpi	r24, 0x01	; 1
    66c0:	09 f4       	brne	.+2      	; 0x66c4 <Distance_Measure+0xf0>
    66c2:	8c c0       	rjmp	.+280    	; 0x67dc <Distance_Measure+0x208>
    66c4:	b5 01       	movw	r22, r10
    66c6:	c3 01       	movw	r24, r6
    66c8:	0e 94 0f 07 	call	0xe1e	; 0xe1e <ArrayEqual>
    66cc:	81 11       	cpse	r24, r1
    66ce:	f2 cf       	rjmp	.-28     	; 0x66b4 <Distance_Measure+0xe0>
    66d0:	ce 01       	movw	r24, r28
    66d2:	0e 94 fb 0b 	call	0x17f6	; 0x17f6 <Get_FastTransmitTimeStamp>
    66d6:	88 81       	ld	r24, Y
    66d8:	f8 01       	movw	r30, r16
    66da:	80 83       	st	Z, r24
    66dc:	88 81       	ld	r24, Y
    66de:	f4 01       	movw	r30, r8
    66e0:	80 83       	st	Z, r24
    66e2:	89 81       	ldd	r24, Y+1	; 0x01
    66e4:	f8 01       	movw	r30, r16
    66e6:	81 83       	std	Z+1, r24	; 0x01
    66e8:	89 81       	ldd	r24, Y+1	; 0x01
    66ea:	f4 01       	movw	r30, r8
    66ec:	81 83       	std	Z+1, r24	; 0x01
    66ee:	8a 81       	ldd	r24, Y+2	; 0x02
    66f0:	f8 01       	movw	r30, r16
    66f2:	82 83       	std	Z+2, r24	; 0x02
    66f4:	8a 81       	ldd	r24, Y+2	; 0x02
    66f6:	f4 01       	movw	r30, r8
    66f8:	82 83       	std	Z+2, r24	; 0x02
    66fa:	8b 81       	ldd	r24, Y+3	; 0x03
    66fc:	f8 01       	movw	r30, r16
    66fe:	83 83       	std	Z+3, r24	; 0x03
    6700:	8b 81       	ldd	r24, Y+3	; 0x03
    6702:	f4 01       	movw	r30, r8
    6704:	83 83       	std	Z+3, r24	; 0x03
    6706:	8c 81       	ldd	r24, Y+4	; 0x04
    6708:	f8 01       	movw	r30, r16
    670a:	84 83       	std	Z+4, r24	; 0x04
    670c:	8c 81       	ldd	r24, Y+4	; 0x04
    670e:	f4 01       	movw	r30, r8
    6710:	84 83       	std	Z+4, r24	; 0x04
    6712:	0e 94 34 19 	call	0x3268	; 0x3268 <Start_Transmit>
    6716:	08 c0       	rjmp	.+16     	; 0x6728 <Distance_Measure+0x154>
    6718:	c4 01       	movw	r24, r8
    671a:	0e 94 fb 0b 	call	0x17f6	; 0x17f6 <Get_FastTransmitTimeStamp>
    671e:	80 91 1b 06 	lds	r24, 0x061B	; 0x80061b <Break_flag>
    6722:	81 30       	cpi	r24, 0x01	; 1
    6724:	09 f4       	brne	.+2      	; 0x6728 <Distance_Measure+0x154>
    6726:	5a c0       	rjmp	.+180    	; 0x67dc <Distance_Measure+0x208>
    6728:	b4 01       	movw	r22, r8
    672a:	c8 01       	movw	r24, r16
    672c:	0e 94 0f 07 	call	0xe1e	; 0xe1e <ArrayEqual>
    6730:	81 11       	cpse	r24, r1
    6732:	f2 cf       	rjmp	.-28     	; 0x6718 <Distance_Measure+0x144>
    6734:	80 91 6e 00 	lds	r24, 0x006E	; 0x80006e <__TEXT_REGION_LENGTH__+0x7e006e>
    6738:	8e 7f       	andi	r24, 0xFE	; 254
    673a:	80 93 6e 00 	sts	0x006E, r24	; 0x80006e <__TEXT_REGION_LENGTH__+0x7e006e>
    673e:	c5 01       	movw	r24, r10
    6740:	0e 94 1d 0b 	call	0x163a	; 0x163a <Get_FastReceiveTimeStamp>
    6744:	c4 01       	movw	r24, r8
    6746:	0e 94 fb 0b 	call	0x17f6	; 0x17f6 <Get_FastTransmitTimeStamp>
    674a:	88 81       	ld	r24, Y
    674c:	f7 01       	movw	r30, r14
    674e:	80 83       	st	Z, r24
    6750:	89 81       	ldd	r24, Y+1	; 0x01
    6752:	81 83       	std	Z+1, r24	; 0x01
    6754:	8a 81       	ldd	r24, Y+2	; 0x02
    6756:	82 83       	std	Z+2, r24	; 0x02
    6758:	8b 81       	ldd	r24, Y+3	; 0x03
    675a:	83 83       	std	Z+3, r24	; 0x03
    675c:	8c 81       	ldd	r24, Y+4	; 0x04
    675e:	84 83       	std	Z+4, r24	; 0x04
    6760:	f5 01       	movw	r30, r10
    6762:	80 81       	ld	r24, Z
    6764:	f7 01       	movw	r30, r14
    6766:	85 83       	std	Z+5, r24	; 0x05
    6768:	f5 01       	movw	r30, r10
    676a:	81 81       	ldd	r24, Z+1	; 0x01
    676c:	f7 01       	movw	r30, r14
    676e:	86 83       	std	Z+6, r24	; 0x06
    6770:	f5 01       	movw	r30, r10
    6772:	82 81       	ldd	r24, Z+2	; 0x02
    6774:	f7 01       	movw	r30, r14
    6776:	87 83       	std	Z+7, r24	; 0x07
    6778:	f5 01       	movw	r30, r10
    677a:	83 81       	ldd	r24, Z+3	; 0x03
    677c:	f7 01       	movw	r30, r14
    677e:	80 87       	std	Z+8, r24	; 0x08
    6780:	f5 01       	movw	r30, r10
    6782:	84 81       	ldd	r24, Z+4	; 0x04
    6784:	f7 01       	movw	r30, r14
    6786:	81 87       	std	Z+9, r24	; 0x09
    6788:	f4 01       	movw	r30, r8
    678a:	80 81       	ld	r24, Z
    678c:	f7 01       	movw	r30, r14
    678e:	82 87       	std	Z+10, r24	; 0x0a
    6790:	f4 01       	movw	r30, r8
    6792:	81 81       	ldd	r24, Z+1	; 0x01
    6794:	f7 01       	movw	r30, r14
    6796:	83 87       	std	Z+11, r24	; 0x0b
    6798:	f4 01       	movw	r30, r8
    679a:	82 81       	ldd	r24, Z+2	; 0x02
    679c:	f7 01       	movw	r30, r14
    679e:	84 87       	std	Z+12, r24	; 0x0c
    67a0:	f4 01       	movw	r30, r8
    67a2:	83 81       	ldd	r24, Z+3	; 0x03
    67a4:	f7 01       	movw	r30, r14
    67a6:	85 87       	std	Z+13, r24	; 0x0d
    67a8:	f4 01       	movw	r30, r8
    67aa:	84 81       	ldd	r24, Z+4	; 0x04
    67ac:	f7 01       	movw	r30, r14
    67ae:	86 87       	std	Z+14, r24	; 0x0e
    67b0:	4f e0       	ldi	r20, 0x0F	; 15
    67b2:	50 e0       	ldi	r21, 0x00	; 0
    67b4:	b6 01       	movw	r22, r12
    67b6:	c7 01       	movw	r24, r14
    67b8:	0e 94 ce 00 	call	0x19c	; 0x19c <Hex_to_ASCII>
    67bc:	87 ea       	ldi	r24, 0xA7	; 167
    67be:	91 e6       	ldi	r25, 0x61	; 97
    67c0:	01 97       	sbiw	r24, 0x01	; 1
    67c2:	f1 f7       	brne	.-4      	; 0x67c0 <Distance_Measure+0x1ec>
    67c4:	00 c0       	rjmp	.+0      	; 0x67c6 <Distance_Measure+0x1f2>
    67c6:	00 00       	nop
    67c8:	41 e0       	ldi	r20, 0x01	; 1
    67ca:	50 e0       	ldi	r21, 0x00	; 0
    67cc:	b6 01       	movw	r22, r12
    67ce:	81 e0       	ldi	r24, 0x01	; 1
    67d0:	90 e0       	ldi	r25, 0x00	; 0
    67d2:	0e 94 0e 06 	call	0xc1c	; 0xc1c <AT_CIPSEND>
    67d6:	81 e0       	ldi	r24, 0x01	; 1
    67d8:	90 e0       	ldi	r25, 0x00	; 0
    67da:	02 c0       	rjmp	.+4      	; 0x67e0 <Distance_Measure+0x20c>
    67dc:	80 e0       	ldi	r24, 0x00	; 0
    67de:	90 e0       	ldi	r25, 0x00	; 0
    67e0:	df 91       	pop	r29
    67e2:	cf 91       	pop	r28
    67e4:	1f 91       	pop	r17
    67e6:	0f 91       	pop	r16
    67e8:	ff 90       	pop	r15
    67ea:	ef 90       	pop	r14
    67ec:	df 90       	pop	r13
    67ee:	cf 90       	pop	r12
    67f0:	bf 90       	pop	r11
    67f2:	af 90       	pop	r10
    67f4:	9f 90       	pop	r9
    67f6:	8f 90       	pop	r8
    67f8:	7f 90       	pop	r7
    67fa:	6f 90       	pop	r6
    67fc:	08 95       	ret

000067fe <main>:
    67fe:	52 98       	cbi	0x0a, 2	; 10
    6800:	8a e0       	ldi	r24, 0x0A	; 10
    6802:	80 93 c4 00 	sts	0x00C4, r24	; 0x8000c4 <__TEXT_REGION_LENGTH__+0x7e00c4>
    6806:	80 91 c1 00 	lds	r24, 0x00C1	; 0x8000c1 <__TEXT_REGION_LENGTH__+0x7e00c1>
    680a:	88 61       	ori	r24, 0x18	; 24
    680c:	80 93 c1 00 	sts	0x00C1, r24	; 0x8000c1 <__TEXT_REGION_LENGTH__+0x7e00c1>
    6810:	80 91 c2 00 	lds	r24, 0x00C2	; 0x8000c2 <__TEXT_REGION_LENGTH__+0x7e00c2>
    6814:	86 60       	ori	r24, 0x06	; 6
    6816:	80 93 c2 00 	sts	0x00C2, r24	; 0x8000c2 <__TEXT_REGION_LENGTH__+0x7e00c2>
    681a:	0e 94 32 07 	call	0xe64	; 0xe64 <SPI_Init>
    681e:	85 b5       	in	r24, 0x25	; 37
    6820:	85 60       	ori	r24, 0x05	; 5
    6822:	85 bd       	out	0x25, r24	; 37
    6824:	80 91 b1 00 	lds	r24, 0x00B1	; 0x8000b1 <__TEXT_REGION_LENGTH__+0x7e00b1>
    6828:	81 60       	ori	r24, 0x01	; 1
    682a:	80 93 b1 00 	sts	0x00B1, r24	; 0x8000b1 <__TEXT_REGION_LENGTH__+0x7e00b1>
    682e:	78 94       	sei
    6830:	3c 9a       	sbi	0x07, 4	; 7
    6832:	2f ef       	ldi	r18, 0xFF	; 255
    6834:	83 e2       	ldi	r24, 0x23	; 35
    6836:	94 ef       	ldi	r25, 0xF4	; 244
    6838:	21 50       	subi	r18, 0x01	; 1
    683a:	80 40       	sbci	r24, 0x00	; 0
    683c:	90 40       	sbci	r25, 0x00	; 0
    683e:	e1 f7       	brne	.-8      	; 0x6838 <main+0x3a>
    6840:	00 c0       	rjmp	.+0      	; 0x6842 <main+0x44>
    6842:	00 00       	nop
    6844:	00 e3       	ldi	r16, 0x30	; 48
    6846:	16 e0       	ldi	r17, 0x06	; 6
    6848:	2d e4       	ldi	r18, 0x4D	; 77
    684a:	36 e0       	ldi	r19, 0x06	; 6
    684c:	4c e2       	ldi	r20, 0x2C	; 44
    684e:	56 e0       	ldi	r21, 0x06	; 6
    6850:	6a e5       	ldi	r22, 0x5A	; 90
    6852:	76 e0       	ldi	r23, 0x06	; 6
    6854:	8c e7       	ldi	r24, 0x7C	; 124
    6856:	96 e0       	ldi	r25, 0x06	; 6
    6858:	0e 94 37 17 	call	0x2e6e	; 0x2e6e <Get_PowerManagementAndSystemControl>
    685c:	83 e0       	ldi	r24, 0x03	; 3
    685e:	80 93 7e 06 	sts	0x067E, r24	; 0x80067e <A1+0x2>
    6862:	81 e0       	ldi	r24, 0x01	; 1
    6864:	80 93 7f 06 	sts	0x067F, r24	; 0x80067f <A1+0x3>
    6868:	2d e4       	ldi	r18, 0x4D	; 77
    686a:	36 e0       	ldi	r19, 0x06	; 6
    686c:	4c e2       	ldi	r20, 0x2C	; 44
    686e:	56 e0       	ldi	r21, 0x06	; 6
    6870:	6a e5       	ldi	r22, 0x5A	; 90
    6872:	76 e0       	ldi	r23, 0x06	; 6
    6874:	8c e7       	ldi	r24, 0x7C	; 124
    6876:	96 e0       	ldi	r25, 0x06	; 6
    6878:	0e 94 75 25 	call	0x4aea	; 0x4aea <Set_PowerManagementAndSystemControl>
    687c:	80 e4       	ldi	r24, 0x40	; 64
    687e:	91 e0       	ldi	r25, 0x01	; 1
    6880:	0e 94 14 23 	call	0x4628	; 0x4628 <Set_OTPControl>
    6884:	87 e8       	ldi	r24, 0x87	; 135
    6886:	93 e1       	ldi	r25, 0x13	; 19
    6888:	01 97       	sbiw	r24, 0x01	; 1
    688a:	f1 f7       	brne	.-4      	; 0x6888 <main+0x8a>
    688c:	00 c0       	rjmp	.+0      	; 0x688e <main+0x90>
    688e:	00 00       	nop
    6890:	2d e4       	ldi	r18, 0x4D	; 77
    6892:	36 e0       	ldi	r19, 0x06	; 6
    6894:	4c e2       	ldi	r20, 0x2C	; 44
    6896:	56 e0       	ldi	r21, 0x06	; 6
    6898:	6a e5       	ldi	r22, 0x5A	; 90
    689a:	76 e0       	ldi	r23, 0x06	; 6
    689c:	8c e7       	ldi	r24, 0x7C	; 124
    689e:	96 e0       	ldi	r25, 0x06	; 6
    68a0:	0e 94 37 17 	call	0x2e6e	; 0x2e6e <Get_PowerManagementAndSystemControl>
    68a4:	82 e0       	ldi	r24, 0x02	; 2
    68a6:	80 93 7e 06 	sts	0x067E, r24	; 0x80067e <A1+0x2>
    68aa:	10 92 7f 06 	sts	0x067F, r1	; 0x80067f <A1+0x3>
    68ae:	2d e4       	ldi	r18, 0x4D	; 77
    68b0:	36 e0       	ldi	r19, 0x06	; 6
    68b2:	4c e2       	ldi	r20, 0x2C	; 44
    68b4:	56 e0       	ldi	r21, 0x06	; 6
    68b6:	6a e5       	ldi	r22, 0x5A	; 90
    68b8:	76 e0       	ldi	r23, 0x06	; 6
    68ba:	8c e7       	ldi	r24, 0x7C	; 124
    68bc:	96 e0       	ldi	r25, 0x06	; 6
    68be:	0e 94 75 25 	call	0x4aea	; 0x4aea <Set_PowerManagementAndSystemControl>
    68c2:	2d e4       	ldi	r18, 0x4D	; 77
    68c4:	36 e0       	ldi	r19, 0x06	; 6
    68c6:	4c e2       	ldi	r20, 0x2C	; 44
    68c8:	56 e0       	ldi	r21, 0x06	; 6
    68ca:	6a e5       	ldi	r22, 0x5A	; 90
    68cc:	76 e0       	ldi	r23, 0x06	; 6
    68ce:	8c e7       	ldi	r24, 0x7C	; 124
    68d0:	96 e0       	ldi	r25, 0x06	; 6
    68d2:	0e 94 4e 0d 	call	0x1a9c	; 0x1a9c <Get_AGCConfigurationAndControl>
    68d6:	2f e5       	ldi	r18, 0x5F	; 95
    68d8:	31 e0       	ldi	r19, 0x01	; 1
    68da:	41 e6       	ldi	r20, 0x61	; 97
    68dc:	51 e0       	ldi	r21, 0x01	; 1
    68de:	6a e5       	ldi	r22, 0x5A	; 90
    68e0:	76 e0       	ldi	r23, 0x06	; 6
    68e2:	8c e7       	ldi	r24, 0x7C	; 124
    68e4:	96 e0       	ldi	r25, 0x06	; 6
    68e6:	0e 94 82 1c 	call	0x3904	; 0x3904 <Set_AGCConfigurationAndControl>
    68ea:	86 e5       	ldi	r24, 0x56	; 86
    68ec:	c8 2e       	mov	r12, r24
    68ee:	86 e0       	ldi	r24, 0x06	; 6
    68f0:	d8 2e       	mov	r13, r24
    68f2:	90 e8       	ldi	r25, 0x80	; 128
    68f4:	e9 2e       	mov	r14, r25
    68f6:	96 e0       	ldi	r25, 0x06	; 6
    68f8:	f9 2e       	mov	r15, r25
    68fa:	2d e4       	ldi	r18, 0x4D	; 77
    68fc:	36 e0       	ldi	r19, 0x06	; 6
    68fe:	4c e2       	ldi	r20, 0x2C	; 44
    6900:	56 e0       	ldi	r21, 0x06	; 6
    6902:	6a e5       	ldi	r22, 0x5A	; 90
    6904:	76 e0       	ldi	r23, 0x06	; 6
    6906:	8c e7       	ldi	r24, 0x7C	; 124
    6908:	96 e0       	ldi	r25, 0x06	; 6
    690a:	0e 94 a8 15 	call	0x2b50	; 0x2b50 <Get_LeadingEdgeDetectionInterface>
    690e:	20 e5       	ldi	r18, 0x50	; 80
    6910:	e2 2e       	mov	r14, r18
    6912:	21 e0       	ldi	r18, 0x01	; 1
    6914:	f2 2e       	mov	r15, r18
    6916:	2d e4       	ldi	r18, 0x4D	; 77
    6918:	36 e0       	ldi	r19, 0x06	; 6
    691a:	4c e2       	ldi	r20, 0x2C	; 44
    691c:	56 e0       	ldi	r21, 0x06	; 6
    691e:	62 e5       	ldi	r22, 0x52	; 82
    6920:	71 e0       	ldi	r23, 0x01	; 1
    6922:	8c e7       	ldi	r24, 0x7C	; 124
    6924:	96 e0       	ldi	r25, 0x06	; 6
    6926:	0e 94 e6 23 	call	0x47cc	; 0x47cc <Set_LeadingEdgeDetectionInterface>
    692a:	8c e4       	ldi	r24, 0x4C	; 76
    692c:	91 e0       	ldi	r25, 0x01	; 1
    692e:	0e 94 44 1c 	call	0x3888	; 0x3888 <Set_TransmitPowerControl>
    6932:	30 e8       	ldi	r19, 0x80	; 128
    6934:	e3 2e       	mov	r14, r19
    6936:	36 e0       	ldi	r19, 0x06	; 6
    6938:	f3 2e       	mov	r15, r19
    693a:	2d e4       	ldi	r18, 0x4D	; 77
    693c:	36 e0       	ldi	r19, 0x06	; 6
    693e:	4c e2       	ldi	r20, 0x2C	; 44
    6940:	56 e0       	ldi	r21, 0x06	; 6
    6942:	6a e5       	ldi	r22, 0x5A	; 90
    6944:	76 e0       	ldi	r23, 0x06	; 6
    6946:	8c e7       	ldi	r24, 0x7C	; 124
    6948:	96 e0       	ldi	r25, 0x06	; 6
    694a:	0e 94 54 11 	call	0x22a8	; 0x22a8 <Get_AnalogRFConfigurationBlock>
    694e:	2d e4       	ldi	r18, 0x4D	; 77
    6950:	36 e0       	ldi	r19, 0x06	; 6
    6952:	48 e4       	ldi	r20, 0x48	; 72
    6954:	51 e0       	ldi	r21, 0x01	; 1
    6956:	6b e4       	ldi	r22, 0x4B	; 75
    6958:	71 e0       	ldi	r23, 0x01	; 1
    695a:	8c e7       	ldi	r24, 0x7C	; 124
    695c:	96 e0       	ldi	r25, 0x06	; 6
    695e:	0e 94 88 20 	call	0x4110	; 0x4110 <Set_AnalogRFConfigurationBlock>
    6962:	2d e4       	ldi	r18, 0x4D	; 77
    6964:	36 e0       	ldi	r19, 0x06	; 6
    6966:	4c e2       	ldi	r20, 0x2C	; 44
    6968:	56 e0       	ldi	r21, 0x06	; 6
    696a:	6a e5       	ldi	r22, 0x5A	; 90
    696c:	76 e0       	ldi	r23, 0x06	; 6
    696e:	8c e7       	ldi	r24, 0x7C	; 124
    6970:	96 e0       	ldi	r25, 0x06	; 6
    6972:	0e 94 4a 12 	call	0x2494	; 0x2494 <Get_TransimtterCalibrationBlock>
    6976:	27 e4       	ldi	r18, 0x47	; 71
    6978:	31 e0       	ldi	r19, 0x01	; 1
    697a:	4c e2       	ldi	r20, 0x2C	; 44
    697c:	56 e0       	ldi	r21, 0x06	; 6
    697e:	6a e5       	ldi	r22, 0x5A	; 90
    6980:	76 e0       	ldi	r23, 0x06	; 6
    6982:	8c e7       	ldi	r24, 0x7C	; 124
    6984:	96 e0       	ldi	r25, 0x06	; 6
    6986:	0e 94 7e 21 	call	0x42fc	; 0x42fc <Set_TransimtterCalibrationBlock>
    698a:	4c e2       	ldi	r20, 0x2C	; 44
    698c:	56 e0       	ldi	r21, 0x06	; 6
    698e:	6a e5       	ldi	r22, 0x5A	; 90
    6990:	76 e0       	ldi	r23, 0x06	; 6
    6992:	8c e7       	ldi	r24, 0x7C	; 124
    6994:	96 e0       	ldi	r25, 0x06	; 6
    6996:	0e 94 14 13 	call	0x2628	; 0x2628 <Get_FrequencySynthesiserControlBlock>
    699a:	4c e2       	ldi	r20, 0x2C	; 44
    699c:	56 e0       	ldi	r21, 0x06	; 6
    699e:	62 e4       	ldi	r22, 0x42	; 66
    69a0:	71 e0       	ldi	r23, 0x01	; 1
    69a2:	83 e4       	ldi	r24, 0x43	; 67
    69a4:	91 e0       	ldi	r25, 0x01	; 1
    69a6:	0e 94 48 22 	call	0x4490	; 0x4490 <Set_FrequencySynthesiserControlBlock>
    69aa:	9f ef       	ldi	r25, 0xFF	; 255
    69ac:	23 e2       	ldi	r18, 0x23	; 35
    69ae:	84 ef       	ldi	r24, 0xF4	; 244
    69b0:	91 50       	subi	r25, 0x01	; 1
    69b2:	20 40       	sbci	r18, 0x00	; 0
    69b4:	80 40       	sbci	r24, 0x00	; 0
    69b6:	e1 f7       	brne	.-8      	; 0x69b0 <main+0x1b2>
    69b8:	00 c0       	rjmp	.+0      	; 0x69ba <main+0x1bc>
    69ba:	00 00       	nop
    69bc:	2d e4       	ldi	r18, 0x4D	; 77
    69be:	36 e0       	ldi	r19, 0x06	; 6
    69c0:	4c e2       	ldi	r20, 0x2C	; 44
    69c2:	56 e0       	ldi	r21, 0x06	; 6
    69c4:	6a e5       	ldi	r22, 0x5A	; 90
    69c6:	76 e0       	ldi	r23, 0x06	; 6
    69c8:	8c e7       	ldi	r24, 0x7C	; 124
    69ca:	96 e0       	ldi	r25, 0x06	; 6
    69cc:	0e 94 8d 13 	call	0x271a	; 0x271a <Get_AlwaysONSystemControlInterface>
    69d0:	2d e4       	ldi	r18, 0x4D	; 77
    69d2:	36 e0       	ldi	r19, 0x06	; 6
    69d4:	4c e2       	ldi	r20, 0x2C	; 44
    69d6:	56 e0       	ldi	r21, 0x06	; 6
    69d8:	6a e5       	ldi	r22, 0x5A	; 90
    69da:	76 e0       	ldi	r23, 0x06	; 6
    69dc:	80 e2       	ldi	r24, 0x20	; 32
    69de:	91 e0       	ldi	r25, 0x01	; 1
    69e0:	0e 94 3f 26 	call	0x4c7e	; 0x4c7e <Set_AlwaysONSystemControlInterface>
    69e4:	0e 94 52 32 	call	0x64a4	; 0x64a4 <ESP8266_Init>
    69e8:	21 e0       	ldi	r18, 0x01	; 1
    69ea:	41 e0       	ldi	r20, 0x01	; 1
    69ec:	50 e0       	ldi	r21, 0x00	; 0
    69ee:	64 e0       	ldi	r22, 0x04	; 4
    69f0:	70 e0       	ldi	r23, 0x00	; 0
    69f2:	8e ef       	ldi	r24, 0xFE	; 254
    69f4:	91 e0       	ldi	r25, 0x01	; 1
    69f6:	0e 94 35 27 	call	0x4e6a	; 0x4e6a <SetBit>
    69fa:	80 91 65 01 	lds	r24, 0x0165	; 0x800165 <tflag>
    69fe:	90 91 66 01 	lds	r25, 0x0166	; 0x800166 <tflag+0x1>
    6a02:	01 97       	sbiw	r24, 0x01	; 1
    6a04:	09 f4       	brne	.+2      	; 0x6a08 <main+0x20a>
    6a06:	12 c1       	rjmp	.+548    	; 0x6c2c <main+0x42e>
    6a08:	0e 94 05 19 	call	0x320a	; 0x320a <Stop_Transmiter>
    6a0c:	8a e2       	ldi	r24, 0x2A	; 42
    6a0e:	91 e0       	ldi	r25, 0x01	; 1
    6a10:	0e 94 f3 31 	call	0x63e6	; 0x63e6 <Set_TransmitBuffer>
    6a14:	87 e2       	ldi	r24, 0x27	; 39
    6a16:	96 e0       	ldi	r25, 0x06	; 6
    6a18:	0e 94 1d 0b 	call	0x163a	; 0x163a <Get_FastReceiveTimeStamp>
    6a1c:	80 91 27 06 	lds	r24, 0x0627	; 0x800627 <Receive_STAMP>
    6a20:	80 93 22 06 	sts	0x0622, r24	; 0x800622 <TMP_Receive>
    6a24:	80 91 28 06 	lds	r24, 0x0628	; 0x800628 <Receive_STAMP+0x1>
    6a28:	80 93 23 06 	sts	0x0623, r24	; 0x800623 <TMP_Receive+0x1>
    6a2c:	80 91 29 06 	lds	r24, 0x0629	; 0x800629 <Receive_STAMP+0x2>
    6a30:	80 93 24 06 	sts	0x0624, r24	; 0x800624 <TMP_Receive+0x2>
    6a34:	80 91 2a 06 	lds	r24, 0x062A	; 0x80062a <Receive_STAMP+0x3>
    6a38:	80 93 25 06 	sts	0x0625, r24	; 0x800625 <TMP_Receive+0x3>
    6a3c:	80 91 2b 06 	lds	r24, 0x062B	; 0x80062b <Receive_STAMP+0x4>
    6a40:	80 93 26 06 	sts	0x0626, r24	; 0x800626 <TMP_Receive+0x4>
    6a44:	89 e3       	ldi	r24, 0x39	; 57
    6a46:	96 e0       	ldi	r25, 0x06	; 6
    6a48:	0e 94 fb 0b 	call	0x17f6	; 0x17f6 <Get_FastTransmitTimeStamp>
    6a4c:	80 91 39 06 	lds	r24, 0x0639	; 0x800639 <Send1_STAMP>
    6a50:	80 93 51 06 	sts	0x0651, r24	; 0x800651 <TMP_Transmit>
    6a54:	80 93 34 06 	sts	0x0634, r24	; 0x800634 <Send2_STAMP>
    6a58:	80 91 3a 06 	lds	r24, 0x063A	; 0x80063a <Send1_STAMP+0x1>
    6a5c:	80 93 52 06 	sts	0x0652, r24	; 0x800652 <TMP_Transmit+0x1>
    6a60:	80 93 35 06 	sts	0x0635, r24	; 0x800635 <Send2_STAMP+0x1>
    6a64:	80 91 3b 06 	lds	r24, 0x063B	; 0x80063b <Send1_STAMP+0x2>
    6a68:	80 93 53 06 	sts	0x0653, r24	; 0x800653 <TMP_Transmit+0x2>
    6a6c:	80 93 36 06 	sts	0x0636, r24	; 0x800636 <Send2_STAMP+0x2>
    6a70:	80 91 3c 06 	lds	r24, 0x063C	; 0x80063c <Send1_STAMP+0x3>
    6a74:	80 93 54 06 	sts	0x0654, r24	; 0x800654 <TMP_Transmit+0x3>
    6a78:	80 93 37 06 	sts	0x0637, r24	; 0x800637 <Send2_STAMP+0x3>
    6a7c:	80 91 3d 06 	lds	r24, 0x063D	; 0x80063d <Send1_STAMP+0x4>
    6a80:	80 93 55 06 	sts	0x0655, r24	; 0x800655 <TMP_Transmit+0x4>
    6a84:	80 93 38 06 	sts	0x0638, r24	; 0x800638 <Send2_STAMP+0x4>
    6a88:	10 92 21 06 	sts	0x0621, r1	; 0x800621 <Break_time+0x1>
    6a8c:	10 92 20 06 	sts	0x0620, r1	; 0x800620 <Break_time>
    6a90:	10 92 1b 06 	sts	0x061B, r1	; 0x80061b <Break_flag>
    6a94:	16 bc       	out	0x26, r1	; 38
    6a96:	80 91 6e 00 	lds	r24, 0x006E	; 0x80006e <__TEXT_REGION_LENGTH__+0x7e006e>
    6a9a:	81 60       	ori	r24, 0x01	; 1
    6a9c:	80 93 6e 00 	sts	0x006E, r24	; 0x80006e <__TEXT_REGION_LENGTH__+0x7e006e>
    6aa0:	0e 94 34 19 	call	0x3268	; 0x3268 <Start_Transmit>
    6aa4:	09 c0       	rjmp	.+18     	; 0x6ab8 <main+0x2ba>
    6aa6:	89 e3       	ldi	r24, 0x39	; 57
    6aa8:	96 e0       	ldi	r25, 0x06	; 6
    6aaa:	0e 94 fb 0b 	call	0x17f6	; 0x17f6 <Get_FastTransmitTimeStamp>
    6aae:	80 91 1b 06 	lds	r24, 0x061B	; 0x80061b <Break_flag>
    6ab2:	81 30       	cpi	r24, 0x01	; 1
    6ab4:	09 f4       	brne	.+2      	; 0x6ab8 <main+0x2ba>
    6ab6:	c3 c0       	rjmp	.+390    	; 0x6c3e <main+0x440>
    6ab8:	69 e3       	ldi	r22, 0x39	; 57
    6aba:	76 e0       	ldi	r23, 0x06	; 6
    6abc:	81 e5       	ldi	r24, 0x51	; 81
    6abe:	96 e0       	ldi	r25, 0x06	; 6
    6ac0:	0e 94 0f 07 	call	0xe1e	; 0xe1e <ArrayEqual>
    6ac4:	81 11       	cpse	r24, r1
    6ac6:	ef cf       	rjmp	.-34     	; 0x6aa6 <main+0x2a8>
    6ac8:	0e 94 63 19 	call	0x32c6	; 0x32c6 <Start_Receiving>
    6acc:	09 c0       	rjmp	.+18     	; 0x6ae0 <main+0x2e2>
    6ace:	87 e2       	ldi	r24, 0x27	; 39
    6ad0:	96 e0       	ldi	r25, 0x06	; 6
    6ad2:	0e 94 1d 0b 	call	0x163a	; 0x163a <Get_FastReceiveTimeStamp>
    6ad6:	80 91 1b 06 	lds	r24, 0x061B	; 0x80061b <Break_flag>
    6ada:	81 30       	cpi	r24, 0x01	; 1
    6adc:	09 f4       	brne	.+2      	; 0x6ae0 <main+0x2e2>
    6ade:	af c0       	rjmp	.+350    	; 0x6c3e <main+0x440>
    6ae0:	67 e2       	ldi	r22, 0x27	; 39
    6ae2:	76 e0       	ldi	r23, 0x06	; 6
    6ae4:	82 e2       	ldi	r24, 0x22	; 34
    6ae6:	96 e0       	ldi	r25, 0x06	; 6
    6ae8:	0e 94 0f 07 	call	0xe1e	; 0xe1e <ArrayEqual>
    6aec:	81 11       	cpse	r24, r1
    6aee:	ef cf       	rjmp	.-34     	; 0x6ace <main+0x2d0>
    6af0:	89 e3       	ldi	r24, 0x39	; 57
    6af2:	96 e0       	ldi	r25, 0x06	; 6
    6af4:	0e 94 fb 0b 	call	0x17f6	; 0x17f6 <Get_FastTransmitTimeStamp>
    6af8:	80 91 39 06 	lds	r24, 0x0639	; 0x800639 <Send1_STAMP>
    6afc:	80 93 51 06 	sts	0x0651, r24	; 0x800651 <TMP_Transmit>
    6b00:	80 93 34 06 	sts	0x0634, r24	; 0x800634 <Send2_STAMP>
    6b04:	80 91 3a 06 	lds	r24, 0x063A	; 0x80063a <Send1_STAMP+0x1>
    6b08:	80 93 52 06 	sts	0x0652, r24	; 0x800652 <TMP_Transmit+0x1>
    6b0c:	80 93 35 06 	sts	0x0635, r24	; 0x800635 <Send2_STAMP+0x1>
    6b10:	80 91 3b 06 	lds	r24, 0x063B	; 0x80063b <Send1_STAMP+0x2>
    6b14:	80 93 53 06 	sts	0x0653, r24	; 0x800653 <TMP_Transmit+0x2>
    6b18:	80 93 36 06 	sts	0x0636, r24	; 0x800636 <Send2_STAMP+0x2>
    6b1c:	80 91 3c 06 	lds	r24, 0x063C	; 0x80063c <Send1_STAMP+0x3>
    6b20:	80 93 54 06 	sts	0x0654, r24	; 0x800654 <TMP_Transmit+0x3>
    6b24:	80 93 37 06 	sts	0x0637, r24	; 0x800637 <Send2_STAMP+0x3>
    6b28:	80 91 3d 06 	lds	r24, 0x063D	; 0x80063d <Send1_STAMP+0x4>
    6b2c:	80 93 55 06 	sts	0x0655, r24	; 0x800655 <TMP_Transmit+0x4>
    6b30:	80 93 38 06 	sts	0x0638, r24	; 0x800638 <Send2_STAMP+0x4>
    6b34:	0e 94 34 19 	call	0x3268	; 0x3268 <Start_Transmit>
    6b38:	09 c0       	rjmp	.+18     	; 0x6b4c <main+0x34e>
    6b3a:	84 e3       	ldi	r24, 0x34	; 52
    6b3c:	96 e0       	ldi	r25, 0x06	; 6
    6b3e:	0e 94 fb 0b 	call	0x17f6	; 0x17f6 <Get_FastTransmitTimeStamp>
    6b42:	80 91 1b 06 	lds	r24, 0x061B	; 0x80061b <Break_flag>
    6b46:	81 30       	cpi	r24, 0x01	; 1
    6b48:	09 f4       	brne	.+2      	; 0x6b4c <main+0x34e>
    6b4a:	79 c0       	rjmp	.+242    	; 0x6c3e <main+0x440>
    6b4c:	64 e3       	ldi	r22, 0x34	; 52
    6b4e:	76 e0       	ldi	r23, 0x06	; 6
    6b50:	81 e5       	ldi	r24, 0x51	; 81
    6b52:	96 e0       	ldi	r25, 0x06	; 6
    6b54:	0e 94 0f 07 	call	0xe1e	; 0xe1e <ArrayEqual>
    6b58:	81 11       	cpse	r24, r1
    6b5a:	ef cf       	rjmp	.-34     	; 0x6b3a <main+0x33c>
    6b5c:	80 91 6e 00 	lds	r24, 0x006E	; 0x80006e <__TEXT_REGION_LENGTH__+0x7e006e>
    6b60:	8e 7f       	andi	r24, 0xFE	; 254
    6b62:	80 93 6e 00 	sts	0x006E, r24	; 0x80006e <__TEXT_REGION_LENGTH__+0x7e006e>
    6b66:	87 e2       	ldi	r24, 0x27	; 39
    6b68:	96 e0       	ldi	r25, 0x06	; 6
    6b6a:	0e 94 1d 0b 	call	0x163a	; 0x163a <Get_FastReceiveTimeStamp>
    6b6e:	84 e3       	ldi	r24, 0x34	; 52
    6b70:	96 e0       	ldi	r25, 0x06	; 6
    6b72:	0e 94 fb 0b 	call	0x17f6	; 0x17f6 <Get_FastTransmitTimeStamp>
    6b76:	80 91 39 06 	lds	r24, 0x0639	; 0x800639 <Send1_STAMP>
    6b7a:	80 93 3e 06 	sts	0x063E, r24	; 0x80063e <Data>
    6b7e:	80 91 3a 06 	lds	r24, 0x063A	; 0x80063a <Send1_STAMP+0x1>
    6b82:	80 93 3f 06 	sts	0x063F, r24	; 0x80063f <Data+0x1>
    6b86:	80 91 3b 06 	lds	r24, 0x063B	; 0x80063b <Send1_STAMP+0x2>
    6b8a:	80 93 40 06 	sts	0x0640, r24	; 0x800640 <Data+0x2>
    6b8e:	80 91 3c 06 	lds	r24, 0x063C	; 0x80063c <Send1_STAMP+0x3>
    6b92:	80 93 41 06 	sts	0x0641, r24	; 0x800641 <Data+0x3>
    6b96:	80 91 3d 06 	lds	r24, 0x063D	; 0x80063d <Send1_STAMP+0x4>
    6b9a:	80 93 42 06 	sts	0x0642, r24	; 0x800642 <Data+0x4>
    6b9e:	80 91 27 06 	lds	r24, 0x0627	; 0x800627 <Receive_STAMP>
    6ba2:	80 93 43 06 	sts	0x0643, r24	; 0x800643 <Data+0x5>
    6ba6:	80 91 28 06 	lds	r24, 0x0628	; 0x800628 <Receive_STAMP+0x1>
    6baa:	80 93 44 06 	sts	0x0644, r24	; 0x800644 <Data+0x6>
    6bae:	80 91 29 06 	lds	r24, 0x0629	; 0x800629 <Receive_STAMP+0x2>
    6bb2:	80 93 45 06 	sts	0x0645, r24	; 0x800645 <Data+0x7>
    6bb6:	80 91 2a 06 	lds	r24, 0x062A	; 0x80062a <Receive_STAMP+0x3>
    6bba:	80 93 46 06 	sts	0x0646, r24	; 0x800646 <Data+0x8>
    6bbe:	80 91 2b 06 	lds	r24, 0x062B	; 0x80062b <Receive_STAMP+0x4>
    6bc2:	80 93 47 06 	sts	0x0647, r24	; 0x800647 <Data+0x9>
    6bc6:	80 91 34 06 	lds	r24, 0x0634	; 0x800634 <Send2_STAMP>
    6bca:	80 93 48 06 	sts	0x0648, r24	; 0x800648 <Data+0xa>
    6bce:	80 91 35 06 	lds	r24, 0x0635	; 0x800635 <Send2_STAMP+0x1>
    6bd2:	80 93 49 06 	sts	0x0649, r24	; 0x800649 <Data+0xb>
    6bd6:	80 91 36 06 	lds	r24, 0x0636	; 0x800636 <Send2_STAMP+0x2>
    6bda:	80 93 4a 06 	sts	0x064A, r24	; 0x80064a <Data+0xc>
    6bde:	80 91 37 06 	lds	r24, 0x0637	; 0x800637 <Send2_STAMP+0x3>
    6be2:	80 93 4b 06 	sts	0x064B, r24	; 0x80064b <Data+0xd>
    6be6:	80 91 38 06 	lds	r24, 0x0638	; 0x800638 <Send2_STAMP+0x4>
    6bea:	80 93 4c 06 	sts	0x064C, r24	; 0x80064c <Data+0xe>
    6bee:	4f e0       	ldi	r20, 0x0F	; 15
    6bf0:	50 e0       	ldi	r21, 0x00	; 0
    6bf2:	6e e5       	ldi	r22, 0x5E	; 94
    6bf4:	76 e0       	ldi	r23, 0x06	; 6
    6bf6:	8e e3       	ldi	r24, 0x3E	; 62
    6bf8:	96 e0       	ldi	r25, 0x06	; 6
    6bfa:	0e 94 ce 00 	call	0x19c	; 0x19c <Hex_to_ASCII>
    6bfe:	87 ea       	ldi	r24, 0xA7	; 167
    6c00:	91 e6       	ldi	r25, 0x61	; 97
    6c02:	01 97       	sbiw	r24, 0x01	; 1
    6c04:	f1 f7       	brne	.-4      	; 0x6c02 <main+0x404>
    6c06:	00 c0       	rjmp	.+0      	; 0x6c08 <main+0x40a>
    6c08:	00 00       	nop
    6c0a:	41 e0       	ldi	r20, 0x01	; 1
    6c0c:	50 e0       	ldi	r21, 0x00	; 0
    6c0e:	6e e5       	ldi	r22, 0x5E	; 94
    6c10:	76 e0       	ldi	r23, 0x06	; 6
    6c12:	81 e0       	ldi	r24, 0x01	; 1
    6c14:	90 e0       	ldi	r25, 0x00	; 0
    6c16:	0e 94 0e 06 	call	0xc1c	; 0xc1c <AT_CIPSEND>
    6c1a:	81 e0       	ldi	r24, 0x01	; 1
    6c1c:	90 e0       	ldi	r25, 0x00	; 0
    6c1e:	90 93 66 01 	sts	0x0166, r25	; 0x800166 <tflag+0x1>
    6c22:	80 93 65 01 	sts	0x0165, r24	; 0x800165 <tflag>
    6c26:	01 97       	sbiw	r24, 0x01	; 1
    6c28:	09 f0       	breq	.+2      	; 0x6c2c <main+0x42e>
    6c2a:	ee ce       	rjmp	.-548    	; 0x6a08 <main+0x20a>
    6c2c:	0e 94 ed 01 	call	0x3da	; 0x3da <WaitForStart>
    6c30:	8f e4       	ldi	r24, 0x4F	; 79
    6c32:	93 ec       	ldi	r25, 0xC3	; 195
    6c34:	01 97       	sbiw	r24, 0x01	; 1
    6c36:	f1 f7       	brne	.-4      	; 0x6c34 <main+0x436>
    6c38:	00 c0       	rjmp	.+0      	; 0x6c3a <main+0x43c>
    6c3a:	00 00       	nop
    6c3c:	e5 ce       	rjmp	.-566    	; 0x6a08 <main+0x20a>
    6c3e:	80 e0       	ldi	r24, 0x00	; 0
    6c40:	90 e0       	ldi	r25, 0x00	; 0
    6c42:	ed cf       	rjmp	.-38     	; 0x6c1e <main+0x420>

00006c44 <__vector_18>:
    6c44:	1f 92       	push	r1
    6c46:	0f 92       	push	r0
    6c48:	0f b6       	in	r0, 0x3f	; 63
    6c4a:	0f 92       	push	r0
    6c4c:	11 24       	eor	r1, r1
    6c4e:	8f 93       	push	r24
    6c50:	9f 93       	push	r25
    6c52:	80 91 20 06 	lds	r24, 0x0620	; 0x800620 <Break_time>
    6c56:	90 91 21 06 	lds	r25, 0x0621	; 0x800621 <Break_time+0x1>
    6c5a:	01 96       	adiw	r24, 0x01	; 1
    6c5c:	90 93 21 06 	sts	0x0621, r25	; 0x800621 <Break_time+0x1>
    6c60:	80 93 20 06 	sts	0x0620, r24	; 0x800620 <Break_time>
    6c64:	80 91 20 06 	lds	r24, 0x0620	; 0x800620 <Break_time>
    6c68:	90 91 21 06 	lds	r25, 0x0621	; 0x800621 <Break_time+0x1>
    6c6c:	02 97       	sbiw	r24, 0x02	; 2
    6c6e:	39 f4       	brne	.+14     	; 0x6c7e <__vector_18+0x3a>
    6c70:	81 e0       	ldi	r24, 0x01	; 1
    6c72:	80 93 1b 06 	sts	0x061B, r24	; 0x80061b <Break_flag>
    6c76:	10 92 21 06 	sts	0x0621, r1	; 0x800621 <Break_time+0x1>
    6c7a:	10 92 20 06 	sts	0x0620, r1	; 0x800620 <Break_time>
    6c7e:	9f 91       	pop	r25
    6c80:	8f 91       	pop	r24
    6c82:	0f 90       	pop	r0
    6c84:	0f be       	out	0x3f, r0	; 63
    6c86:	0f 90       	pop	r0
    6c88:	1f 90       	pop	r1
    6c8a:	18 95       	reti

00006c8c <__tablejump2__>:
    6c8c:	ee 0f       	add	r30, r30
    6c8e:	ff 1f       	adc	r31, r31
    6c90:	05 90       	lpm	r0, Z+
    6c92:	f4 91       	lpm	r31, Z
    6c94:	e0 2d       	mov	r30, r0
    6c96:	09 94       	ijmp

00006c98 <strcmp>:
    6c98:	fb 01       	movw	r30, r22
    6c9a:	dc 01       	movw	r26, r24
    6c9c:	8d 91       	ld	r24, X+
    6c9e:	01 90       	ld	r0, Z+
    6ca0:	80 19       	sub	r24, r0
    6ca2:	01 10       	cpse	r0, r1
    6ca4:	d9 f3       	breq	.-10     	; 0x6c9c <strcmp+0x4>
    6ca6:	99 0b       	sbc	r25, r25
    6ca8:	08 95       	ret

00006caa <strncmp>:
    6caa:	fb 01       	movw	r30, r22
    6cac:	dc 01       	movw	r26, r24
    6cae:	41 50       	subi	r20, 0x01	; 1
    6cb0:	50 40       	sbci	r21, 0x00	; 0
    6cb2:	30 f0       	brcs	.+12     	; 0x6cc0 <strncmp+0x16>
    6cb4:	8d 91       	ld	r24, X+
    6cb6:	01 90       	ld	r0, Z+
    6cb8:	80 19       	sub	r24, r0
    6cba:	19 f4       	brne	.+6      	; 0x6cc2 <strncmp+0x18>
    6cbc:	00 20       	and	r0, r0
    6cbe:	b9 f7       	brne	.-18     	; 0x6cae <strncmp+0x4>
    6cc0:	88 1b       	sub	r24, r24
    6cc2:	99 0b       	sbc	r25, r25
    6cc4:	08 95       	ret

00006cc6 <__itoa_ncheck>:
    6cc6:	bb 27       	eor	r27, r27
    6cc8:	4a 30       	cpi	r20, 0x0A	; 10
    6cca:	31 f4       	brne	.+12     	; 0x6cd8 <__itoa_ncheck+0x12>
    6ccc:	99 23       	and	r25, r25
    6cce:	22 f4       	brpl	.+8      	; 0x6cd8 <__itoa_ncheck+0x12>
    6cd0:	bd e2       	ldi	r27, 0x2D	; 45
    6cd2:	90 95       	com	r25
    6cd4:	81 95       	neg	r24
    6cd6:	9f 4f       	sbci	r25, 0xFF	; 255
    6cd8:	0c 94 6f 36 	jmp	0x6cde	; 0x6cde <__utoa_common>

00006cdc <__utoa_ncheck>:
    6cdc:	bb 27       	eor	r27, r27

00006cde <__utoa_common>:
    6cde:	fb 01       	movw	r30, r22
    6ce0:	55 27       	eor	r21, r21
    6ce2:	aa 27       	eor	r26, r26
    6ce4:	88 0f       	add	r24, r24
    6ce6:	99 1f       	adc	r25, r25
    6ce8:	aa 1f       	adc	r26, r26
    6cea:	a4 17       	cp	r26, r20
    6cec:	10 f0       	brcs	.+4      	; 0x6cf2 <__utoa_common+0x14>
    6cee:	a4 1b       	sub	r26, r20
    6cf0:	83 95       	inc	r24
    6cf2:	50 51       	subi	r21, 0x10	; 16
    6cf4:	b9 f7       	brne	.-18     	; 0x6ce4 <__utoa_common+0x6>
    6cf6:	a0 5d       	subi	r26, 0xD0	; 208
    6cf8:	aa 33       	cpi	r26, 0x3A	; 58
    6cfa:	08 f0       	brcs	.+2      	; 0x6cfe <__utoa_common+0x20>
    6cfc:	a9 5d       	subi	r26, 0xD9	; 217
    6cfe:	a1 93       	st	Z+, r26
    6d00:	00 97       	sbiw	r24, 0x00	; 0
    6d02:	79 f7       	brne	.-34     	; 0x6ce2 <__utoa_common+0x4>
    6d04:	b1 11       	cpse	r27, r1
    6d06:	b1 93       	st	Z+, r27
    6d08:	11 92       	st	Z+, r1
    6d0a:	cb 01       	movw	r24, r22
    6d0c:	0c 94 88 36 	jmp	0x6d10	; 0x6d10 <strrev>

00006d10 <strrev>:
    6d10:	dc 01       	movw	r26, r24
    6d12:	fc 01       	movw	r30, r24
    6d14:	67 2f       	mov	r22, r23
    6d16:	71 91       	ld	r23, Z+
    6d18:	77 23       	and	r23, r23
    6d1a:	e1 f7       	brne	.-8      	; 0x6d14 <strrev+0x4>
    6d1c:	32 97       	sbiw	r30, 0x02	; 2
    6d1e:	04 c0       	rjmp	.+8      	; 0x6d28 <strrev+0x18>
    6d20:	7c 91       	ld	r23, X
    6d22:	6d 93       	st	X+, r22
    6d24:	70 83       	st	Z, r23
    6d26:	62 91       	ld	r22, -Z
    6d28:	ae 17       	cp	r26, r30
    6d2a:	bf 07       	cpc	r27, r31
    6d2c:	c8 f3       	brcs	.-14     	; 0x6d20 <strrev+0x10>
    6d2e:	08 95       	ret

00006d30 <_exit>:
    6d30:	f8 94       	cli

00006d32 <__stop_program>:
    6d32:	ff cf       	rjmp	.-2      	; 0x6d32 <__stop_program>
